
obj/blink.elf：     文件格式 elf32-littlearm


Disassembly of section .text:

87800000 <_start>:
87800000:	e59ff100 	ldr	pc, [pc, #256]	@ 87800108 <FIQ_Handler+0x8>
87800004:	e59ff100 	ldr	pc, [pc, #256]	@ 8780010c <FIQ_Handler+0xc>
87800008:	e59ff100 	ldr	pc, [pc, #256]	@ 87800110 <FIQ_Handler+0x10>
8780000c:	e59ff100 	ldr	pc, [pc, #256]	@ 87800114 <FIQ_Handler+0x14>
87800010:	e59ff100 	ldr	pc, [pc, #256]	@ 87800118 <FIQ_Handler+0x18>
87800014:	e59ff100 	ldr	pc, [pc, #256]	@ 8780011c <FIQ_Handler+0x1c>
87800018:	e59ff100 	ldr	pc, [pc, #256]	@ 87800120 <FIQ_Handler+0x20>
8780001c:	e59ff100 	ldr	pc, [pc, #256]	@ 87800124 <FIQ_Handler+0x24>

87800020 <Reset_Handler>:
87800020:	f10c0080 	cpsid	i
87800024:	ee110f10 	mrc	15, 0, r0, cr1, cr0, {0}
87800028:	e3c00a01 	bic	r0, r0, #4096	@ 0x1000
8780002c:	e3c00004 	bic	r0, r0, #4
87800030:	e3c00002 	bic	r0, r0, #2
87800034:	e3c00b02 	bic	r0, r0, #2048	@ 0x800
87800038:	e3c00001 	bic	r0, r0, #1
8780003c:	ee010f10 	mcr	15, 0, r0, cr1, cr0, {0}
87800040:	e10f0000 	mrs	r0, CPSR
87800044:	e3c0001f 	bic	r0, r0, #31
87800048:	e3800012 	orr	r0, r0, #18
8780004c:	e129f000 	msr	CPSR_fc, r0
87800050:	e59fd0d0 	ldr	sp, [pc, #208]	@ 87800128 <FIQ_Handler+0x28>
87800054:	e10f0000 	mrs	r0, CPSR
87800058:	e3c0001f 	bic	r0, r0, #31
8780005c:	e380001f 	orr	r0, r0, #31
87800060:	e129f000 	msr	CPSR_fc, r0
87800064:	e59fd0c0 	ldr	sp, [pc, #192]	@ 8780012c <FIQ_Handler+0x2c>
87800068:	e10f0000 	mrs	r0, CPSR
8780006c:	e3c0001f 	bic	r0, r0, #31
87800070:	e3800013 	orr	r0, r0, #19
87800074:	e129f000 	msr	CPSR_fc, r0
87800078:	e59fd0b0 	ldr	sp, [pc, #176]	@ 87800130 <FIQ_Handler+0x30>
8780007c:	f1080080 	cpsie	i
87800080:	ea0000f3 	b	87800454 <main>

87800084 <Undefined_Handler>:
87800084:	e59f0080 	ldr	r0, [pc, #128]	@ 8780010c <FIQ_Handler+0xc>
87800088:	e12fff10 	bx	r0

8780008c <SVC_Handler>:
8780008c:	e59f007c 	ldr	r0, [pc, #124]	@ 87800110 <FIQ_Handler+0x10>
87800090:	e12fff10 	bx	r0

87800094 <PrefetchAbort_Handler>:
87800094:	e59f0078 	ldr	r0, [pc, #120]	@ 87800114 <FIQ_Handler+0x14>
87800098:	e12fff10 	bx	r0

8780009c <DataAbort_Handler>:
8780009c:	e59f0074 	ldr	r0, [pc, #116]	@ 87800118 <FIQ_Handler+0x18>
878000a0:	e12fff10 	bx	r0

878000a4 <Reserved_Handler>:
878000a4:	e59f0070 	ldr	r0, [pc, #112]	@ 8780011c <FIQ_Handler+0x1c>
878000a8:	e12fff10 	bx	r0

878000ac <IRQ_Handler>:
878000ac:	e52de004 	push	{lr}		@ (str lr, [sp, #-4]!)
878000b0:	e92d100f 	push	{r0, r1, r2, r3, ip}
878000b4:	e14f0000 	mrs	r0, SPSR
878000b8:	e52d0004 	push	{r0}		@ (str r0, [sp, #-4]!)
878000bc:	ee9f1f10 	mrc	15, 4, r1, cr15, cr0, {0}
878000c0:	e2811a02 	add	r1, r1, #8192	@ 0x2000
878000c4:	e591000c 	ldr	r0, [r1, #12]
878000c8:	e92d0003 	push	{r0, r1}
878000cc:	f1020013 	cps	#19
878000d0:	e52de004 	push	{lr}		@ (str lr, [sp, #-4]!)
878000d4:	e59f2058 	ldr	r2, [pc, #88]	@ 87800134 <FIQ_Handler+0x34>
878000d8:	e12fff32 	blx	r2
878000dc:	e49de004 	pop	{lr}		@ (ldr lr, [sp], #4)
878000e0:	f1020012 	cps	#18
878000e4:	e8bd0003 	pop	{r0, r1}
878000e8:	e5810010 	str	r0, [r1, #16]
878000ec:	e49d0004 	pop	{r0}		@ (ldr r0, [sp], #4)
878000f0:	e16ff000 	msr	SPSR_fsxc, r0
878000f4:	e8bd100f 	pop	{r0, r1, r2, r3, ip}
878000f8:	e49de004 	pop	{lr}		@ (ldr lr, [sp], #4)
878000fc:	e25ef004 	subs	pc, lr, #4

87800100 <FIQ_Handler>:
87800100:	e59f001c 	ldr	r0, [pc, #28]	@ 87800124 <FIQ_Handler+0x24>
87800104:	e12fff10 	bx	r0
87800108:	87800020 	strhi	r0, [r0, r0, lsr #32]
8780010c:	87800084 	strhi	r0, [r0, r4, lsl #1]
87800110:	8780008c 	strhi	r0, [r0, ip, lsl #1]
87800114:	87800094 			@ <UNDEFINED> instruction: 0x87800094
87800118:	8780009c 			@ <UNDEFINED> instruction: 0x8780009c
8780011c:	878000a4 	strhi	r0, [r0, r4, lsr #1]
87800120:	878000ac 	strhi	r0, [r0, ip, lsr #1]
87800124:	87800100 	strhi	r0, [r0, r0, lsl #2]
87800128:	80060000 	andhi	r0, r6, r0
8780012c:	80040000 	andhi	r0, r4, r0
87800130:	80020000 	andhi	r0, r2, r0
87800134:	87801e44 	strhi	r1, [r0, r4, asr #28]
87800138:	00000099 	muleq	r0, r9, r0
8780013c:	00040005 	andeq	r0, r4, r5
87800140:	0000002e 	andeq	r0, r0, lr, lsr #32
87800144:	fb010102 	blx	87840556 <__bss_end+0x3d512>
87800148:	01000d0e 	tsteq	r0, lr, lsl #26
8780014c:	00010101 	andeq	r0, r1, r1, lsl #2
87800150:	00010000 	andeq	r0, r1, r0
87800154:	01010100 	mrseq	r0, (UNDEF: 17)
87800158:	01d5021f 	bicseq	r0, r5, pc, lsl r2
8780015c:	01f38780 	mvnseq	r8, r0, lsl #15
87800160:	01028780 	smlabbeq	r2, r0, r7, r8
87800164:	020f021f 	andeq	r0, pc, #-268435455	@ 0xf0000001
87800168:	878001fb 			@ <UNDEFINED> instruction: 0x878001fb
8780016c:	8001fb01 	andhi	pc, r1, r1, lsl #22
87800170:	05000187 	streq	r0, [r0, #-391]	@ 0xfffffe79
87800174:	80000002 	andhi	r0, r0, r2
87800178:	010c0387 	smlabbeq	ip, r7, r3, r0
8780017c:	2f2f2f2f 	svccs	0x002f2f2f
87800180:	312f2f2f 			@ <UNDEFINED> instruction: 0x312f2f2f
87800184:	2f2f2f2f 	svccs	0x002f2f2f
87800188:	342f2f2f 	strtcc	r2, [pc], #-3887	@ 87800190 <FIQ_Handler+0x90>
8780018c:	2f2f2f2f 	svccs	0x002f2f2f
87800190:	2f2f2f31 	svccs	0x002f2f31
87800194:	2f2f312f 	svccs	0x002f312f
87800198:	302f2f2f 	eorcc	r2, pc, pc, lsr #30
8780019c:	2f312f31 	svccs	0x00312f31
878001a0:	2f312f31 	svccs	0x00312f31
878001a4:	2f322f31 	svccs	0x00322f31
878001a8:	2f302f30 	svccs	0x00302f30
878001ac:	2f2f322f 	svccs	0x002f322f
878001b0:	2f312f34 	svccs	0x00312f34
878001b4:	2f302f2f 	svccs	0x00302f2f
878001b8:	30302f30 	eorscc	r2, r0, r0, lsr pc
878001bc:	7f96032f 	svcvc	0x0096032f
878001c0:	2f2f2f2e 	svccs	0x002f2f2e
878001c4:	2f2f2f2f 	svccs	0x002f2f2f
878001c8:	352e1403 	strcc	r1, [lr, #-1027]!	@ 0xfffffbfd
878001cc:	2e2f0335 	mcrcs	3, 1, r0, cr15, cr5, {1}
878001d0:	01000202 	tsteq	r0, r2, lsl #4
878001d4:	6f682f01 	svcvs	0x00682f01
878001d8:	612f656d 			@ <UNDEFINED> instruction: 0x612f656d
878001dc:	62686372 	rsbvs	r6, r8, #-939524095	@ 0xc8000001
878001e0:	6c2f7265 	stcvs	2, cr7, [pc], #-404	@ 87800054 <Reset_Handler+0x34>
878001e4:	6e726165 	cdpvs	1, 7, cr6, cr2, cr5, {3}
878001e8:	4950472f 	ldmdbmi	r0, {r0, r1, r2, r3, r5, r8, r9, sl, lr}^
878001ec:	41552f4f 	cmpmi	r5, pc, asr #30
878001f0:	73005452 	tstvc	r0, #1375731712	@ 0x52000000
878001f4:	73006372 	tstvc	r0, #-939524095	@ 0xc8000001
878001f8:	732f6372 			@ <UNDEFINED> instruction: 0x732f6372
878001fc:	74726174 	ldrbtvc	r6, [r2], #-372	@ 0xfffffe8c
87800200:	4700732e 	strmi	r7, [r0, -lr, lsr #6]
87800204:	4120554e 			@ <UNDEFINED> instruction: 0x4120554e
87800208:	2e322053 	mrccs	0, 1, r2, cr2, cr3, {2}
8780020c:	47003434 	smladxmi	r0, r4, r4, r3
87800210:	314f4950 	cmpcc	pc, r0, asr r9	@ <UNPREDICTABLE>
87800214:	314f495f 	cmpcc	pc, pc, asr r9	@ <UNPREDICTABLE>
87800218:	6e495f38 	mcrvs	15, 2, r5, cr9, cr8, {1}
8780021c:	6e495f74 	mcrvs	15, 2, r5, cr9, cr4, {3}
87800220:	45007469 	strmi	r7, [r0, #-1129]	@ 0xfffffb97
87800224:	5f454744 	svcpl	0x00454744
87800228:	004c4553 	subeq	r4, ip, r3, asr r5
8780022c:	54495045 	strbpl	r5, [r9], #-69	@ 0xffffffbb
87800230:	6e495f31 	mcrvs	15, 2, r5, cr9, cr1, {1}
87800234:	47007469 	strmi	r7, [r0, -r9, ror #8]
87800238:	4320554e 			@ <UNDEFINED> instruction: 0x4320554e
8780023c:	31203731 			@ <UNDEFINED> instruction: 0x31203731
87800240:	2e322e34 	mrccs	14, 1, r2, cr2, cr4, {1}
87800244:	30322031 	eorscc	r2, r2, r1, lsr r0
87800248:	32303532 	eorscc	r3, r0, #209715200	@ 0xc800000
8780024c:	2d203730 	stccs	7, cr3, [r0, #-192]!	@ 0xffffff40
87800250:	6f6c666d 	svcvs	0x006c666d
87800254:	612d7461 			@ <UNDEFINED> instruction: 0x612d7461
87800258:	683d6962 	ldmdavs	sp!, {r1, r5, r6, r8, fp, sp, lr}
8780025c:	20647261 	rsbcs	r7, r4, r1, ror #4
87800260:	70666d2d 	rsbvc	r6, r6, sp, lsr #26
87800264:	66763d75 			@ <UNDEFINED> instruction: 0x66763d75
87800268:	6d2d2070 	stcvs	0, cr2, [sp, #-448]!	@ 0xfffffe40
8780026c:	2d736c74 	ldclcs	12, cr6, [r3, #-464]!	@ 0xfffffe30
87800270:	6c616964 			@ <UNDEFINED> instruction: 0x6c616964
87800274:	3d746365 	ldclcc	3, cr6, [r4, #-404]!	@ 0xfffffe6c
87800278:	20756e67 	rsbscs	r6, r5, r7, ror #28
8780027c:	72616d2d 	rsbvc	r6, r1, #2880	@ 0xb40
87800280:	6d2d206d 	stcvs	0, cr2, [sp, #-436]!	@ 0xfffffe4c
87800284:	68637261 	stmdavs	r3!, {r0, r5, r6, r9, ip, sp, lr}^
87800288:	6d72613d 	ldclvs	1, cr6, [r2, #-244]!	@ 0xffffff0c
8780028c:	662b3676 			@ <UNDEFINED> instruction: 0x662b3676
87800290:	672d2070 			@ <UNDEFINED> instruction: 0x672d2070
87800294:	49444700 	stmdbmi	r4, {r8, r9, sl, lr}^
87800298:	6f6c0052 	svcvs	0x006c0052
8780029c:	6c20676e 	stcvs	7, cr6, [r0], #-440	@ 0xfffffe48
878002a0:	20676e6f 	rsbcs	r6, r7, pc, ror #28
878002a4:	69736e75 	ldmdbvs	r3!, {r0, r2, r4, r5, r6, r9, sl, fp, sp, lr}^
878002a8:	64656e67 	strbtvs	r6, [r5], #-3687	@ 0xfffff199
878002ac:	746e6920 	strbtvc	r6, [lr], #-2336	@ 0xfffff6e0
878002b0:	42535500 	subsmi	r5, r3, #0, 10
878002b4:	4c505f31 	mrrcmi	15, 3, r5, r0, cr1
878002b8:	6e495f4c 	cdpvs	15, 4, cr5, cr9, cr12, {2}
878002bc:	75007469 	strvc	r7, [r0, #-1129]	@ 0xfffffb97
878002c0:	6769736e 	strbvs	r7, [r9, -lr, ror #6]!
878002c4:	2064656e 	rsbcs	r6, r4, lr, ror #10
878002c8:	72616863 	rsbvc	r6, r1, #6488064	@ 0x630000
878002cc:	6f687300 	svcvs	0x00687300
878002d0:	75207472 	strvc	r7, [r0, #-1138]!	@ 0xfffffb8e
878002d4:	6769736e 	strbvs	r7, [r9, -lr, ror #6]!
878002d8:	2064656e 	rsbcs	r6, r4, lr, ror #10
878002dc:	00746e69 	rsbseq	r6, r4, r9, ror #28
878002e0:	7475705f 	ldrbtvc	r7, [r5], #-95	@ 0xffffffa1
878002e4:	50450063 	subpl	r0, r5, r3, rrx
878002e8:	5f325449 	svcpl	0x00325449
878002ec:	74696e49 	strbtvc	r6, [r9], #-3657	@ 0xfffff1b7
878002f0:	69616d00 	stmdbvs	r1!, {r8, sl, fp, sp, lr}^
878002f4:	705f006e 	subsvc	r0, pc, lr, rrx
878002f8:	00737475 	rsbseq	r7, r3, r5, ror r4
878002fc:	54524155 	ldrbpl	r4, [r2], #-341	@ 0xfffffeab
87800300:	6e495f31 	mcrvs	15, 2, r5, cr9, cr1, {1}
87800304:	53007469 	tstpl	r0, #1761607680	@ 0x69000000
87800308:	65747379 	ldrbvs	r7, [r4, #-889]!	@ 0xfffffc87
8780030c:	4c505f6d 	mrrcmi	15, 6, r5, r0, cr13
87800310:	6e495f4c 	cdpvs	15, 4, cr5, cr9, cr12, {2}
87800314:	43007469 	tstmi	r0, #1761607680	@ 0x69000000
87800318:	6f6d6d6f 	svcvs	0x006d6d6f
8780031c:	7379536e 	cmnvc	r9, #-1207959551	@ 0xb8000001
87800320:	436d6574 	cmnmi	sp, #116, 10	@ 0x1d000000
87800324:	6b636f6c 	blvs	890dc0dc <__bss_end+0x18d9098>
87800328:	696e495f 	stmdbvs	lr!, {r0, r1, r2, r3, r4, r6, r8, fp, lr}^
8780032c:	50470074 	subpl	r0, r7, r4, ror r0
87800330:	545f4f49 	ldrbpl	r4, [pc], #-3913	@ 87800338 <FIQ_Handler+0x238>
87800334:	00657079 	rsbeq	r7, r5, r9, ror r0
87800338:	5f4d5241 	svcpl	0x004d5241
8780033c:	5f4c4c50 	svcpl	0x004c4c50
87800340:	74696e49 	strbtvc	r6, [r9], #-3657	@ 0xfffff1b7
87800344:	6e697500 	cdpvs	5, 6, cr7, cr9, cr0, {0}
87800348:	745f3874 	ldrbvc	r3, [pc], #-2164	@ 87800350 <FIQ_Handler+0x250>
8780034c:	72707300 	rsbsvc	r7, r0, #0, 6
87800350:	66746e69 	ldrbtvs	r6, [r4], -r9, ror #28
87800354:	79654b00 	stmdbvc	r5!, {r8, r9, fp, lr}^
87800358:	696e495f 	stmdbvs	lr!, {r0, r1, r2, r3, r4, r6, r8, fp, lr}^
8780035c:	65420074 	strbvs	r0, [r2, #-116]	@ 0xffffff8c
87800360:	495f7065 	ldmdbmi	pc, {r0, r2, r5, r6, ip, sp, lr}^	@ <UNPREDICTABLE>
87800364:	0074696e 	rsbseq	r6, r4, lr, ror #18
87800368:	676e6f6c 	strbvs	r6, [lr, -ip, ror #30]!
8780036c:	6e6f6c20 	cdpvs	12, 6, cr6, cr15, cr0, {1}
87800370:	6e692067 	cdpvs	0, 6, cr2, cr9, cr7, {3}
87800374:	72730074 	rsbsvc	r0, r3, #116	@ 0x74
87800378:	616d2f63 	cmnvs	sp, r3, ror #30
8780037c:	632e6e69 			@ <UNDEFINED> instruction: 0x632e6e69
87800380:	6f687300 	svcvs	0x00687300
87800384:	69207472 	stmdbvs	r0!, {r1, r4, r5, r6, sl, ip, sp, lr}
87800388:	4900746e 	stmdbmi	r0, {r1, r2, r3, r5, r6, sl, ip, sp, lr}
8780038c:	00315243 	eorseq	r5, r1, r3, asr #4
87800390:	32524349 	subscc	r4, r2, #603979777	@ 0x24000001
87800394:	6e697500 	cdpvs	5, 6, cr7, cr9, cr0, {0}
87800398:	5f323374 	svcpl	0x00323374
8780039c:	675f0074 			@ <UNDEFINED> instruction: 0x675f0074
878003a0:	00637465 	rsbeq	r7, r3, r5, ror #8
878003a4:	5f44454c 	svcpl	0x0044454c
878003a8:	74696e49 	strbtvc	r6, [r9], #-3657	@ 0xfffff1b7
878003ac:	6f6c4300 	svcvs	0x006c4300
878003b0:	455f6b63 	ldrbmi	r6, [pc, #-2915]	@ 877ff855 <shift+0x877ff855>
878003b4:	6c62616e 	stclvs	1, cr6, [r2], #-440	@ 0xfffffe48
878003b8:	6c6c4165 	stclvs	1, cr4, [ip], #-404	@ 0xfffffe6c
878003bc:	52474343 	subpl	r4, r7, #201326593	@ 0xc000001
878003c0:	43434700 	cmpmi	r3, #0, 14
878003c4:	4728203a 			@ <UNDEFINED> instruction: 0x4728203a
878003c8:	2029554e 	eorcs	r5, r9, lr, asr #10
878003cc:	322e3431 	eorcc	r3, lr, #822083584	@ 0x31000000
878003d0:	3220312e 	eorcc	r3, r0, #-2147483637	@ 0x8000000b
878003d4:	30353230 	eorscc	r3, r5, r0, lsr r2
878003d8:	00373032 	eorseq	r3, r7, r2, lsr r0
878003dc:	00000021 	andeq	r0, r0, r1, lsr #32
878003e0:	04010005 	streq	r0, [r1], #-5
878003e4:	87800401 	strhi	r0, [r0, r1, lsl #8]
878003e8:	80013801 	andhi	r3, r1, r1, lsl #16
878003ec:	80000087 	andhi	r0, r0, r7, lsl #1
878003f0:	f702b887 			@ <UNDEFINED> instruction: 0xf702b887
878003f4:	d5878001 	strle	r8, [r7, #1]
878003f8:	03878001 	orreq	r8, r7, #1
878003fc:	01878002 	orreq	r8, r7, r2
87800400:	00110180 	andseq	r0, r1, r0, lsl #3
87800404:	01111710 	tsteq	r1, r0, lsl r7
87800408:	0e030f12 	mcreq	15, 0, r0, cr3, cr2, {0}
8780040c:	0e250e1b 	mcreq	14, 1, r0, cr5, cr11, {0}
87800410:	00000513 	andeq	r0, r0, r3, lsl r5
87800414:	00000000 	andeq	r0, r0, r0
87800418:	0000001c 	andeq	r0, r0, ip, lsl r0
8780041c:	03dc0002 	bicseq	r0, ip, #2
87800420:	00048780 	andeq	r8, r4, r0, lsl #15
87800424:	00000000 	andeq	r0, r0, r0
87800428:	87800000 	strhi	r0, [r0, r0]
8780042c:	00000138 	andeq	r0, r0, r8, lsr r1
	...
87800438:	00001a41 	andeq	r1, r0, r1, asr #20
8780043c:	61656100 	cmnvs	r5, r0, lsl #2
87800440:	01006962 	tsteq	r0, r2, ror #18
87800444:	00000010 	andeq	r0, r0, r0, lsl r0
87800448:	06003605 	streq	r3, [r0], -r5, lsl #12
8780044c:	09010806 	stmdbeq	r1, {r1, r2, fp}
87800450:	00020a01 	andeq	r0, r2, r1, lsl #20

87800454 <main>:
87800454:	e92d4800 	push	{fp, lr}
87800458:	e28db004 	add	fp, sp, #4
8780045c:	e24dd008 	sub	sp, sp, #8
87800460:	e3a03000 	mov	r3, #0
87800464:	e54b3005 	strb	r3, [fp, #-5]
87800468:	eb000608 	bl	87801c90 <Int_Init>
8780046c:	eb00035d 	bl	878011e8 <Clock_EnableAllCCGR>
87800470:	eb000311 	bl	878010bc <Beep_Init>
87800474:	eb000727 	bl	87802118 <LED_Init>
87800478:	eb0006ab 	bl	87801f2c <Key_Init>
8780047c:	eb0006db 	bl	87801ff0 <GPIO1_IO18_Int_Init>
87800480:	e3a00ff9 	mov	r0, #996	@ 0x3e4
87800484:	eb0003c2 	bl	87801394 <ARM_PLL_Init>
87800488:	eb0003f5 	bl	87801464 <System_PLL_Init>
8780048c:	eb00040c 	bl	878014c4 <USB1_PLL_Init>
87800490:	eb000475 	bl	8780166c <CommonSystemClock_Init>
87800494:	eb00076a 	bl	87802244 <UART1_Init>
87800498:	e59f10e0 	ldr	r1, [pc, #224]	@ 87800580 <main+0x12c>
8780049c:	e3a00000 	mov	r0, #0
878004a0:	eb000478 	bl	87801688 <EPIT1_Init>
878004a4:	e59f10d4 	ldr	r1, [pc, #212]	@ 87800580 <main+0x12c>
878004a8:	e3a00000 	mov	r0, #0
878004ac:	eb000515 	bl	87801908 <EPIT2_Init>
878004b0:	e59f30cc 	ldr	r3, [pc, #204]	@ 87800584 <main+0x130>
878004b4:	e5933010 	ldr	r3, [r3, #16]
878004b8:	e2033030 	and	r3, r3, #48	@ 0x30
878004bc:	e3530030 	cmp	r3, #48	@ 0x30
878004c0:	1a000004 	bne	878004d8 <main+0x84>
878004c4:	e59f30bc 	ldr	r3, [pc, #188]	@ 87800588 <main+0x134>
878004c8:	e08f3003 	add	r3, pc, r3
878004cc:	e1a00003 	mov	r0, r3
878004d0:	eb000809 	bl	878024fc <_puts>
878004d4:	ea000008 	b	878004fc <main+0xa8>
878004d8:	e59f30a4 	ldr	r3, [pc, #164]	@ 87800584 <main+0x130>
878004dc:	e5933010 	ldr	r3, [r3, #16]
878004e0:	e2033030 	and	r3, r3, #48	@ 0x30
878004e4:	e3530000 	cmp	r3, #0
878004e8:	1a000003 	bne	878004fc <main+0xa8>
878004ec:	e59f3098 	ldr	r3, [pc, #152]	@ 8780058c <main+0x138>
878004f0:	e08f3003 	add	r3, pc, r3
878004f4:	e1a00003 	mov	r0, r3
878004f8:	eb0007ff 	bl	878024fc <_puts>
878004fc:	e59f308c 	ldr	r3, [pc, #140]	@ 87800590 <main+0x13c>
87800500:	e08f3003 	add	r3, pc, r3
87800504:	e1a00003 	mov	r0, r3
87800508:	eb0007fb 	bl	878024fc <_puts>
8780050c:	eb00080e 	bl	8780254c <_getc>
87800510:	e1a03000 	mov	r3, r0
87800514:	e54b3005 	strb	r3, [fp, #-5]
87800518:	e55b3005 	ldrb	r3, [fp, #-5]
8780051c:	e1a00003 	mov	r0, r3
87800520:	eb0007e2 	bl	878024b0 <_putc>
87800524:	e59f3068 	ldr	r3, [pc, #104]	@ 87800594 <main+0x140>
87800528:	e08f3003 	add	r3, pc, r3
8780052c:	e1a00003 	mov	r0, r3
87800530:	eb0007f1 	bl	878024fc <_puts>
87800534:	e59f305c 	ldr	r3, [pc, #92]	@ 87800598 <main+0x144>
87800538:	e08f3003 	add	r3, pc, r3
8780053c:	e1a00003 	mov	r0, r3
87800540:	eb0007ed 	bl	878024fc <_puts>
87800544:	e55b3005 	ldrb	r3, [fp, #-5]
87800548:	e1a00003 	mov	r0, r3
8780054c:	eb0007d7 	bl	878024b0 <_putc>
87800550:	e55b3005 	ldrb	r3, [fp, #-5]
87800554:	e1a01003 	mov	r1, r3
87800558:	e59f303c 	ldr	r3, [pc, #60]	@ 8780059c <main+0x148>
8780055c:	e08f3003 	add	r3, pc, r3
87800560:	e1a00003 	mov	r0, r3
87800564:	eb000860 	bl	878026ec <sprintf>
87800568:	e59f3030 	ldr	r3, [pc, #48]	@ 878005a0 <main+0x14c>
8780056c:	e08f3003 	add	r3, pc, r3
87800570:	e1a00003 	mov	r0, r3
87800574:	eb0007e0 	bl	878024fc <_puts>
87800578:	e1a00000 	nop			@ (mov r0, r0)
8780057c:	eaffffde 	b	878004fc <main+0xa8>
87800580:	01f78a40 	mvnseq	r8, r0, asr #20
87800584:	0209c000 	andeq	ip, r9, #0
87800588:	000000d4 	ldrdeq	r0, [r0], -r4
8780058c:	000000c4 	andeq	r0, r0, r4, asr #1
87800590:	000000c8 	andeq	r0, r0, r8, asr #1
87800594:	000000b0 	strheq	r0, [r0], -r0	@ <UNPREDICTABLE>
87800598:	000000a4 	andeq	r0, r0, r4, lsr #1
8780059c:	00000090 	muleq	r0, r0, r0
878005a0:	0000006c 	andeq	r0, r0, ip, rrx
878005a4:	46206e49 	strtmi	r6, [r0], -r9, asr #28
878005a8:	696c6c61 	stmdbvs	ip!, {r0, r5, r6, sl, fp, sp, lr}^
878005ac:	4520676e 	strmi	r6, [r0, #-1902]!	@ 0xfffff892
878005b0:	20656764 	rsbcs	r6, r5, r4, ror #14
878005b4:	65646f4d 	strbvs	r6, [r4, #-3917]!	@ 0xfffff0b3
878005b8:	00000a0d 	andeq	r0, r0, sp, lsl #20
878005bc:	4c206e49 	stcmi	14, cr6, [r0], #-292	@ 0xfffffedc
878005c0:	4c20776f 	stcmi	7, cr7, [r0], #-444	@ 0xfffffe44
878005c4:	6c657665 	stclvs	6, cr7, [r5], #-404	@ 0xfffffe6c
878005c8:	646f4d20 	strbtvs	r4, [pc], #-3360	@ 878005d0 <main+0x17c>
878005cc:	000a0d65 	andeq	r0, sl, r5, ror #26
878005d0:	75706e49 	ldrbvc	r6, [r0, #-3657]!	@ 0xfffff1b7
878005d4:	20612074 	rsbcs	r2, r1, r4, ror r0
878005d8:	72616863 	rsbvc	r6, r1, #6488064	@ 0x630000
878005dc:	0000203a 	andeq	r2, r0, sl, lsr r0
878005e0:	00000a0d 	andeq	r0, r0, sp, lsl #20
878005e4:	72756f59 	rsbsvc	r6, r5, #356	@ 0x164
878005e8:	706e6920 	rsbvc	r6, lr, r0, lsr #18
878005ec:	69207475 	stmdbvs	r0!, {r0, r2, r4, r5, r6, sl, ip, sp, lr}
878005f0:	00002073 	andeq	r2, r0, r3, ror r0
878005f4:	63736120 	cmnvs	r3, #32, 2
878005f8:	69206969 	stmdbvs	r0!, {r0, r3, r5, r6, r8, fp, sp, lr}
878005fc:	64252073 	strtvs	r2, [r5], #-115	@ 0xffffff8d
87800600:	00021300 	andeq	r1, r2, r0, lsl #6
87800604:	01000500 	tsteq	r0, r0, lsl #10
87800608:	80081804 	andhi	r1, r8, r4, lsl #16
8780060c:	02370c87 	eorseq	r0, r7, #34560	@ 0x8700
87800610:	761d8780 	ldrvc	r8, [sp], -r0, lsl #15
87800614:	d5878003 	strle	r8, [r7, #3]
87800618:	54878001 	strpl	r8, [r7], #1
8780061c:	50878004 	addpl	r8, r7, r4
87800620:	59000001 	stmdbpl	r0, {r0}
87800624:	01878009 	orreq	r8, r7, r9
87800628:	02c10601 	sbceq	r0, r1, #1048576	@ 0x100000
8780062c:	02018780 	andeq	r8, r1, #128, 14	@ 0x2000000
87800630:	80038105 	andhi	r8, r3, r5, lsl #2
87800634:	05040d87 	streq	r0, [r4, #-3463]	@ 0xfffff279
87800638:	00746e69 	rsbseq	r6, r4, r9, ror #28
8780063c:	68050801 	stmdavs	r5, {r0, fp}
87800640:	09878003 	stmibeq	r7, {r0, r1, pc}
87800644:	87800345 	strhi	r0, [r0, r5, asr #6]
87800648:	004d1722 	subeq	r1, sp, r2, lsr #14
8780064c:	01010000 	mrseq	r0, (UNDEF: 1)
87800650:	8002bf08 	andhi	fp, r2, r8, lsl #30
87800654:	07020187 	streq	r0, [r2, -r7, lsl #3]
87800658:	878002cd 	strhi	r0, [r0, sp, asr #5]
8780065c:	80039509 	andhi	r9, r3, r9, lsl #10
87800660:	70162487 	andsvc	r2, r6, r7, lsl #9
87800664:	0e000000 	cdpeq	0, 0, cr0, cr0, cr0, {0}
87800668:	0000005b 	andeq	r0, r0, fp, asr r0
8780066c:	0000660a 	andeq	r6, r0, sl, lsl #12
87800670:	07040100 	streq	r0, [r4, -r0, lsl #2]
87800674:	878002a4 	strhi	r0, [r0, r4, lsr #5]
87800678:	9a070801 	bls	879c2684 <__bss_end+0x1bf640>
8780067c:	0f878002 	svceq	0x00878002
87800680:	02dc0220 	sbcseq	r0, ip, #32, 4
87800684:	0000e809 	andeq	lr, r0, r9, lsl #16
87800688:	52440700 	subpl	r0, r4, #0, 14
8780068c:	6602dd00 	strvs	sp, [r2], -r0, lsl #26
87800690:	00000000 	andeq	r0, r0, r0
87800694:	80029508 	andhi	r9, r2, r8, lsl #10
87800698:	6602de87 	strvs	sp, [r2], -r7, lsl #29
8780069c:	04000000 	streq	r0, [r0], #-0
878006a0:	52535007 	subspl	r5, r3, #7
878006a4:	6b02df00 	blvs	878b82ac <__bss_end+0xb5268>
878006a8:	08000000 	stmdaeq	r0, {}	@ <UNPREDICTABLE>
878006ac:	80038b08 	andhi	r8, r3, r8, lsl #22
878006b0:	6602e087 	strvs	lr, [r2], -r7, lsl #1
878006b4:	0c000000 	stceq	0, cr0, [r0], {-0}
878006b8:	80039008 	andhi	r9, r3, r8
878006bc:	6602e187 	strvs	lr, [r2], -r7, lsl #3
878006c0:	10000000 	andne	r0, r0, r0
878006c4:	524d4907 	subpl	r4, sp, #114688	@ 0x1c000
878006c8:	6602e200 	strvs	lr, [r2], -r0, lsl #4
878006cc:	14000000 	strne	r0, [r0], #-0
878006d0:	52534907 	subspl	r4, r3, #114688	@ 0x1c000
878006d4:	6602e300 	strvs	lr, [r2], -r0, lsl #6
878006d8:	18000000 	stmdane	r0, {}	@ <UNPREDICTABLE>
878006dc:	80022308 	andhi	r2, r2, r8, lsl #6
878006e0:	6602e487 	strvs	lr, [r2], -r7, lsl #9
878006e4:	1c000000 	stcne	0, cr0, [r0], {-0}
878006e8:	032e1000 			@ <UNDEFINED> instruction: 0x032e1000
878006ec:	e5028780 	str	r8, [r2, #-1920]	@ 0xfffff880
878006f0:	007e0302 	rsbseq	r0, lr, r2, lsl #6
878006f4:	01010000 	mrseq	r0, (UNDEF: 1)
878006f8:	8002c808 	andhi	ip, r2, r8, lsl #16
878006fc:	00f50a87 	rscseq	r0, r5, r7, lsl #21
87800700:	4d040000 	stcmi	0, cr0, [r4, #-0]
87800704:	03878003 	orreq	r8, r7, #3
87800708:	00011318 	andeq	r1, r1, r8, lsl r3
8780070c:	01130200 	tsteq	r3, r0, lsl #4
87800710:	00030000 	andeq	r0, r3, r0
87800714:	0000fc0b 	andeq	pc, r0, fp, lsl #24
87800718:	02e00400 	rsceq	r0, r0, #0, 8
8780071c:	10048780 	andne	r8, r4, r0, lsl #15
87800720:	00000129 	andeq	r0, r0, r9, lsr #2
87800724:	00004202 	andeq	r4, r0, r2, lsl #4
87800728:	9e110000 	cdpls	0, 1, cr0, cr1, cr0, {0}
8780072c:	04878003 	streq	r8, [r7], #3
87800730:	00420914 	subeq	r0, r2, r4, lsl r9
87800734:	013b0000 	teqeq	fp, r0
87800738:	00030000 	andeq	r0, r3, r0
8780073c:	8002f604 	andhi	pc, r2, r4, lsl #12
87800740:	4c120487 	ldcmi	4, cr0, [r2], {135}	@ 0x87
87800744:	02000001 	andeq	r0, r0, #1
87800748:	0000014c 	andeq	r0, r0, ip, asr #2
8780074c:	00420b00 	subeq	r0, r2, r0, lsl #22
87800750:	e6040000 	str	r0, [r4], -r0
87800754:	05878002 	streq	r8, [r7, #2]
87800758:	0001670b 	andeq	r6, r1, fp, lsl #14
8780075c:	005b0200 	subseq	r0, fp, r0, lsl #4
87800760:	5b020000 	blpl	87880768 <__bss_end+0x7d724>
87800764:	00000000 	andeq	r0, r0, r0
87800768:	80022c04 	andhi	r2, r2, r4, lsl #24
8780076c:	7d060587 	stcvc	5, cr0, [r6, #-540]	@ 0xfffffde4
87800770:	02000001 	andeq	r0, r0, #1
87800774:	0000005b 	andeq	r0, r0, fp, asr r0
87800778:	00005b02 	andeq	r5, r0, r2, lsl #22
8780077c:	fc050000 	stc2	0, cr0, [r5], {-0}
87800780:	04878002 	streq	r8, [r7], #2
87800784:	00018a06 	andeq	r8, r1, r6, lsl #20
87800788:	05000300 	streq	r0, [r0, #-768]	@ 0xfffffd00
8780078c:	87800317 	usada8hi	r0, r7, r3, r0
87800790:	01971506 	orrseq	r1, r7, r6, lsl #10
87800794:	00030000 	andeq	r0, r3, r0
87800798:	8002b105 	andhi	fp, r2, r5, lsl #2
8780079c:	a4130687 	ldrge	r0, [r3], #-1671	@ 0xfffff979
878007a0:	03000001 	tsteq	r0, #1
878007a4:	03070500 	tsteq	r7, #0, 10
878007a8:	12068780 	andne	r8, r6, #128, 14	@ 0x2000000
878007ac:	000001b1 			@ <UNDEFINED> instruction: 0x000001b1
878007b0:	38040003 	stmdacc	r4, {r0, r1}
878007b4:	06878003 	streq	r8, [r7], r3
878007b8:	0001c211 	andeq	ip, r1, r1, lsl r2
878007bc:	005b0200 	subseq	r0, fp, r0, lsl #4
878007c0:	05000000 	streq	r0, [r0, #-0]
878007c4:	8780020f 	strhi	r0, [r0, pc, lsl #4]
878007c8:	01cf1207 	biceq	r1, pc, r7, lsl #4
878007cc:	00030000 	andeq	r0, r3, r0
878007d0:	80035506 	andhi	r5, r3, r6, lsl #10
878007d4:	060e0787 	streq	r0, [lr], -r7, lsl #15
878007d8:	878003a4 	strhi	r0, [r0, r4, lsr #7]
878007dc:	5e060608 	cdppl	6, 0, cr0, cr6, cr8, {0}
878007e0:	09878003 	stmibeq	r7, {r0, r1, pc}
878007e4:	03ad0606 			@ <UNDEFINED> instruction: 0x03ad0606
878007e8:	0c068780 	stceq	7, cr8, [r6], {128}	@ 0x80
878007ec:	80021a06 	andhi	r1, r2, r6, lsl #20
878007f0:	120d0a87 	andne	r0, sp, #552960	@ 0x87000
878007f4:	878002f1 			@ <UNDEFINED> instruction: 0x878002f1
878007f8:	34050b01 	strcc	r0, [r5], #-2817	@ 0xfffff4ff
878007fc:	54000000 	strpl	r0, [r0], #-0
87800800:	50878004 	addpl	r8, r7, r4
87800804:	01000001 	tsteq	r0, r1
87800808:	0063139c 			@ <UNDEFINED> instruction: 0x0063139c
8780080c:	420d0d01 	andmi	r0, sp, #1, 26	@ 0x40
87800810:	02000000 	andeq	r0, r0, #0
87800814:	00007791 	muleq	r0, r1, r7
87800818:	0b002401 	bleq	87809824 <__bss_end+0x67e0>
8780081c:	030b3e0b 	tsteq	fp, #11, 28	@ 0xb0
87800820:	0200000e 	andeq	r0, r0, #14
87800824:	13490005 	cmpne	r9, #5
87800828:	18030000 	stmdane	r3, {}	@ <UNPREDICTABLE>
8780082c:	04000000 	streq	r0, [r0], #-0
87800830:	193f012e 	ldmdbne	pc!, {r1, r2, r3, r5, r8}	@ <UNPREDICTABLE>
87800834:	0b3a0e03 	bleq	88684048 <__bss_end+0xe81004>
87800838:	21390b3b 	teqcs	r9, fp, lsr fp
8780083c:	3c192706 	ldccc	7, cr2, [r9], {6}
87800840:	00130119 	andseq	r0, r3, r9, lsl r1
87800844:	012e0500 			@ <UNDEFINED> instruction: 0x012e0500
87800848:	0e03193f 			@ <UNDEFINED> instruction: 0x0e03193f
8780084c:	0b3b0b3a 	bleq	886c353c <__bss_end+0xec04f8>
87800850:	3c062139 	stccc	1, cr2, [r6], {57}	@ 0x39
87800854:	00130119 	andseq	r0, r3, r9, lsl r1
87800858:	002e0600 	eoreq	r0, lr, r0, lsl #12
8780085c:	0e03193f 			@ <UNDEFINED> instruction: 0x0e03193f
87800860:	0b3b0b3a 	bleq	886c3550 <__bss_end+0xec050c>
87800864:	27062139 	smladxcs	r6, r9, r1, r2
87800868:	00193c19 	andseq	r3, r9, r9, lsl ip
8780086c:	000d0700 	andeq	r0, sp, r0, lsl #14
87800870:	213a0803 	teqcs	sl, r3, lsl #16
87800874:	39053b02 	stmdbcc	r5, {r1, r8, r9, fp, ip, sp}
87800878:	13491121 	cmpne	r9, #1073741832	@ 0x40000008
8780087c:	00000b38 	andeq	r0, r0, r8, lsr fp
87800880:	03000d08 	tsteq	r0, #8, 26	@ 0x200
87800884:	02213a0e 	eoreq	r3, r1, #57344	@ 0xe000
87800888:	2139053b 	teqcs	r9, fp, lsr r5
8780088c:	38134911 	ldmdacc	r3, {r0, r4, r8, fp, lr}
87800890:	0900000b 	stmdbeq	r0, {r0, r1, r3}
87800894:	0e030016 	mcreq	0, 0, r0, cr3, cr6, {0}
87800898:	3b02213a 	blcc	87888d88 <__bss_end+0x85d44>
8780089c:	490b390b 	stmdbmi	fp, {r0, r1, r3, r8, fp, ip, sp}
878008a0:	0a000013 	beq	878008f4 <main+0x4a0>
878008a4:	13490026 	cmpne	r9, #38	@ 0x26
878008a8:	0f0b0000 	svceq	0x000b0000
878008ac:	04210b00 	strteq	r0, [r1], #-2816	@ 0xfffff500
878008b0:	00001349 	andeq	r1, r0, r9, asr #6
878008b4:	2501110c 	strcs	r1, [r1, #-268]	@ 0xfffffef4
878008b8:	030b130e 	tsteq	fp, #939524096	@ 0x38000000
878008bc:	110e1b0e 	tstne	lr, lr, lsl #22
878008c0:	10061201 	andne	r1, r6, r1, lsl #4
878008c4:	0d000017 	stceq	0, cr0, [r0, #-92]	@ 0xffffffa4
878008c8:	0b0b0024 	bleq	87ac0960 <__bss_end+0x2bd91c>
878008cc:	08030b3e 	stmdaeq	r3, {r1, r2, r3, r4, r5, r8, r9, fp}
878008d0:	350e0000 	strcc	r0, [lr, #-0]
878008d4:	00134900 	andseq	r4, r3, r0, lsl #18
878008d8:	01130f00 	tsteq	r3, r0, lsl #30
878008dc:	0b3a0b0b 	bleq	88683510 <__bss_end+0xe804cc>
878008e0:	0b39053b 	bleq	88641dd4 <__bss_end+0xe3ed90>
878008e4:	00001301 	andeq	r1, r0, r1, lsl #6
878008e8:	03001610 	tsteq	r0, #16, 12	@ 0x1000000
878008ec:	3b0b3a0e 	blcc	87acf12c <__bss_end+0x2cc0e8>
878008f0:	490b3905 	stmdbmi	fp, {r0, r2, r8, fp, ip, sp}
878008f4:	11000013 	tstne	r0, r3, lsl r0
878008f8:	193f012e 	ldmdbne	pc!, {r1, r2, r3, r5, r8}	@ <UNPREDICTABLE>
878008fc:	0b3a0e03 	bleq	88684110 <__bss_end+0xe810cc>
87800900:	0b390b3b 	bleq	886435f4 <__bss_end+0xe405b0>
87800904:	193c1349 	ldmdbne	ip!, {r0, r3, r6, r8, r9, ip}
87800908:	00001301 	andeq	r1, r0, r1, lsl #6
8780090c:	3f012e12 	svccc	0x00012e12
87800910:	3a0e0319 	bcc	87b8157c <__bss_end+0x37e538>
87800914:	390b3b0b 	stmdbcc	fp, {r0, r1, r3, r8, r9, fp, ip, sp}
87800918:	4919270b 	ldmdbmi	r9, {r0, r1, r3, r8, r9, sl, sp}
8780091c:	12011113 	andne	r1, r1, #-1073741820	@ 0xc0000004
87800920:	7c184006 	ldcvc	0, cr4, [r8], {6}
87800924:	13000019 	tstne	r0, #25
87800928:	08030034 	stmdaeq	r3, {r2, r4, r5}
8780092c:	0b3b0b3a 	bleq	886c361c <__bss_end+0xec05d8>
87800930:	13490b39 	cmpne	r9, #58368	@ 0xe400
87800934:	00001802 	andeq	r1, r0, r2, lsl #16
87800938:	00001c00 	andeq	r1, r0, r0, lsl #24
8780093c:	01000200 	mrseq	r0, R8_usr
87800940:	04878006 	streq	r8, [r7], #6
87800944:	00000000 	andeq	r0, r0, r0
87800948:	80045400 	andhi	r5, r4, r0, lsl #8
8780094c:	00015087 	andeq	r5, r1, r7, lsl #1
	...
87800958:	00011000 	andeq	r1, r1, r0
8780095c:	bc000300 	stclt	3, cr0, [r0], {-0}
87800960:	02000000 	andeq	r0, r0, #0
87800964:	0d0efb01 	vstreq	d15, [lr, #-4]
87800968:	01010100 	mrseq	r0, (UNDEF: 17)
8780096c:	00000001 	andeq	r0, r0, r1
87800970:	01000001 	tsteq	r0, r1
87800974:	00637273 	rsbeq	r7, r3, r3, ror r2
87800978:	0062696c 	rsbeq	r6, r2, ip, ror #18
8780097c:	2f707362 	svccs	0x00707362
87800980:	74726175 	ldrbtvc	r6, [r2], #-373	@ 0xfffffe8b
87800984:	70736200 	rsbsvc	r6, r3, r0, lsl #4
87800988:	6970652f 	ldmdbvs	r0!, {r0, r1, r2, r3, r5, r8, sl, sp, lr}^
8780098c:	73620074 	cmnvc	r2, #116	@ 0x74
87800990:	6c632f70 	stclvs	15, cr2, [r3], #-448	@ 0xfffffe40
87800994:	006b636f 	rsbeq	r6, fp, pc, ror #6
87800998:	2f707362 	svccs	0x00707362
8780099c:	0079656b 	rsbseq	r6, r9, fp, ror #10
878009a0:	2f707362 	svccs	0x00707362
878009a4:	0064656c 	rsbeq	r6, r4, ip, ror #10
878009a8:	2f707362 	svccs	0x00707362
878009ac:	70656562 	rsbvc	r6, r5, r2, ror #10
878009b0:	70736200 	rsbsvc	r6, r3, r0, lsl #4
878009b4:	746e692f 	strbtvc	r6, [lr], #-2351	@ 0xfffff6d1
878009b8:	616d0000 	cmnvs	sp, r0
878009bc:	632e6e69 			@ <UNDEFINED> instruction: 0x632e6e69
878009c0:	00000100 	andeq	r0, r0, r0, lsl #2
878009c4:	65707974 	ldrbvs	r7, [r0, #-2420]!	@ 0xfffff68c
878009c8:	0200682e 	andeq	r6, r0, #3014656	@ 0x2e0000
878009cc:	61750000 	cmnvs	r5, r0
878009d0:	6f697472 	svcvs	0x00697472
878009d4:	0300682e 	tsteq	r0, #3014656	@ 0x2e0000
878009d8:	61750000 	cmnvs	r5, r0
878009dc:	682e7472 	stmdavs	lr!, {r1, r4, r5, r6, sl, ip, sp, lr}
878009e0:	00000300 	andeq	r0, r0, r0, lsl #6
878009e4:	74697065 	strbtvc	r7, [r9], #-101	@ 0xffffff9b
878009e8:	0400682e 	streq	r6, [r0], #-2094	@ 0xfffff7d2
878009ec:	6c630000 	stclvs	0, cr0, [r3], #-0
878009f0:	2e6b636f 	cdpcs	3, 6, cr6, cr11, cr15, {3}
878009f4:	00050068 	andeq	r0, r5, r8, rrx
878009f8:	79656b00 	stmdbvc	r5!, {r8, r9, fp, sp, lr}^
878009fc:	0600682e 	streq	r6, [r0], -lr, lsr #16
87800a00:	656c0000 	strbvs	r0, [ip, #-0]!
87800a04:	00682e64 	rsbeq	r2, r8, r4, ror #28
87800a08:	62000007 	andvs	r0, r0, #7
87800a0c:	2e706565 	cdpcs	5, 7, cr6, cr0, cr5, {3}
87800a10:	00080068 	andeq	r0, r8, r8, rrx
87800a14:	746e6900 	strbtvc	r6, [lr], #-2304	@ 0xfffff700
87800a18:	0900682e 	stmdbeq	r0, {r1, r2, r3, r5, fp, sp, lr}
87800a1c:	05000000 	streq	r0, [r0, #-0]
87800a20:	02050001 	andeq	r0, r5, #1
87800a24:	87800454 			@ <UNDEFINED> instruction: 0x87800454
87800a28:	05010b03 	streq	r0, [r1, #-2819]	@ 0xfffff4fd
87800a2c:	0505670d 	streq	r6, [r5, #-1805]	@ 0xfffff8f3
87800a30:	2f2f2f4b 	svccs	0x002f2f4b
87800a34:	4b2f2f2f 	blmi	883cc6f8 <__bss_end+0xbc96b4>
87800a38:	2f2f2f2f 	svccs	0x002f2f2f
87800a3c:	670f0567 	strvs	r0, [pc, -r7, ror #10]
87800a40:	054a2505 	strbeq	r2, [sl, #-1285]	@ 0xfffffafb
87800a44:	09052e07 	stmdbeq	r5, {r0, r1, r2, r9, sl, fp, sp}
87800a48:	a015054b 	andsge	r0, r5, fp, asr #10
87800a4c:	054a2b05 	strbeq	r2, [sl, #-2821]	@ 0xfffff4fb
87800a50:	09052e0d 	stmdbeq	r5, {r0, r2, r3, r9, sl, fp, sp}
87800a54:	0d05864c 	stceq	6, cr8, [r5, #-304]	@ 0xfffffed0
87800a58:	67090583 	strvs	r0, [r9, -r3, lsl #11]
87800a5c:	67838367 	strvs	r8, [r3, r7, ror #6]
87800a60:	01040200 	mrseq	r0, R12_usr
87800a64:	827903bb 	rsbshi	r0, r9, #-335544318	@ 0xec000002
87800a68:	01001602 	tsteq	r0, r2, lsl #12
87800a6c:	00000001 	andeq	r0, r0, r1
87800a70:	0000000c 	andeq	r0, r0, ip
87800a74:	ffffffff 			@ <UNDEFINED> instruction: 0xffffffff
87800a78:	7c020001 	stcvc	0, cr0, [r2], {1}
87800a7c:	000d0c0e 	andeq	r0, sp, lr, lsl #24
87800a80:	00000018 	andeq	r0, r0, r8, lsl r0
87800a84:	87800a70 			@ <UNDEFINED> instruction: 0x87800a70
87800a88:	87800454 			@ <UNDEFINED> instruction: 0x87800454
87800a8c:	00000150 	andeq	r0, r0, r0, asr r1
87800a90:	8b080e42 	blhi	87a043a0 <__bss_end+0x20135c>
87800a94:	42018e02 	andmi	r8, r1, #2, 28
87800a98:	00040b0c 	andeq	r0, r4, ip, lsl #22
87800a9c:	00002e41 	andeq	r2, r0, r1, asr #28
87800aa0:	61656100 	cmnvs	r5, r0, lsl #2
87800aa4:	01006962 	tsteq	r0, r2, ror #18
87800aa8:	00000024 	andeq	r0, r0, r4, lsr #32
87800aac:	06003605 	streq	r3, [r0], -r5, lsl #12
87800ab0:	09010806 	stmdbeq	r1, {r1, r2, fp}
87800ab4:	12020a01 	andne	r0, r2, #4096	@ 0x1000
87800ab8:	15011404 	strne	r1, [r1, #-1028]	@ 0xfffffbfc
87800abc:	18031701 	stmdane	r3, {r0, r8, r9, sl, ip}
87800ac0:	1a011901 	bne	87846ecc <__bss_end+0x43e88>
87800ac4:	1e011c02 	cdpne	12, 0, cr1, cr1, cr2, {0}
87800ac8:	00012206 	andeq	r2, r1, r6, lsl #4

87800acc <GPIO_Init>:
87800acc:	e92d4800 	push	{fp, lr}
87800ad0:	e28db004 	add	fp, sp, #4
87800ad4:	e24dd018 	sub	sp, sp, #24
87800ad8:	e24bc018 	sub	ip, fp, #24
87800adc:	e88c0007 	stm	ip, {r0, r1, r2}
87800ae0:	e50b301c 	str	r3, [fp, #-28]	@ 0xffffffe4
87800ae4:	e51b3018 	ldr	r3, [fp, #-24]	@ 0xffffffe8
87800ae8:	e3530001 	cmp	r3, #1
87800aec:	1a00000d 	bne	87800b28 <GPIO_Init+0x5c>
87800af0:	e51b301c 	ldr	r3, [fp, #-28]	@ 0xffffffe4
87800af4:	e5933004 	ldr	r3, [r3, #4]
87800af8:	e3a01001 	mov	r1, #1
87800afc:	e59b2004 	ldr	r2, [fp, #4]
87800b00:	e1a02211 	lsl	r2, r1, r2
87800b04:	e1832002 	orr	r2, r3, r2
87800b08:	e51b301c 	ldr	r3, [fp, #-28]	@ 0xffffffe4
87800b0c:	e5832004 	str	r2, [r3, #4]
87800b10:	e55b3014 	ldrb	r3, [fp, #-20]	@ 0xffffffec
87800b14:	e1a02003 	mov	r2, r3
87800b18:	e59b1004 	ldr	r1, [fp, #4]
87800b1c:	e51b001c 	ldr	r0, [fp, #-28]	@ 0xffffffe4
87800b20:	eb0000da 	bl	87800e90 <GPIO_Pin_Write>
87800b24:	ea000008 	b	87800b4c <GPIO_Init+0x80>
87800b28:	e51b301c 	ldr	r3, [fp, #-28]	@ 0xffffffe4
87800b2c:	e5933004 	ldr	r3, [r3, #4]
87800b30:	e3a01001 	mov	r1, #1
87800b34:	e59b2004 	ldr	r2, [fp, #4]
87800b38:	e1a02211 	lsl	r2, r1, r2
87800b3c:	e1e02002 	mvn	r2, r2
87800b40:	e0022003 	and	r2, r2, r3
87800b44:	e51b301c 	ldr	r3, [fp, #-28]	@ 0xffffffe4
87800b48:	e5832004 	str	r2, [r3, #4]
87800b4c:	e59b3004 	ldr	r3, [fp, #4]
87800b50:	e353000f 	cmp	r3, #15
87800b54:	9a000002 	bls	87800b64 <GPIO_Init+0x98>
87800b58:	e59b3004 	ldr	r3, [fp, #4]
87800b5c:	e2433010 	sub	r3, r3, #16
87800b60:	ea000000 	b	87800b68 <GPIO_Init+0x9c>
87800b64:	e59b3004 	ldr	r3, [fp, #4]
87800b68:	e50b3008 	str	r3, [fp, #-8]
87800b6c:	e59b3004 	ldr	r3, [fp, #4]
87800b70:	e353000f 	cmp	r3, #15
87800b74:	8a00005c 	bhi	87800cec <GPIO_Init+0x220>
87800b78:	e51b3010 	ldr	r3, [fp, #-16]
87800b7c:	e2433001 	sub	r3, r3, #1
87800b80:	e59f22fc 	ldr	r2, [pc, #764]	@ 87800e84 <GPIO_Init+0x3b8>
87800b84:	e08f2002 	add	r2, pc, r2
87800b88:	e3530004 	cmp	r3, #4
87800b8c:	8a0000b3 	bhi	87800e60 <GPIO_Init+0x394>
87800b90:	e7923103 	ldr	r3, [r2, r3, lsl #2]
87800b94:	e08ff003 	add	pc, pc, r3
87800b98:	e1a00000 	nop			@ (mov r0, r0)
87800b9c:	e51b301c 	ldr	r3, [fp, #-28]	@ 0xffffffe4
87800ba0:	e593300c 	ldr	r3, [r3, #12]
87800ba4:	e51b2008 	ldr	r2, [fp, #-8]
87800ba8:	e1a02082 	lsl	r2, r2, #1
87800bac:	e3a01003 	mov	r1, #3
87800bb0:	e1a02211 	lsl	r2, r1, r2
87800bb4:	e1e02002 	mvn	r2, r2
87800bb8:	e0022003 	and	r2, r2, r3
87800bbc:	e51b301c 	ldr	r3, [fp, #-28]	@ 0xffffffe4
87800bc0:	e583200c 	str	r2, [r3, #12]
87800bc4:	e51b301c 	ldr	r3, [fp, #-28]	@ 0xffffffe4
87800bc8:	e593200c 	ldr	r2, [r3, #12]
87800bcc:	e51b301c 	ldr	r3, [fp, #-28]	@ 0xffffffe4
87800bd0:	e583200c 	str	r2, [r3, #12]
87800bd4:	ea0000a4 	b	87800e6c <GPIO_Init+0x3a0>
87800bd8:	e51b301c 	ldr	r3, [fp, #-28]	@ 0xffffffe4
87800bdc:	e593300c 	ldr	r3, [r3, #12]
87800be0:	e51b2008 	ldr	r2, [fp, #-8]
87800be4:	e1a02082 	lsl	r2, r2, #1
87800be8:	e3a01003 	mov	r1, #3
87800bec:	e1a02211 	lsl	r2, r1, r2
87800bf0:	e1e02002 	mvn	r2, r2
87800bf4:	e0022003 	and	r2, r2, r3
87800bf8:	e51b301c 	ldr	r3, [fp, #-28]	@ 0xffffffe4
87800bfc:	e583200c 	str	r2, [r3, #12]
87800c00:	e51b301c 	ldr	r3, [fp, #-28]	@ 0xffffffe4
87800c04:	e593300c 	ldr	r3, [r3, #12]
87800c08:	e51b2008 	ldr	r2, [fp, #-8]
87800c0c:	e1a02082 	lsl	r2, r2, #1
87800c10:	e3a01001 	mov	r1, #1
87800c14:	e1a02211 	lsl	r2, r1, r2
87800c18:	e1832002 	orr	r2, r3, r2
87800c1c:	e51b301c 	ldr	r3, [fp, #-28]	@ 0xffffffe4
87800c20:	e583200c 	str	r2, [r3, #12]
87800c24:	ea000090 	b	87800e6c <GPIO_Init+0x3a0>
87800c28:	e51b301c 	ldr	r3, [fp, #-28]	@ 0xffffffe4
87800c2c:	e593300c 	ldr	r3, [r3, #12]
87800c30:	e51b2008 	ldr	r2, [fp, #-8]
87800c34:	e1a02082 	lsl	r2, r2, #1
87800c38:	e3a01003 	mov	r1, #3
87800c3c:	e1a02211 	lsl	r2, r1, r2
87800c40:	e1e02002 	mvn	r2, r2
87800c44:	e0022003 	and	r2, r2, r3
87800c48:	e51b301c 	ldr	r3, [fp, #-28]	@ 0xffffffe4
87800c4c:	e583200c 	str	r2, [r3, #12]
87800c50:	e51b301c 	ldr	r3, [fp, #-28]	@ 0xffffffe4
87800c54:	e593300c 	ldr	r3, [r3, #12]
87800c58:	e51b2008 	ldr	r2, [fp, #-8]
87800c5c:	e1a02082 	lsl	r2, r2, #1
87800c60:	e3a01002 	mov	r1, #2
87800c64:	e1a02211 	lsl	r2, r1, r2
87800c68:	e1832002 	orr	r2, r3, r2
87800c6c:	e51b301c 	ldr	r3, [fp, #-28]	@ 0xffffffe4
87800c70:	e583200c 	str	r2, [r3, #12]
87800c74:	ea00007c 	b	87800e6c <GPIO_Init+0x3a0>
87800c78:	e51b301c 	ldr	r3, [fp, #-28]	@ 0xffffffe4
87800c7c:	e593300c 	ldr	r3, [r3, #12]
87800c80:	e51b2008 	ldr	r2, [fp, #-8]
87800c84:	e1a02082 	lsl	r2, r2, #1
87800c88:	e3a01003 	mov	r1, #3
87800c8c:	e1a02211 	lsl	r2, r1, r2
87800c90:	e1e02002 	mvn	r2, r2
87800c94:	e0022003 	and	r2, r2, r3
87800c98:	e51b301c 	ldr	r3, [fp, #-28]	@ 0xffffffe4
87800c9c:	e583200c 	str	r2, [r3, #12]
87800ca0:	e51b301c 	ldr	r3, [fp, #-28]	@ 0xffffffe4
87800ca4:	e593300c 	ldr	r3, [r3, #12]
87800ca8:	e51b2008 	ldr	r2, [fp, #-8]
87800cac:	e1a02082 	lsl	r2, r2, #1
87800cb0:	e3a01003 	mov	r1, #3
87800cb4:	e1a02211 	lsl	r2, r1, r2
87800cb8:	e1832002 	orr	r2, r3, r2
87800cbc:	e51b301c 	ldr	r3, [fp, #-28]	@ 0xffffffe4
87800cc0:	e583200c 	str	r2, [r3, #12]
87800cc4:	ea000068 	b	87800e6c <GPIO_Init+0x3a0>
87800cc8:	e51b301c 	ldr	r3, [fp, #-28]	@ 0xffffffe4
87800ccc:	e593301c 	ldr	r3, [r3, #28]
87800cd0:	e3a01001 	mov	r1, #1
87800cd4:	e59b2004 	ldr	r2, [fp, #4]
87800cd8:	e1a02211 	lsl	r2, r1, r2
87800cdc:	e1832002 	orr	r2, r3, r2
87800ce0:	e51b301c 	ldr	r3, [fp, #-28]	@ 0xffffffe4
87800ce4:	e583201c 	str	r2, [r3, #28]
87800ce8:	ea00005f 	b	87800e6c <GPIO_Init+0x3a0>
87800cec:	e51b3010 	ldr	r3, [fp, #-16]
87800cf0:	e2433001 	sub	r3, r3, #1
87800cf4:	e59f218c 	ldr	r2, [pc, #396]	@ 87800e88 <GPIO_Init+0x3bc>
87800cf8:	e08f2002 	add	r2, pc, r2
87800cfc:	e3530004 	cmp	r3, #4
87800d00:	8a000058 	bhi	87800e68 <GPIO_Init+0x39c>
87800d04:	e7923103 	ldr	r3, [r2, r3, lsl #2]
87800d08:	e08ff003 	add	pc, pc, r3
87800d0c:	e1a00000 	nop			@ (mov r0, r0)
87800d10:	e51b301c 	ldr	r3, [fp, #-28]	@ 0xffffffe4
87800d14:	e5933010 	ldr	r3, [r3, #16]
87800d18:	e51b2008 	ldr	r2, [fp, #-8]
87800d1c:	e1a02082 	lsl	r2, r2, #1
87800d20:	e3a01003 	mov	r1, #3
87800d24:	e1a02211 	lsl	r2, r1, r2
87800d28:	e1e02002 	mvn	r2, r2
87800d2c:	e0022003 	and	r2, r2, r3
87800d30:	e51b301c 	ldr	r3, [fp, #-28]	@ 0xffffffe4
87800d34:	e5832010 	str	r2, [r3, #16]
87800d38:	e51b301c 	ldr	r3, [fp, #-28]	@ 0xffffffe4
87800d3c:	e5932010 	ldr	r2, [r3, #16]
87800d40:	e51b301c 	ldr	r3, [fp, #-28]	@ 0xffffffe4
87800d44:	e5832010 	str	r2, [r3, #16]
87800d48:	ea000047 	b	87800e6c <GPIO_Init+0x3a0>
87800d4c:	e51b301c 	ldr	r3, [fp, #-28]	@ 0xffffffe4
87800d50:	e5933010 	ldr	r3, [r3, #16]
87800d54:	e51b2008 	ldr	r2, [fp, #-8]
87800d58:	e1a02082 	lsl	r2, r2, #1
87800d5c:	e3a01003 	mov	r1, #3
87800d60:	e1a02211 	lsl	r2, r1, r2
87800d64:	e1e02002 	mvn	r2, r2
87800d68:	e0022003 	and	r2, r2, r3
87800d6c:	e51b301c 	ldr	r3, [fp, #-28]	@ 0xffffffe4
87800d70:	e5832010 	str	r2, [r3, #16]
87800d74:	e51b301c 	ldr	r3, [fp, #-28]	@ 0xffffffe4
87800d78:	e5933010 	ldr	r3, [r3, #16]
87800d7c:	e51b2008 	ldr	r2, [fp, #-8]
87800d80:	e1a02082 	lsl	r2, r2, #1
87800d84:	e3a01001 	mov	r1, #1
87800d88:	e1a02211 	lsl	r2, r1, r2
87800d8c:	e1832002 	orr	r2, r3, r2
87800d90:	e51b301c 	ldr	r3, [fp, #-28]	@ 0xffffffe4
87800d94:	e5832010 	str	r2, [r3, #16]
87800d98:	ea000033 	b	87800e6c <GPIO_Init+0x3a0>
87800d9c:	e51b301c 	ldr	r3, [fp, #-28]	@ 0xffffffe4
87800da0:	e5933010 	ldr	r3, [r3, #16]
87800da4:	e51b2008 	ldr	r2, [fp, #-8]
87800da8:	e1a02082 	lsl	r2, r2, #1
87800dac:	e3a01003 	mov	r1, #3
87800db0:	e1a02211 	lsl	r2, r1, r2
87800db4:	e1e02002 	mvn	r2, r2
87800db8:	e0022003 	and	r2, r2, r3
87800dbc:	e51b301c 	ldr	r3, [fp, #-28]	@ 0xffffffe4
87800dc0:	e5832010 	str	r2, [r3, #16]
87800dc4:	e51b301c 	ldr	r3, [fp, #-28]	@ 0xffffffe4
87800dc8:	e5933010 	ldr	r3, [r3, #16]
87800dcc:	e51b2008 	ldr	r2, [fp, #-8]
87800dd0:	e1a02082 	lsl	r2, r2, #1
87800dd4:	e3a01002 	mov	r1, #2
87800dd8:	e1a02211 	lsl	r2, r1, r2
87800ddc:	e1832002 	orr	r2, r3, r2
87800de0:	e51b301c 	ldr	r3, [fp, #-28]	@ 0xffffffe4
87800de4:	e5832010 	str	r2, [r3, #16]
87800de8:	ea00001f 	b	87800e6c <GPIO_Init+0x3a0>
87800dec:	e51b301c 	ldr	r3, [fp, #-28]	@ 0xffffffe4
87800df0:	e5933010 	ldr	r3, [r3, #16]
87800df4:	e51b2008 	ldr	r2, [fp, #-8]
87800df8:	e1a02082 	lsl	r2, r2, #1
87800dfc:	e3a01003 	mov	r1, #3
87800e00:	e1a02211 	lsl	r2, r1, r2
87800e04:	e1e02002 	mvn	r2, r2
87800e08:	e0022003 	and	r2, r2, r3
87800e0c:	e51b301c 	ldr	r3, [fp, #-28]	@ 0xffffffe4
87800e10:	e5832010 	str	r2, [r3, #16]
87800e14:	e51b301c 	ldr	r3, [fp, #-28]	@ 0xffffffe4
87800e18:	e5933010 	ldr	r3, [r3, #16]
87800e1c:	e51b2008 	ldr	r2, [fp, #-8]
87800e20:	e1a02082 	lsl	r2, r2, #1
87800e24:	e3a01003 	mov	r1, #3
87800e28:	e1a02211 	lsl	r2, r1, r2
87800e2c:	e1832002 	orr	r2, r3, r2
87800e30:	e51b301c 	ldr	r3, [fp, #-28]	@ 0xffffffe4
87800e34:	e5832010 	str	r2, [r3, #16]
87800e38:	ea00000b 	b	87800e6c <GPIO_Init+0x3a0>
87800e3c:	e51b301c 	ldr	r3, [fp, #-28]	@ 0xffffffe4
87800e40:	e593301c 	ldr	r3, [r3, #28]
87800e44:	e3a01001 	mov	r1, #1
87800e48:	e59b2004 	ldr	r2, [fp, #4]
87800e4c:	e1a02211 	lsl	r2, r1, r2
87800e50:	e1832002 	orr	r2, r3, r2
87800e54:	e51b301c 	ldr	r3, [fp, #-28]	@ 0xffffffe4
87800e58:	e583201c 	str	r2, [r3, #28]
87800e5c:	ea000002 	b	87800e6c <GPIO_Init+0x3a0>
87800e60:	e1a00000 	nop			@ (mov r0, r0)
87800e64:	ea000000 	b	87800e6c <GPIO_Init+0x3a0>
87800e68:	e1a00000 	nop			@ (mov r0, r0)
87800e6c:	e59f3018 	ldr	r3, [pc, #24]	@ 87800e8c <GPIO_Init+0x3c0>
87800e70:	e3e02000 	mvn	r2, #0
87800e74:	e5832010 	str	r2, [r3, #16]
87800e78:	e1a00000 	nop			@ (mov r0, r0)
87800e7c:	e24bd004 	sub	sp, fp, #4
87800e80:	e8bd8800 	pop	{fp, pc}
87800e84:	00001ec4 	andeq	r1, r0, r4, asr #29
87800e88:	00001d64 	andeq	r1, r0, r4, ror #26
87800e8c:	0209c000 	andeq	ip, r9, #0

87800e90 <GPIO_Pin_Write>:
87800e90:	e52db004 	push	{fp}		@ (str fp, [sp, #-4]!)
87800e94:	e28db000 	add	fp, sp, #0
87800e98:	e24dd014 	sub	sp, sp, #20
87800e9c:	e50b0008 	str	r0, [fp, #-8]
87800ea0:	e50b100c 	str	r1, [fp, #-12]
87800ea4:	e50b2010 	str	r2, [fp, #-16]
87800ea8:	e51b3008 	ldr	r3, [fp, #-8]
87800eac:	e5933004 	ldr	r3, [r3, #4]
87800eb0:	e3a01001 	mov	r1, #1
87800eb4:	e51b200c 	ldr	r2, [fp, #-12]
87800eb8:	e1a02211 	lsl	r2, r1, r2
87800ebc:	e3520000 	cmp	r2, #0
87800ec0:	03a02001 	moveq	r2, #1
87800ec4:	13a02000 	movne	r2, #0
87800ec8:	e6ef2072 	uxtb	r2, r2
87800ecc:	e0033002 	and	r3, r3, r2
87800ed0:	e3530000 	cmp	r3, #0
87800ed4:	1a000015 	bne	87800f30 <GPIO_Pin_Write+0xa0>
87800ed8:	e51b3010 	ldr	r3, [fp, #-16]
87800edc:	e3530000 	cmp	r3, #0
87800ee0:	0a000008 	beq	87800f08 <GPIO_Pin_Write+0x78>
87800ee4:	e51b3008 	ldr	r3, [fp, #-8]
87800ee8:	e5933000 	ldr	r3, [r3]
87800eec:	e3a01001 	mov	r1, #1
87800ef0:	e51b200c 	ldr	r2, [fp, #-12]
87800ef4:	e1a02211 	lsl	r2, r1, r2
87800ef8:	e1832002 	orr	r2, r3, r2
87800efc:	e51b3008 	ldr	r3, [fp, #-8]
87800f00:	e5832000 	str	r2, [r3]
87800f04:	ea00000a 	b	87800f34 <GPIO_Pin_Write+0xa4>
87800f08:	e51b3008 	ldr	r3, [fp, #-8]
87800f0c:	e5933000 	ldr	r3, [r3]
87800f10:	e3a01001 	mov	r1, #1
87800f14:	e51b200c 	ldr	r2, [fp, #-12]
87800f18:	e1a02211 	lsl	r2, r1, r2
87800f1c:	e1e02002 	mvn	r2, r2
87800f20:	e0022003 	and	r2, r2, r3
87800f24:	e51b3008 	ldr	r3, [fp, #-8]
87800f28:	e5832000 	str	r2, [r3]
87800f2c:	ea000000 	b	87800f34 <GPIO_Pin_Write+0xa4>
87800f30:	e1a00000 	nop			@ (mov r0, r0)
87800f34:	e28bd000 	add	sp, fp, #0
87800f38:	e49db004 	pop	{fp}		@ (ldr fp, [sp], #4)
87800f3c:	e12fff1e 	bx	lr

87800f40 <GPIO_Enable_Int>:
87800f40:	e52db004 	push	{fp}		@ (str fp, [sp, #-4]!)
87800f44:	e28db000 	add	fp, sp, #0
87800f48:	e24dd00c 	sub	sp, sp, #12
87800f4c:	e50b0008 	str	r0, [fp, #-8]
87800f50:	e50b100c 	str	r1, [fp, #-12]
87800f54:	e51b3008 	ldr	r3, [fp, #-8]
87800f58:	e5933014 	ldr	r3, [r3, #20]
87800f5c:	e3a01001 	mov	r1, #1
87800f60:	e51b200c 	ldr	r2, [fp, #-12]
87800f64:	e1a02211 	lsl	r2, r1, r2
87800f68:	e1832002 	orr	r2, r3, r2
87800f6c:	e51b3008 	ldr	r3, [fp, #-8]
87800f70:	e5832014 	str	r2, [r3, #20]
87800f74:	e1a00000 	nop			@ (mov r0, r0)
87800f78:	e28bd000 	add	sp, fp, #0
87800f7c:	e49db004 	pop	{fp}		@ (ldr fp, [sp], #4)
87800f80:	e12fff1e 	bx	lr

87800f84 <GPIO_Disable_Int>:
87800f84:	e52db004 	push	{fp}		@ (str fp, [sp, #-4]!)
87800f88:	e28db000 	add	fp, sp, #0
87800f8c:	e24dd00c 	sub	sp, sp, #12
87800f90:	e50b0008 	str	r0, [fp, #-8]
87800f94:	e50b100c 	str	r1, [fp, #-12]
87800f98:	e51b3008 	ldr	r3, [fp, #-8]
87800f9c:	e5933014 	ldr	r3, [r3, #20]
87800fa0:	e3a01001 	mov	r1, #1
87800fa4:	e51b200c 	ldr	r2, [fp, #-12]
87800fa8:	e1a02211 	lsl	r2, r1, r2
87800fac:	e1e02002 	mvn	r2, r2
87800fb0:	e0022003 	and	r2, r2, r3
87800fb4:	e51b3008 	ldr	r3, [fp, #-8]
87800fb8:	e5832014 	str	r2, [r3, #20]
87800fbc:	e1a00000 	nop			@ (mov r0, r0)
87800fc0:	e28bd000 	add	sp, fp, #0
87800fc4:	e49db004 	pop	{fp}		@ (ldr fp, [sp], #4)
87800fc8:	e12fff1e 	bx	lr

87800fcc <GPIO_Clear_Int_Flag>:
87800fcc:	e52db004 	push	{fp}		@ (str fp, [sp, #-4]!)
87800fd0:	e28db000 	add	fp, sp, #0
87800fd4:	e24dd00c 	sub	sp, sp, #12
87800fd8:	e50b0008 	str	r0, [fp, #-8]
87800fdc:	e50b100c 	str	r1, [fp, #-12]
87800fe0:	e51b3008 	ldr	r3, [fp, #-8]
87800fe4:	e5933018 	ldr	r3, [r3, #24]
87800fe8:	e3a01001 	mov	r1, #1
87800fec:	e51b200c 	ldr	r2, [fp, #-12]
87800ff0:	e1a02211 	lsl	r2, r1, r2
87800ff4:	e1832002 	orr	r2, r3, r2
87800ff8:	e51b3008 	ldr	r3, [fp, #-8]
87800ffc:	e5832018 	str	r2, [r3, #24]
87801000:	e1a00000 	nop			@ (mov r0, r0)
87801004:	e28bd000 	add	sp, fp, #0
87801008:	e49db004 	pop	{fp}		@ (ldr fp, [sp], #4)
8780100c:	e12fff1e 	bx	lr

87801010 <IOMUXC_SetPinMux>:
87801010:	e52db004 	push	{fp}		@ (str fp, [sp, #-4]!)
87801014:	e28db000 	add	fp, sp, #0
87801018:	e24dd014 	sub	sp, sp, #20
8780101c:	e50b0008 	str	r0, [fp, #-8]
87801020:	e50b100c 	str	r1, [fp, #-12]
87801024:	e50b2010 	str	r2, [fp, #-16]
87801028:	e50b3014 	str	r3, [fp, #-20]	@ 0xffffffec
8780102c:	e51b300c 	ldr	r3, [fp, #-12]
87801030:	e203100f 	and	r1, r3, #15
87801034:	e59b3008 	ldr	r3, [fp, #8]
87801038:	e1a03203 	lsl	r3, r3, #4
8780103c:	e2032010 	and	r2, r3, #16
87801040:	e51b3008 	ldr	r3, [fp, #-8]
87801044:	e1812002 	orr	r2, r1, r2
87801048:	e5832000 	str	r2, [r3]
8780104c:	e51b3010 	ldr	r3, [fp, #-16]
87801050:	e3530000 	cmp	r3, #0
87801054:	0a000003 	beq	87801068 <IOMUXC_SetPinMux+0x58>
87801058:	e51b3010 	ldr	r3, [fp, #-16]
8780105c:	e51b2014 	ldr	r2, [fp, #-20]	@ 0xffffffec
87801060:	e2022007 	and	r2, r2, #7
87801064:	e5832000 	str	r2, [r3]
87801068:	e1a00000 	nop			@ (mov r0, r0)
8780106c:	e28bd000 	add	sp, fp, #0
87801070:	e49db004 	pop	{fp}		@ (ldr fp, [sp], #4)
87801074:	e12fff1e 	bx	lr

87801078 <IOMUXC_SetPinConfig>:
87801078:	e52db004 	push	{fp}		@ (str fp, [sp, #-4]!)
8780107c:	e28db000 	add	fp, sp, #0
87801080:	e24dd014 	sub	sp, sp, #20
87801084:	e50b0008 	str	r0, [fp, #-8]
87801088:	e50b100c 	str	r1, [fp, #-12]
8780108c:	e50b2010 	str	r2, [fp, #-16]
87801090:	e50b3014 	str	r3, [fp, #-20]	@ 0xffffffec
87801094:	e59b3004 	ldr	r3, [fp, #4]
87801098:	e3530000 	cmp	r3, #0
8780109c:	0a000002 	beq	878010ac <IOMUXC_SetPinConfig+0x34>
878010a0:	e59b3004 	ldr	r3, [fp, #4]
878010a4:	e59b2008 	ldr	r2, [fp, #8]
878010a8:	e5832000 	str	r2, [r3]
878010ac:	e1a00000 	nop			@ (mov r0, r0)
878010b0:	e28bd000 	add	sp, fp, #0
878010b4:	e49db004 	pop	{fp}		@ (ldr fp, [sp], #4)
878010b8:	e12fff1e 	bx	lr

878010bc <Beep_Init>:
878010bc:	e92d4800 	push	{fp, lr}
878010c0:	e28db004 	add	fp, sp, #4
878010c4:	e24dd008 	sub	sp, sp, #8
878010c8:	e3a03000 	mov	r3, #0
878010cc:	e58d3004 	str	r3, [sp, #4]
878010d0:	e59f306c 	ldr	r3, [pc, #108]	@ 87801144 <Beep_Init+0x88>
878010d4:	e58d3000 	str	r3, [sp]
878010d8:	e3a03000 	mov	r3, #0
878010dc:	e3a02000 	mov	r2, #0
878010e0:	e3a01005 	mov	r1, #5
878010e4:	e59f005c 	ldr	r0, [pc, #92]	@ 87801148 <Beep_Init+0x8c>
878010e8:	ebffffc8 	bl	87801010 <IOMUXC_SetPinMux>
878010ec:	e59f3058 	ldr	r3, [pc, #88]	@ 8780114c <Beep_Init+0x90>
878010f0:	e58d3004 	str	r3, [sp, #4]
878010f4:	e59f3048 	ldr	r3, [pc, #72]	@ 87801144 <Beep_Init+0x88>
878010f8:	e58d3000 	str	r3, [sp]
878010fc:	e3a03000 	mov	r3, #0
87801100:	e3a02000 	mov	r2, #0
87801104:	e3a01005 	mov	r1, #5
87801108:	e59f0038 	ldr	r0, [pc, #56]	@ 87801148 <Beep_Init+0x8c>
8780110c:	ebffffd9 	bl	87801078 <IOMUXC_SetPinConfig>
87801110:	e59f3038 	ldr	r3, [pc, #56]	@ 87801150 <Beep_Init+0x94>
87801114:	e5933004 	ldr	r3, [r3, #4]
87801118:	e59f2030 	ldr	r2, [pc, #48]	@ 87801150 <Beep_Init+0x94>
8780111c:	e3833002 	orr	r3, r3, #2
87801120:	e5823004 	str	r3, [r2, #4]
87801124:	e59f3024 	ldr	r3, [pc, #36]	@ 87801150 <Beep_Init+0x94>
87801128:	e5933000 	ldr	r3, [r3]
8780112c:	e59f201c 	ldr	r2, [pc, #28]	@ 87801150 <Beep_Init+0x94>
87801130:	e3833002 	orr	r3, r3, #2
87801134:	e5823000 	str	r3, [r2]
87801138:	e1a00000 	nop			@ (mov r0, r0)
8780113c:	e24bd004 	sub	sp, fp, #4
87801140:	e8bd8800 	pop	{fp, pc}
87801144:	02290050 	eoreq	r0, r9, #80	@ 0x50
87801148:	0229000c 	eoreq	r0, r9, #12
8780114c:	000010b0 	strheq	r1, [r0], -r0
87801150:	020ac000 	andeq	ip, sl, #0

87801154 <Beep_ON>:
87801154:	e52db004 	push	{fp}		@ (str fp, [sp, #-4]!)
87801158:	e28db000 	add	fp, sp, #0
8780115c:	e59f301c 	ldr	r3, [pc, #28]	@ 87801180 <Beep_ON+0x2c>
87801160:	e5933000 	ldr	r3, [r3]
87801164:	e59f2014 	ldr	r2, [pc, #20]	@ 87801180 <Beep_ON+0x2c>
87801168:	e3c33002 	bic	r3, r3, #2
8780116c:	e5823000 	str	r3, [r2]
87801170:	e1a00000 	nop			@ (mov r0, r0)
87801174:	e28bd000 	add	sp, fp, #0
87801178:	e49db004 	pop	{fp}		@ (ldr fp, [sp], #4)
8780117c:	e12fff1e 	bx	lr
87801180:	020ac000 	andeq	ip, sl, #0

87801184 <Beep_OFF>:
87801184:	e52db004 	push	{fp}		@ (str fp, [sp, #-4]!)
87801188:	e28db000 	add	fp, sp, #0
8780118c:	e59f301c 	ldr	r3, [pc, #28]	@ 878011b0 <Beep_OFF+0x2c>
87801190:	e5933000 	ldr	r3, [r3]
87801194:	e59f2014 	ldr	r2, [pc, #20]	@ 878011b0 <Beep_OFF+0x2c>
87801198:	e3833002 	orr	r3, r3, #2
8780119c:	e5823000 	str	r3, [r2]
878011a0:	e1a00000 	nop			@ (mov r0, r0)
878011a4:	e28bd000 	add	sp, fp, #0
878011a8:	e49db004 	pop	{fp}		@ (ldr fp, [sp], #4)
878011ac:	e12fff1e 	bx	lr
878011b0:	020ac000 	andeq	ip, sl, #0

878011b4 <Beep_Switch>:
878011b4:	e92d4800 	push	{fp, lr}
878011b8:	e28db004 	add	fp, sp, #4
878011bc:	e59f3020 	ldr	r3, [pc, #32]	@ 878011e4 <Beep_Switch+0x30>
878011c0:	e5933000 	ldr	r3, [r3]
878011c4:	e2033002 	and	r3, r3, #2
878011c8:	e3530000 	cmp	r3, #0
878011cc:	0a000001 	beq	878011d8 <Beep_Switch+0x24>
878011d0:	ebffffdf 	bl	87801154 <Beep_ON>
878011d4:	ea000000 	b	878011dc <Beep_Switch+0x28>
878011d8:	ebffffe9 	bl	87801184 <Beep_OFF>
878011dc:	e1a00000 	nop			@ (mov r0, r0)
878011e0:	e8bd8800 	pop	{fp, pc}
878011e4:	020ac000 	andeq	ip, sl, #0

878011e8 <Clock_EnableAllCCGR>:
878011e8:	e52db004 	push	{fp}		@ (str fp, [sp, #-4]!)
878011ec:	e28db000 	add	fp, sp, #0
878011f0:	e59f305c 	ldr	r3, [pc, #92]	@ 87801254 <Clock_EnableAllCCGR+0x6c>
878011f4:	e3e02000 	mvn	r2, #0
878011f8:	e5832068 	str	r2, [r3, #104]	@ 0x68
878011fc:	e59f3050 	ldr	r3, [pc, #80]	@ 87801254 <Clock_EnableAllCCGR+0x6c>
87801200:	e3e02000 	mvn	r2, #0
87801204:	e583206c 	str	r2, [r3, #108]	@ 0x6c
87801208:	e59f3044 	ldr	r3, [pc, #68]	@ 87801254 <Clock_EnableAllCCGR+0x6c>
8780120c:	e3e02000 	mvn	r2, #0
87801210:	e5832070 	str	r2, [r3, #112]	@ 0x70
87801214:	e59f3038 	ldr	r3, [pc, #56]	@ 87801254 <Clock_EnableAllCCGR+0x6c>
87801218:	e3e02000 	mvn	r2, #0
8780121c:	e5832074 	str	r2, [r3, #116]	@ 0x74
87801220:	e59f302c 	ldr	r3, [pc, #44]	@ 87801254 <Clock_EnableAllCCGR+0x6c>
87801224:	e3e02000 	mvn	r2, #0
87801228:	e5832078 	str	r2, [r3, #120]	@ 0x78
8780122c:	e59f3020 	ldr	r3, [pc, #32]	@ 87801254 <Clock_EnableAllCCGR+0x6c>
87801230:	e3e02000 	mvn	r2, #0
87801234:	e583207c 	str	r2, [r3, #124]	@ 0x7c
87801238:	e59f3014 	ldr	r3, [pc, #20]	@ 87801254 <Clock_EnableAllCCGR+0x6c>
8780123c:	e3e02000 	mvn	r2, #0
87801240:	e5832080 	str	r2, [r3, #128]	@ 0x80
87801244:	e1a00000 	nop			@ (mov r0, r0)
87801248:	e28bd000 	add	sp, fp, #0
8780124c:	e49db004 	pop	{fp}		@ (ldr fp, [sp], #4)
87801250:	e12fff1e 	bx	lr
87801254:	020c4000 	andeq	r4, ip, #0

87801258 <Clock_Enable_CCGR_Module>:
87801258:	e52db004 	push	{fp}		@ (str fp, [sp, #-4]!)
8780125c:	e28db000 	add	fp, sp, #0
87801260:	e24dd014 	sub	sp, sp, #20
87801264:	e50b0010 	str	r0, [fp, #-16]
87801268:	e50b1014 	str	r1, [fp, #-20]	@ 0xffffffec
8780126c:	e51b3010 	ldr	r3, [fp, #-16]
87801270:	e3530006 	cmp	r3, #6
87801274:	83a03001 	movhi	r3, #1
87801278:	93a03000 	movls	r3, #0
8780127c:	e6ef2073 	uxtb	r2, r3
87801280:	e51b3014 	ldr	r3, [fp, #-20]	@ 0xffffffec
87801284:	e353001f 	cmp	r3, #31
87801288:	83a03001 	movhi	r3, #1
8780128c:	93a03000 	movls	r3, #0
87801290:	e6ef3073 	uxtb	r3, r3
87801294:	e1823003 	orr	r3, r2, r3
87801298:	e6ef3073 	uxtb	r3, r3
8780129c:	e3530000 	cmp	r3, #0
878012a0:	1a00000e 	bne	878012e0 <Clock_Enable_CCGR_Module+0x88>
878012a4:	e51b3010 	ldr	r3, [fp, #-16]
878012a8:	e1a02383 	lsl	r2, r3, #7
878012ac:	e59f303c 	ldr	r3, [pc, #60]	@ 878012f0 <Clock_Enable_CCGR_Module+0x98>
878012b0:	e0823003 	add	r3, r2, r3
878012b4:	e50b3008 	str	r3, [fp, #-8]
878012b8:	e51b3008 	ldr	r3, [fp, #-8]
878012bc:	e5933000 	ldr	r3, [r3]
878012c0:	e51b2014 	ldr	r2, [fp, #-20]	@ 0xffffffec
878012c4:	e1a02082 	lsl	r2, r2, #1
878012c8:	e3a01003 	mov	r1, #3
878012cc:	e1a02211 	lsl	r2, r1, r2
878012d0:	e1832002 	orr	r2, r3, r2
878012d4:	e51b3008 	ldr	r3, [fp, #-8]
878012d8:	e5832000 	str	r2, [r3]
878012dc:	ea000000 	b	878012e4 <Clock_Enable_CCGR_Module+0x8c>
878012e0:	e1a00000 	nop			@ (mov r0, r0)
878012e4:	e28bd000 	add	sp, fp, #0
878012e8:	e49db004 	pop	{fp}		@ (ldr fp, [sp], #4)
878012ec:	e12fff1e 	bx	lr
878012f0:	020c4068 	andeq	r4, ip, #104	@ 0x68

878012f4 <Clock_Disable_CCGR_Module>:
878012f4:	e52db004 	push	{fp}		@ (str fp, [sp, #-4]!)
878012f8:	e28db000 	add	fp, sp, #0
878012fc:	e24dd014 	sub	sp, sp, #20
87801300:	e50b0010 	str	r0, [fp, #-16]
87801304:	e50b1014 	str	r1, [fp, #-20]	@ 0xffffffec
87801308:	e51b3010 	ldr	r3, [fp, #-16]
8780130c:	e3530006 	cmp	r3, #6
87801310:	83a03001 	movhi	r3, #1
87801314:	93a03000 	movls	r3, #0
87801318:	e6ef2073 	uxtb	r2, r3
8780131c:	e51b3014 	ldr	r3, [fp, #-20]	@ 0xffffffec
87801320:	e353001f 	cmp	r3, #31
87801324:	83a03001 	movhi	r3, #1
87801328:	93a03000 	movls	r3, #0
8780132c:	e6ef3073 	uxtb	r3, r3
87801330:	e1823003 	orr	r3, r2, r3
87801334:	e6ef3073 	uxtb	r3, r3
87801338:	e3530000 	cmp	r3, #0
8780133c:	1a00000f 	bne	87801380 <Clock_Disable_CCGR_Module+0x8c>
87801340:	e51b3010 	ldr	r3, [fp, #-16]
87801344:	e1a02383 	lsl	r2, r3, #7
87801348:	e59f3040 	ldr	r3, [pc, #64]	@ 87801390 <Clock_Disable_CCGR_Module+0x9c>
8780134c:	e0823003 	add	r3, r2, r3
87801350:	e50b3008 	str	r3, [fp, #-8]
87801354:	e51b3008 	ldr	r3, [fp, #-8]
87801358:	e5933000 	ldr	r3, [r3]
8780135c:	e51b2014 	ldr	r2, [fp, #-20]	@ 0xffffffec
87801360:	e1a02082 	lsl	r2, r2, #1
87801364:	e3a01003 	mov	r1, #3
87801368:	e1a02211 	lsl	r2, r1, r2
8780136c:	e1e02002 	mvn	r2, r2
87801370:	e0022003 	and	r2, r2, r3
87801374:	e51b3008 	ldr	r3, [fp, #-8]
87801378:	e5832000 	str	r2, [r3]
8780137c:	ea000000 	b	87801384 <Clock_Disable_CCGR_Module+0x90>
87801380:	e1a00000 	nop			@ (mov r0, r0)
87801384:	e28bd000 	add	sp, fp, #0
87801388:	e49db004 	pop	{fp}		@ (ldr fp, [sp], #4)
8780138c:	e12fff1e 	bx	lr
87801390:	020c4068 	andeq	r4, ip, #104	@ 0x68

87801394 <ARM_PLL_Init>:
87801394:	e52db004 	push	{fp}		@ (str fp, [sp, #-4]!)
87801398:	e28db000 	add	fp, sp, #0
8780139c:	e24dd014 	sub	sp, sp, #20
878013a0:	e50b0010 	str	r0, [fp, #-16]
878013a4:	e51b3010 	ldr	r3, [fp, #-16]
878013a8:	e1a03083 	lsl	r3, r3, #1
878013ac:	e59f20a4 	ldr	r2, [pc, #164]	@ 87801458 <ARM_PLL_Init+0xc4>
878013b0:	e0832392 	umull	r2, r3, r2, r3
878013b4:	e1a03223 	lsr	r3, r3, #4
878013b8:	e50b300c 	str	r3, [fp, #-12]
878013bc:	e59f3098 	ldr	r3, [pc, #152]	@ 8780145c <ARM_PLL_Init+0xc8>
878013c0:	e593300c 	ldr	r3, [r3, #12]
878013c4:	e59f3094 	ldr	r3, [pc, #148]	@ 87801460 <ARM_PLL_Init+0xcc>
878013c8:	e5933000 	ldr	r3, [r3]
878013cc:	e50b3008 	str	r3, [fp, #-8]
878013d0:	e51b3008 	ldr	r3, [fp, #-8]
878013d4:	e3c3307f 	bic	r3, r3, #127	@ 0x7f
878013d8:	e50b3008 	str	r3, [fp, #-8]
878013dc:	e51b300c 	ldr	r3, [fp, #-12]
878013e0:	e203307f 	and	r3, r3, #127	@ 0x7f
878013e4:	e51b2008 	ldr	r2, [fp, #-8]
878013e8:	e1823003 	orr	r3, r2, r3
878013ec:	e50b3008 	str	r3, [fp, #-8]
878013f0:	e59f2068 	ldr	r2, [pc, #104]	@ 87801460 <ARM_PLL_Init+0xcc>
878013f4:	e51b3008 	ldr	r3, [fp, #-8]
878013f8:	e5823000 	str	r3, [r2]
878013fc:	e59f3058 	ldr	r3, [pc, #88]	@ 8780145c <ARM_PLL_Init+0xc8>
87801400:	e3a02001 	mov	r2, #1
87801404:	e5832010 	str	r2, [r3, #16]
87801408:	e1a00000 	nop			@ (mov r0, r0)
8780140c:	e59f3048 	ldr	r3, [pc, #72]	@ 8780145c <ARM_PLL_Init+0xc8>
87801410:	e5933048 	ldr	r3, [r3, #72]	@ 0x48
87801414:	e2033801 	and	r3, r3, #65536	@ 0x10000
87801418:	e3530000 	cmp	r3, #0
8780141c:	1afffffa 	bne	8780140c <ARM_PLL_Init+0x78>
87801420:	e59f3034 	ldr	r3, [pc, #52]	@ 8780145c <ARM_PLL_Init+0xc8>
87801424:	e593300c 	ldr	r3, [r3, #12]
87801428:	e59f202c 	ldr	r2, [pc, #44]	@ 8780145c <ARM_PLL_Init+0xc8>
8780142c:	e3833c01 	orr	r3, r3, #256	@ 0x100
87801430:	e582300c 	str	r3, [r2, #12]
87801434:	e59f3020 	ldr	r3, [pc, #32]	@ 8780145c <ARM_PLL_Init+0xc8>
87801438:	e593300c 	ldr	r3, [r3, #12]
8780143c:	e59f2018 	ldr	r2, [pc, #24]	@ 8780145c <ARM_PLL_Init+0xc8>
87801440:	e3c33004 	bic	r3, r3, #4
87801444:	e582300c 	str	r3, [r2, #12]
87801448:	e1a00000 	nop			@ (mov r0, r0)
8780144c:	e28bd000 	add	sp, fp, #0
87801450:	e49db004 	pop	{fp}		@ (ldr fp, [sp], #4)
87801454:	e12fff1e 	bx	lr
87801458:	aaaaaaab 	bge	862abf0c <shift+0x862abf0c>
8780145c:	020c4000 	andeq	r4, ip, #0
87801460:	020c8000 	andeq	r8, ip, #0

87801464 <System_PLL_Init>:
87801464:	e52db004 	push	{fp}		@ (str fp, [sp, #-4]!)
87801468:	e28db000 	add	fp, sp, #0
8780146c:	e24dd00c 	sub	sp, sp, #12
87801470:	e59f3040 	ldr	r3, [pc, #64]	@ 878014b8 <System_PLL_Init+0x54>
87801474:	e5933100 	ldr	r3, [r3, #256]	@ 0x100
87801478:	e50b3008 	str	r3, [fp, #-8]
8780147c:	e51b2008 	ldr	r2, [fp, #-8]
87801480:	e59f3034 	ldr	r3, [pc, #52]	@ 878014bc <System_PLL_Init+0x58>
87801484:	e0033002 	and	r3, r3, r2
87801488:	e50b3008 	str	r3, [fp, #-8]
8780148c:	e51b2008 	ldr	r2, [fp, #-8]
87801490:	e59f3028 	ldr	r3, [pc, #40]	@ 878014c0 <System_PLL_Init+0x5c>
87801494:	e1823003 	orr	r3, r2, r3
87801498:	e50b3008 	str	r3, [fp, #-8]
8780149c:	e59f2014 	ldr	r2, [pc, #20]	@ 878014b8 <System_PLL_Init+0x54>
878014a0:	e51b3008 	ldr	r3, [fp, #-8]
878014a4:	e5823100 	str	r3, [r2, #256]	@ 0x100
878014a8:	e1a00000 	nop			@ (mov r0, r0)
878014ac:	e28bd000 	add	sp, fp, #0
878014b0:	e49db004 	pop	{fp}		@ (ldr fp, [sp], #4)
878014b4:	e12fff1e 	bx	lr
878014b8:	020c8000 	andeq	r8, ip, #0
878014bc:	c0c0c0c0 	sbcgt	ip, r0, r0, asr #1
878014c0:	2018101b 	andscs	r1, r8, fp, lsl r0

878014c4 <USB1_PLL_Init>:
878014c4:	e52db004 	push	{fp}		@ (str fp, [sp, #-4]!)
878014c8:	e28db000 	add	fp, sp, #0
878014cc:	e24dd00c 	sub	sp, sp, #12
878014d0:	e59f3040 	ldr	r3, [pc, #64]	@ 87801518 <USB1_PLL_Init+0x54>
878014d4:	e59330f0 	ldr	r3, [r3, #240]	@ 0xf0
878014d8:	e50b3008 	str	r3, [fp, #-8]
878014dc:	e51b2008 	ldr	r2, [fp, #-8]
878014e0:	e59f3034 	ldr	r3, [pc, #52]	@ 8780151c <USB1_PLL_Init+0x58>
878014e4:	e0033002 	and	r3, r3, r2
878014e8:	e50b3008 	str	r3, [fp, #-8]
878014ec:	e51b2008 	ldr	r2, [fp, #-8]
878014f0:	e59f3028 	ldr	r3, [pc, #40]	@ 87801520 <USB1_PLL_Init+0x5c>
878014f4:	e1823003 	orr	r3, r2, r3
878014f8:	e50b3008 	str	r3, [fp, #-8]
878014fc:	e59f2014 	ldr	r2, [pc, #20]	@ 87801518 <USB1_PLL_Init+0x54>
87801500:	e51b3008 	ldr	r3, [fp, #-8]
87801504:	e58230f0 	str	r3, [r2, #240]	@ 0xf0
87801508:	e1a00000 	nop			@ (mov r0, r0)
8780150c:	e28bd000 	add	sp, fp, #0
87801510:	e49db004 	pop	{fp}		@ (ldr fp, [sp], #4)
87801514:	e12fff1e 	bx	lr
87801518:	020c8000 	andeq	r8, ip, #0
8780151c:	c0c0c0c0 	sbcgt	ip, r0, r0, asr #1
87801520:	0c101113 	ldceq	1, cr1, [r0], {19}

87801524 <AHB_CLK_ROOT_Init>:
87801524:	e52db004 	push	{fp}		@ (str fp, [sp, #-4]!)
87801528:	e28db000 	add	fp, sp, #0
8780152c:	e24dd00c 	sub	sp, sp, #12
87801530:	e59f3090 	ldr	r3, [pc, #144]	@ 878015c8 <AHB_CLK_ROOT_Init+0xa4>
87801534:	e5933014 	ldr	r3, [r3, #20]
87801538:	e50b3008 	str	r3, [fp, #-8]
8780153c:	e51b3008 	ldr	r3, [fp, #-8]
87801540:	e3c33703 	bic	r3, r3, #786432	@ 0xc0000
87801544:	e50b3008 	str	r3, [fp, #-8]
87801548:	e51b3008 	ldr	r3, [fp, #-8]
8780154c:	e3833701 	orr	r3, r3, #262144	@ 0x40000
87801550:	e50b3008 	str	r3, [fp, #-8]
87801554:	e59f206c 	ldr	r2, [pc, #108]	@ 878015c8 <AHB_CLK_ROOT_Init+0xa4>
87801558:	e51b3008 	ldr	r3, [fp, #-8]
8780155c:	e5823014 	str	r3, [r2, #20]
87801560:	e59f3060 	ldr	r3, [pc, #96]	@ 878015c8 <AHB_CLK_ROOT_Init+0xa4>
87801564:	e5933014 	ldr	r3, [r3, #20]
87801568:	e50b3008 	str	r3, [fp, #-8]
8780156c:	e51b3008 	ldr	r3, [fp, #-8]
87801570:	e3c33402 	bic	r3, r3, #33554432	@ 0x2000000
87801574:	e50b3008 	str	r3, [fp, #-8]
87801578:	e51b3008 	ldr	r3, [fp, #-8]
8780157c:	e3c33b07 	bic	r3, r3, #7168	@ 0x1c00
87801580:	e50b3008 	str	r3, [fp, #-8]
87801584:	e51b3008 	ldr	r3, [fp, #-8]
87801588:	e3833b03 	orr	r3, r3, #3072	@ 0xc00
8780158c:	e50b3008 	str	r3, [fp, #-8]
87801590:	e59f2030 	ldr	r2, [pc, #48]	@ 878015c8 <AHB_CLK_ROOT_Init+0xa4>
87801594:	e51b3008 	ldr	r3, [fp, #-8]
87801598:	e5823014 	str	r3, [r2, #20]
8780159c:	e1a00000 	nop			@ (mov r0, r0)
878015a0:	e59f3020 	ldr	r3, [pc, #32]	@ 878015c8 <AHB_CLK_ROOT_Init+0xa4>
878015a4:	e5933048 	ldr	r3, [r3, #72]	@ 0x48
878015a8:	e2033002 	and	r3, r3, #2
878015ac:	e3530000 	cmp	r3, #0
878015b0:	1afffffa 	bne	878015a0 <AHB_CLK_ROOT_Init+0x7c>
878015b4:	e1a00000 	nop			@ (mov r0, r0)
878015b8:	e1a00000 	nop			@ (mov r0, r0)
878015bc:	e28bd000 	add	sp, fp, #0
878015c0:	e49db004 	pop	{fp}		@ (ldr fp, [sp], #4)
878015c4:	e12fff1e 	bx	lr
878015c8:	020c4000 	andeq	r4, ip, #0

878015cc <IPG_CLK_ROOT_Init>:
878015cc:	e52db004 	push	{fp}		@ (str fp, [sp, #-4]!)
878015d0:	e28db000 	add	fp, sp, #0
878015d4:	e24dd00c 	sub	sp, sp, #12
878015d8:	e59f3038 	ldr	r3, [pc, #56]	@ 87801618 <IPG_CLK_ROOT_Init+0x4c>
878015dc:	e5933014 	ldr	r3, [r3, #20]
878015e0:	e50b3008 	str	r3, [fp, #-8]
878015e4:	e51b3008 	ldr	r3, [fp, #-8]
878015e8:	e3c33c03 	bic	r3, r3, #768	@ 0x300
878015ec:	e50b3008 	str	r3, [fp, #-8]
878015f0:	e51b3008 	ldr	r3, [fp, #-8]
878015f4:	e3833c01 	orr	r3, r3, #256	@ 0x100
878015f8:	e50b3008 	str	r3, [fp, #-8]
878015fc:	e59f2014 	ldr	r2, [pc, #20]	@ 87801618 <IPG_CLK_ROOT_Init+0x4c>
87801600:	e51b3008 	ldr	r3, [fp, #-8]
87801604:	e5823014 	str	r3, [r2, #20]
87801608:	e1a00000 	nop			@ (mov r0, r0)
8780160c:	e28bd000 	add	sp, fp, #0
87801610:	e49db004 	pop	{fp}		@ (ldr fp, [sp], #4)
87801614:	e12fff1e 	bx	lr
87801618:	020c4000 	andeq	r4, ip, #0

8780161c <PERCLK_CLK_ROOT_Init>:
8780161c:	e52db004 	push	{fp}		@ (str fp, [sp, #-4]!)
87801620:	e28db000 	add	fp, sp, #0
87801624:	e24dd00c 	sub	sp, sp, #12
87801628:	e59f3038 	ldr	r3, [pc, #56]	@ 87801668 <PERCLK_CLK_ROOT_Init+0x4c>
8780162c:	e593301c 	ldr	r3, [r3, #28]
87801630:	e50b3008 	str	r3, [fp, #-8]
87801634:	e51b3008 	ldr	r3, [fp, #-8]
87801638:	e3c3303f 	bic	r3, r3, #63	@ 0x3f
8780163c:	e50b3008 	str	r3, [fp, #-8]
87801640:	e51b3008 	ldr	r3, [fp, #-8]
87801644:	e3833001 	orr	r3, r3, #1
87801648:	e50b3008 	str	r3, [fp, #-8]
8780164c:	e59f2014 	ldr	r2, [pc, #20]	@ 87801668 <PERCLK_CLK_ROOT_Init+0x4c>
87801650:	e51b3008 	ldr	r3, [fp, #-8]
87801654:	e582301c 	str	r3, [r2, #28]
87801658:	e1a00000 	nop			@ (mov r0, r0)
8780165c:	e28bd000 	add	sp, fp, #0
87801660:	e49db004 	pop	{fp}		@ (ldr fp, [sp], #4)
87801664:	e12fff1e 	bx	lr
87801668:	020c4000 	andeq	r4, ip, #0

8780166c <CommonSystemClock_Init>:
8780166c:	e92d4800 	push	{fp, lr}
87801670:	e28db004 	add	fp, sp, #4
87801674:	ebffffaa 	bl	87801524 <AHB_CLK_ROOT_Init>
87801678:	ebffffd3 	bl	878015cc <IPG_CLK_ROOT_Init>
8780167c:	ebffffe6 	bl	8780161c <PERCLK_CLK_ROOT_Init>
87801680:	e1a00000 	nop			@ (mov r0, r0)
87801684:	e8bd8800 	pop	{fp, pc}

87801688 <EPIT1_Init>:
87801688:	e92d4800 	push	{fp, lr}
8780168c:	e28db004 	add	fp, sp, #4
87801690:	e24dd018 	sub	sp, sp, #24
87801694:	e50b0018 	str	r0, [fp, #-24]	@ 0xffffffe8
87801698:	e50b101c 	str	r1, [fp, #-28]	@ 0xffffffe4
8780169c:	e51b3018 	ldr	r3, [fp, #-24]	@ 0xffffffe8
878016a0:	e3530a01 	cmp	r3, #4096	@ 0x1000
878016a4:	2a000040 	bcs	878017ac <EPIT1_Init+0x124>
878016a8:	e59f3108 	ldr	r3, [pc, #264]	@ 878017b8 <EPIT1_Init+0x130>
878016ac:	e5933000 	ldr	r3, [r3]
878016b0:	e59f2100 	ldr	r2, [pc, #256]	@ 878017b8 <EPIT1_Init+0x130>
878016b4:	e3833401 	orr	r3, r3, #16777216	@ 0x1000000
878016b8:	e5823000 	str	r3, [r2]
878016bc:	e59f30f4 	ldr	r3, [pc, #244]	@ 878017b8 <EPIT1_Init+0x130>
878016c0:	e5932000 	ldr	r2, [r3]
878016c4:	e51b3018 	ldr	r3, [fp, #-24]	@ 0xffffffe8
878016c8:	e1a03203 	lsl	r3, r3, #4
878016cc:	e6ff3073 	uxth	r3, r3
878016d0:	e59f10e0 	ldr	r1, [pc, #224]	@ 878017b8 <EPIT1_Init+0x130>
878016d4:	e1823003 	orr	r3, r2, r3
878016d8:	e5813000 	str	r3, [r1]
878016dc:	e59f30d4 	ldr	r3, [pc, #212]	@ 878017b8 <EPIT1_Init+0x130>
878016e0:	e5933000 	ldr	r3, [r3]
878016e4:	e59f20cc 	ldr	r2, [pc, #204]	@ 878017b8 <EPIT1_Init+0x130>
878016e8:	e3833008 	orr	r3, r3, #8
878016ec:	e5823000 	str	r3, [r2]
878016f0:	e59f30c0 	ldr	r3, [pc, #192]	@ 878017b8 <EPIT1_Init+0x130>
878016f4:	e5933000 	ldr	r3, [r3]
878016f8:	e59f20b8 	ldr	r2, [pc, #184]	@ 878017b8 <EPIT1_Init+0x130>
878016fc:	e3833002 	orr	r3, r3, #2
87801700:	e5823000 	str	r3, [r2]
87801704:	e59f30ac 	ldr	r3, [pc, #172]	@ 878017b8 <EPIT1_Init+0x130>
87801708:	e5933000 	ldr	r3, [r3]
8780170c:	e59f20a4 	ldr	r2, [pc, #164]	@ 878017b8 <EPIT1_Init+0x130>
87801710:	e3833004 	orr	r3, r3, #4
87801714:	e5823000 	str	r3, [r2]
87801718:	e59f2098 	ldr	r2, [pc, #152]	@ 878017b8 <EPIT1_Init+0x130>
8780171c:	e51b301c 	ldr	r3, [fp, #-28]	@ 0xffffffe4
87801720:	e5823008 	str	r3, [r2, #8]
87801724:	e59f308c 	ldr	r3, [pc, #140]	@ 878017b8 <EPIT1_Init+0x130>
87801728:	e3a02000 	mov	r2, #0
8780172c:	e583200c 	str	r2, [r3, #12]
87801730:	e3a03058 	mov	r3, #88	@ 0x58
87801734:	e50b3010 	str	r3, [fp, #-16]
87801738:	ee9f3f10 	mrc	15, 4, r3, cr15, cr0, {0}
8780173c:	e50b300c 	str	r3, [fp, #-12]
87801740:	e51b300c 	ldr	r3, [fp, #-12]
87801744:	e1a00000 	nop			@ (mov r0, r0)
87801748:	e1a03823 	lsr	r3, r3, #16
8780174c:	e1a03803 	lsl	r3, r3, #16
87801750:	e50b3008 	str	r3, [fp, #-8]
87801754:	e51b3010 	ldr	r3, [fp, #-16]
87801758:	e203301f 	and	r3, r3, #31
8780175c:	e51b2010 	ldr	r2, [fp, #-16]
87801760:	e1a022a2 	lsr	r2, r2, #5
87801764:	e3a01001 	mov	r1, #1
87801768:	e1a01311 	lsl	r1, r1, r3
8780176c:	e51b3008 	ldr	r3, [fp, #-8]
87801770:	e2822d11 	add	r2, r2, #1088	@ 0x440
87801774:	e7831102 	str	r1, [r3, r2, lsl #2]
87801778:	e1a00000 	nop			@ (mov r0, r0)
8780177c:	e3a02000 	mov	r2, #0
87801780:	e3a01058 	mov	r1, #88	@ 0x58
87801784:	e59f3030 	ldr	r3, [pc, #48]	@ 878017bc <EPIT1_Init+0x134>
87801788:	e08f3003 	add	r3, pc, r3
8780178c:	e1a00003 	mov	r0, r3
87801790:	eb00017c 	bl	87801d88 <IRQInt_Handler_Init>
87801794:	e59f301c 	ldr	r3, [pc, #28]	@ 878017b8 <EPIT1_Init+0x130>
87801798:	e5933000 	ldr	r3, [r3]
8780179c:	e59f2014 	ldr	r2, [pc, #20]	@ 878017b8 <EPIT1_Init+0x130>
878017a0:	e3833001 	orr	r3, r3, #1
878017a4:	e5823000 	str	r3, [r2]
878017a8:	ea000000 	b	878017b0 <EPIT1_Init+0x128>
878017ac:	e1a00000 	nop			@ (mov r0, r0)
878017b0:	e24bd004 	sub	sp, fp, #4
878017b4:	e8bd8800 	pop	{fp, pc}
878017b8:	020d0000 	andeq	r0, sp, #0
878017bc:	00000030 	andeq	r0, r0, r0, lsr r0

878017c0 <EPIT1_Int_Handler>:
878017c0:	e92d4800 	push	{fp, lr}
878017c4:	e28db004 	add	fp, sp, #4
878017c8:	e24dd008 	sub	sp, sp, #8
878017cc:	e50b0008 	str	r0, [fp, #-8]
878017d0:	e50b100c 	str	r1, [fp, #-12]
878017d4:	e59f3030 	ldr	r3, [pc, #48]	@ 8780180c <EPIT1_Int_Handler+0x4c>
878017d8:	e5933004 	ldr	r3, [r3, #4]
878017dc:	e2033001 	and	r3, r3, #1
878017e0:	e3530000 	cmp	r3, #0
878017e4:	0a000005 	beq	87801800 <EPIT1_Int_Handler+0x40>
878017e8:	eb000288 	bl	87802210 <LED_Switch>
878017ec:	e59f3018 	ldr	r3, [pc, #24]	@ 8780180c <EPIT1_Int_Handler+0x4c>
878017f0:	e5933004 	ldr	r3, [r3, #4]
878017f4:	e59f2010 	ldr	r2, [pc, #16]	@ 8780180c <EPIT1_Int_Handler+0x4c>
878017f8:	e3833001 	orr	r3, r3, #1
878017fc:	e5823004 	str	r3, [r2, #4]
87801800:	e1a00000 	nop			@ (mov r0, r0)
87801804:	e24bd004 	sub	sp, fp, #4
87801808:	e8bd8800 	pop	{fp, pc}
8780180c:	020d0000 	andeq	r0, sp, #0

87801810 <EPIT1_Clear>:
87801810:	e52db004 	push	{fp}		@ (str fp, [sp, #-4]!)
87801814:	e28db000 	add	fp, sp, #0
87801818:	e59f3028 	ldr	r3, [pc, #40]	@ 87801848 <EPIT1_Clear+0x38>
8780181c:	e5933000 	ldr	r3, [r3]
87801820:	e59f2020 	ldr	r2, [pc, #32]	@ 87801848 <EPIT1_Clear+0x38>
87801824:	e3c33001 	bic	r3, r3, #1
87801828:	e5823000 	str	r3, [r2]
8780182c:	e59f3014 	ldr	r3, [pc, #20]	@ 87801848 <EPIT1_Clear+0x38>
87801830:	e3a02000 	mov	r2, #0
87801834:	e5832000 	str	r2, [r3]
87801838:	e1a00000 	nop			@ (mov r0, r0)
8780183c:	e28bd000 	add	sp, fp, #0
87801840:	e49db004 	pop	{fp}		@ (ldr fp, [sp], #4)
87801844:	e12fff1e 	bx	lr
87801848:	020d0000 	andeq	r0, sp, #0

8780184c <EPIT1_Start>:
8780184c:	e52db004 	push	{fp}		@ (str fp, [sp, #-4]!)
87801850:	e28db000 	add	fp, sp, #0
87801854:	e24dd00c 	sub	sp, sp, #12
87801858:	e50b0008 	str	r0, [fp, #-8]
8780185c:	e59f30a0 	ldr	r3, [pc, #160]	@ 87801904 <EPIT1_Start+0xb8>
87801860:	e5933000 	ldr	r3, [r3]
87801864:	e59f2098 	ldr	r2, [pc, #152]	@ 87801904 <EPIT1_Start+0xb8>
87801868:	e3c33001 	bic	r3, r3, #1
8780186c:	e5823000 	str	r3, [r2]
87801870:	e59f308c 	ldr	r3, [pc, #140]	@ 87801904 <EPIT1_Start+0xb8>
87801874:	e3a02000 	mov	r2, #0
87801878:	e5832000 	str	r2, [r3]
8780187c:	e59f3080 	ldr	r3, [pc, #128]	@ 87801904 <EPIT1_Start+0xb8>
87801880:	e59f207c 	ldr	r2, [pc, #124]	@ 87801904 <EPIT1_Start+0xb8>
87801884:	e5933000 	ldr	r3, [r3]
87801888:	e5823000 	str	r3, [r2]
8780188c:	e59f3070 	ldr	r3, [pc, #112]	@ 87801904 <EPIT1_Start+0xb8>
87801890:	e5933000 	ldr	r3, [r3]
87801894:	e59f2068 	ldr	r2, [pc, #104]	@ 87801904 <EPIT1_Start+0xb8>
87801898:	e3833008 	orr	r3, r3, #8
8780189c:	e5823000 	str	r3, [r2]
878018a0:	e59f305c 	ldr	r3, [pc, #92]	@ 87801904 <EPIT1_Start+0xb8>
878018a4:	e5933000 	ldr	r3, [r3]
878018a8:	e59f2054 	ldr	r2, [pc, #84]	@ 87801904 <EPIT1_Start+0xb8>
878018ac:	e3833002 	orr	r3, r3, #2
878018b0:	e5823000 	str	r3, [r2]
878018b4:	e59f3048 	ldr	r3, [pc, #72]	@ 87801904 <EPIT1_Start+0xb8>
878018b8:	e5933000 	ldr	r3, [r3]
878018bc:	e59f2040 	ldr	r2, [pc, #64]	@ 87801904 <EPIT1_Start+0xb8>
878018c0:	e3833004 	orr	r3, r3, #4
878018c4:	e5823000 	str	r3, [r2]
878018c8:	e59f2034 	ldr	r2, [pc, #52]	@ 87801904 <EPIT1_Start+0xb8>
878018cc:	e51b3008 	ldr	r3, [fp, #-8]
878018d0:	e5823008 	str	r3, [r2, #8]
878018d4:	e59f3028 	ldr	r3, [pc, #40]	@ 87801904 <EPIT1_Start+0xb8>
878018d8:	e3a02000 	mov	r2, #0
878018dc:	e583200c 	str	r2, [r3, #12]
878018e0:	e59f301c 	ldr	r3, [pc, #28]	@ 87801904 <EPIT1_Start+0xb8>
878018e4:	e5933000 	ldr	r3, [r3]
878018e8:	e59f2014 	ldr	r2, [pc, #20]	@ 87801904 <EPIT1_Start+0xb8>
878018ec:	e3833001 	orr	r3, r3, #1
878018f0:	e5823000 	str	r3, [r2]
878018f4:	e1a00000 	nop			@ (mov r0, r0)
878018f8:	e28bd000 	add	sp, fp, #0
878018fc:	e49db004 	pop	{fp}		@ (ldr fp, [sp], #4)
87801900:	e12fff1e 	bx	lr
87801904:	020d0000 	andeq	r0, sp, #0

87801908 <EPIT2_Init>:
87801908:	e92d4800 	push	{fp, lr}
8780190c:	e28db004 	add	fp, sp, #4
87801910:	e24dd018 	sub	sp, sp, #24
87801914:	e50b0018 	str	r0, [fp, #-24]	@ 0xffffffe8
87801918:	e50b101c 	str	r1, [fp, #-28]	@ 0xffffffe4
8780191c:	e51b3018 	ldr	r3, [fp, #-24]	@ 0xffffffe8
87801920:	e3530a01 	cmp	r3, #4096	@ 0x1000
87801924:	2a00003b 	bcs	87801a18 <EPIT2_Init+0x110>
87801928:	e59f30f4 	ldr	r3, [pc, #244]	@ 87801a24 <EPIT2_Init+0x11c>
8780192c:	e5933000 	ldr	r3, [r3]
87801930:	e59f20ec 	ldr	r2, [pc, #236]	@ 87801a24 <EPIT2_Init+0x11c>
87801934:	e3833401 	orr	r3, r3, #16777216	@ 0x1000000
87801938:	e5823000 	str	r3, [r2]
8780193c:	e59f30e0 	ldr	r3, [pc, #224]	@ 87801a24 <EPIT2_Init+0x11c>
87801940:	e5932000 	ldr	r2, [r3]
87801944:	e51b3018 	ldr	r3, [fp, #-24]	@ 0xffffffe8
87801948:	e1a03203 	lsl	r3, r3, #4
8780194c:	e6ff3073 	uxth	r3, r3
87801950:	e59f10cc 	ldr	r1, [pc, #204]	@ 87801a24 <EPIT2_Init+0x11c>
87801954:	e1823003 	orr	r3, r2, r3
87801958:	e5813000 	str	r3, [r1]
8780195c:	e59f30c0 	ldr	r3, [pc, #192]	@ 87801a24 <EPIT2_Init+0x11c>
87801960:	e5933000 	ldr	r3, [r3]
87801964:	e59f20b8 	ldr	r2, [pc, #184]	@ 87801a24 <EPIT2_Init+0x11c>
87801968:	e3833008 	orr	r3, r3, #8
8780196c:	e5823000 	str	r3, [r2]
87801970:	e59f30ac 	ldr	r3, [pc, #172]	@ 87801a24 <EPIT2_Init+0x11c>
87801974:	e5933000 	ldr	r3, [r3]
87801978:	e59f20a4 	ldr	r2, [pc, #164]	@ 87801a24 <EPIT2_Init+0x11c>
8780197c:	e3833002 	orr	r3, r3, #2
87801980:	e5823000 	str	r3, [r2]
87801984:	e59f3098 	ldr	r3, [pc, #152]	@ 87801a24 <EPIT2_Init+0x11c>
87801988:	e5933000 	ldr	r3, [r3]
8780198c:	e59f2090 	ldr	r2, [pc, #144]	@ 87801a24 <EPIT2_Init+0x11c>
87801990:	e3833004 	orr	r3, r3, #4
87801994:	e5823000 	str	r3, [r2]
87801998:	e59f2084 	ldr	r2, [pc, #132]	@ 87801a24 <EPIT2_Init+0x11c>
8780199c:	e51b301c 	ldr	r3, [fp, #-28]	@ 0xffffffe4
878019a0:	e5823008 	str	r3, [r2, #8]
878019a4:	e59f3078 	ldr	r3, [pc, #120]	@ 87801a24 <EPIT2_Init+0x11c>
878019a8:	e3a02000 	mov	r2, #0
878019ac:	e583200c 	str	r2, [r3, #12]
878019b0:	e3a03059 	mov	r3, #89	@ 0x59
878019b4:	e50b3010 	str	r3, [fp, #-16]
878019b8:	ee9f3f10 	mrc	15, 4, r3, cr15, cr0, {0}
878019bc:	e50b300c 	str	r3, [fp, #-12]
878019c0:	e51b300c 	ldr	r3, [fp, #-12]
878019c4:	e1a00000 	nop			@ (mov r0, r0)
878019c8:	e1a03823 	lsr	r3, r3, #16
878019cc:	e1a03803 	lsl	r3, r3, #16
878019d0:	e50b3008 	str	r3, [fp, #-8]
878019d4:	e51b3010 	ldr	r3, [fp, #-16]
878019d8:	e203301f 	and	r3, r3, #31
878019dc:	e51b2010 	ldr	r2, [fp, #-16]
878019e0:	e1a022a2 	lsr	r2, r2, #5
878019e4:	e3a01001 	mov	r1, #1
878019e8:	e1a01311 	lsl	r1, r1, r3
878019ec:	e51b3008 	ldr	r3, [fp, #-8]
878019f0:	e2822d11 	add	r2, r2, #1088	@ 0x440
878019f4:	e7831102 	str	r1, [r3, r2, lsl #2]
878019f8:	e1a00000 	nop			@ (mov r0, r0)
878019fc:	e3a02000 	mov	r2, #0
87801a00:	e3a01059 	mov	r1, #89	@ 0x59
87801a04:	e59f301c 	ldr	r3, [pc, #28]	@ 87801a28 <EPIT2_Init+0x120>
87801a08:	e08f3003 	add	r3, pc, r3
87801a0c:	e1a00003 	mov	r0, r3
87801a10:	eb0000dc 	bl	87801d88 <IRQInt_Handler_Init>
87801a14:	ea000000 	b	87801a1c <EPIT2_Init+0x114>
87801a18:	e1a00000 	nop			@ (mov r0, r0)
87801a1c:	e24bd004 	sub	sp, fp, #4
87801a20:	e8bd8800 	pop	{fp, pc}
87801a24:	020d4000 	andeq	r4, sp, #0
87801a28:	00000040 	andeq	r0, r0, r0, asr #32

87801a2c <test>:
87801a2c:	e92d4800 	push	{fp, lr}
87801a30:	e28db004 	add	fp, sp, #4
87801a34:	ebfffdc6 	bl	87801154 <Beep_ON>
87801a38:	e3a00064 	mov	r0, #100	@ 0x64
87801a3c:	eb000082 	bl	87801c4c <delay>
87801a40:	ebfffdcf 	bl	87801184 <Beep_OFF>
87801a44:	e1a00000 	nop			@ (mov r0, r0)
87801a48:	e1a00003 	mov	r0, r3
87801a4c:	e8bd8800 	pop	{fp, pc}

87801a50 <EPIT2_Int_Handler>:
87801a50:	e92d4800 	push	{fp, lr}
87801a54:	e28db004 	add	fp, sp, #4
87801a58:	e24dd010 	sub	sp, sp, #16
87801a5c:	e50b0010 	str	r0, [fp, #-16]
87801a60:	e50b1014 	str	r1, [fp, #-20]	@ 0xffffffec
87801a64:	e59f307c 	ldr	r3, [pc, #124]	@ 87801ae8 <EPIT2_Int_Handler+0x98>
87801a68:	e5933004 	ldr	r3, [r3, #4]
87801a6c:	e2033001 	and	r3, r3, #1
87801a70:	e3530000 	cmp	r3, #0
87801a74:	0a000018 	beq	87801adc <EPIT2_Int_Handler+0x8c>
87801a78:	eb00001e 	bl	87801af8 <EPIT2_Clear>
87801a7c:	e3a03000 	mov	r3, #0
87801a80:	e50b3008 	str	r3, [fp, #-8]
87801a84:	e59f3060 	ldr	r3, [pc, #96]	@ 87801aec <EPIT2_Int_Handler+0x9c>
87801a88:	e08f3003 	add	r3, pc, r3
87801a8c:	e1a00003 	mov	r0, r3
87801a90:	eb000299 	bl	878024fc <_puts>
87801a94:	e59f3054 	ldr	r3, [pc, #84]	@ 87801af0 <EPIT2_Int_Handler+0xa0>
87801a98:	e5933000 	ldr	r3, [r3]
87801a9c:	e2033701 	and	r3, r3, #262144	@ 0x40000
87801aa0:	e3530000 	cmp	r3, #0
87801aa4:	1a000007 	bne	87801ac8 <EPIT2_Int_Handler+0x78>
87801aa8:	e59f3044 	ldr	r3, [pc, #68]	@ 87801af4 <EPIT2_Int_Handler+0xa4>
87801aac:	e08f3003 	add	r3, pc, r3
87801ab0:	e1a00003 	mov	r0, r3
87801ab4:	eb000290 	bl	878024fc <_puts>
87801ab8:	ebfffda5 	bl	87801154 <Beep_ON>
87801abc:	e3a00064 	mov	r0, #100	@ 0x64
87801ac0:	eb000061 	bl	87801c4c <delay>
87801ac4:	ebfffdae 	bl	87801184 <Beep_OFF>
87801ac8:	e59f3018 	ldr	r3, [pc, #24]	@ 87801ae8 <EPIT2_Int_Handler+0x98>
87801acc:	e5933004 	ldr	r3, [r3, #4]
87801ad0:	e59f2010 	ldr	r2, [pc, #16]	@ 87801ae8 <EPIT2_Int_Handler+0x98>
87801ad4:	e3833001 	orr	r3, r3, #1
87801ad8:	e5823004 	str	r3, [r2, #4]
87801adc:	e1a00000 	nop			@ (mov r0, r0)
87801ae0:	e24bd004 	sub	sp, fp, #4
87801ae4:	e8bd8800 	pop	{fp, pc}
87801ae8:	020d4000 	andeq	r4, sp, #0
87801aec:	00000fe8 	andeq	r0, r0, r8, ror #31
87801af0:	0209c000 	andeq	ip, r9, #0
87801af4:	00000fdc 	ldrdeq	r0, [r0], -ip

87801af8 <EPIT2_Clear>:
87801af8:	e52db004 	push	{fp}		@ (str fp, [sp, #-4]!)
87801afc:	e28db000 	add	fp, sp, #0
87801b00:	e59f301c 	ldr	r3, [pc, #28]	@ 87801b24 <EPIT2_Clear+0x2c>
87801b04:	e5933000 	ldr	r3, [r3]
87801b08:	e59f2014 	ldr	r2, [pc, #20]	@ 87801b24 <EPIT2_Clear+0x2c>
87801b0c:	e3c33001 	bic	r3, r3, #1
87801b10:	e5823000 	str	r3, [r2]
87801b14:	e1a00000 	nop			@ (mov r0, r0)
87801b18:	e28bd000 	add	sp, fp, #0
87801b1c:	e49db004 	pop	{fp}		@ (ldr fp, [sp], #4)
87801b20:	e12fff1e 	bx	lr
87801b24:	020d4000 	andeq	r4, sp, #0

87801b28 <EPIT2_Start>:
87801b28:	e52db004 	push	{fp}		@ (str fp, [sp, #-4]!)
87801b2c:	e28db000 	add	fp, sp, #0
87801b30:	e24dd00c 	sub	sp, sp, #12
87801b34:	e50b0008 	str	r0, [fp, #-8]
87801b38:	e59f3048 	ldr	r3, [pc, #72]	@ 87801b88 <EPIT2_Start+0x60>
87801b3c:	e5933000 	ldr	r3, [r3]
87801b40:	e59f2040 	ldr	r2, [pc, #64]	@ 87801b88 <EPIT2_Start+0x60>
87801b44:	e3c33001 	bic	r3, r3, #1
87801b48:	e5823000 	str	r3, [r2]
87801b4c:	e59f2034 	ldr	r2, [pc, #52]	@ 87801b88 <EPIT2_Start+0x60>
87801b50:	e51b3008 	ldr	r3, [fp, #-8]
87801b54:	e5823008 	str	r3, [r2, #8]
87801b58:	e59f3028 	ldr	r3, [pc, #40]	@ 87801b88 <EPIT2_Start+0x60>
87801b5c:	e3a02000 	mov	r2, #0
87801b60:	e583200c 	str	r2, [r3, #12]
87801b64:	e59f301c 	ldr	r3, [pc, #28]	@ 87801b88 <EPIT2_Start+0x60>
87801b68:	e5933000 	ldr	r3, [r3]
87801b6c:	e59f2014 	ldr	r2, [pc, #20]	@ 87801b88 <EPIT2_Start+0x60>
87801b70:	e3833001 	orr	r3, r3, #1
87801b74:	e5823000 	str	r3, [r2]
87801b78:	e1a00000 	nop			@ (mov r0, r0)
87801b7c:	e28bd000 	add	sp, fp, #0
87801b80:	e49db004 	pop	{fp}		@ (ldr fp, [sp], #4)
87801b84:	e12fff1e 	bx	lr
87801b88:	020d4000 	andeq	r4, sp, #0

87801b8c <EPIT2_Start_ms>:
87801b8c:	e52db004 	push	{fp}		@ (str fp, [sp, #-4]!)
87801b90:	e28db000 	add	fp, sp, #0
87801b94:	e24dd00c 	sub	sp, sp, #12
87801b98:	e50b0008 	str	r0, [fp, #-8]
87801b9c:	e59f3068 	ldr	r3, [pc, #104]	@ 87801c0c <EPIT2_Start_ms+0x80>
87801ba0:	e5933000 	ldr	r3, [r3]
87801ba4:	e59f2060 	ldr	r2, [pc, #96]	@ 87801c0c <EPIT2_Start_ms+0x80>
87801ba8:	e3c33001 	bic	r3, r3, #1
87801bac:	e5823000 	str	r3, [r2]
87801bb0:	e59f1054 	ldr	r1, [pc, #84]	@ 87801c0c <EPIT2_Start_ms+0x80>
87801bb4:	e51b2008 	ldr	r2, [fp, #-8]
87801bb8:	e1a03002 	mov	r3, r2
87801bbc:	e1a03283 	lsl	r3, r3, #5
87801bc0:	e0433002 	sub	r3, r3, r2
87801bc4:	e1a03103 	lsl	r3, r3, #2
87801bc8:	e0833002 	add	r3, r3, r2
87801bcc:	e1a02283 	lsl	r2, r3, #5
87801bd0:	e0833002 	add	r3, r3, r2
87801bd4:	e1a03203 	lsl	r3, r3, #4
87801bd8:	e5813008 	str	r3, [r1, #8]
87801bdc:	e59f3028 	ldr	r3, [pc, #40]	@ 87801c0c <EPIT2_Start_ms+0x80>
87801be0:	e3a02000 	mov	r2, #0
87801be4:	e583200c 	str	r2, [r3, #12]
87801be8:	e59f301c 	ldr	r3, [pc, #28]	@ 87801c0c <EPIT2_Start_ms+0x80>
87801bec:	e5933000 	ldr	r3, [r3]
87801bf0:	e59f2014 	ldr	r2, [pc, #20]	@ 87801c0c <EPIT2_Start_ms+0x80>
87801bf4:	e3833001 	orr	r3, r3, #1
87801bf8:	e5823000 	str	r3, [r2]
87801bfc:	e1a00000 	nop			@ (mov r0, r0)
87801c00:	e28bd000 	add	sp, fp, #0
87801c04:	e49db004 	pop	{fp}		@ (ldr fp, [sp], #4)
87801c08:	e12fff1e 	bx	lr
87801c0c:	020d4000 	andeq	r4, sp, #0

87801c10 <delay_short>:
87801c10:	e52db004 	push	{fp}		@ (str fp, [sp, #-4]!)
87801c14:	e28db000 	add	fp, sp, #0
87801c18:	e24dd00c 	sub	sp, sp, #12
87801c1c:	e50b0008 	str	r0, [fp, #-8]
87801c20:	e1a00000 	nop			@ (mov r0, r0)
87801c24:	e51b3008 	ldr	r3, [fp, #-8]
87801c28:	e2432001 	sub	r2, r3, #1
87801c2c:	e50b2008 	str	r2, [fp, #-8]
87801c30:	e3530000 	cmp	r3, #0
87801c34:	1afffffa 	bne	87801c24 <delay_short+0x14>
87801c38:	e1a00000 	nop			@ (mov r0, r0)
87801c3c:	e1a00000 	nop			@ (mov r0, r0)
87801c40:	e28bd000 	add	sp, fp, #0
87801c44:	e49db004 	pop	{fp}		@ (ldr fp, [sp], #4)
87801c48:	e12fff1e 	bx	lr

87801c4c <delay>:
87801c4c:	e92d4800 	push	{fp, lr}
87801c50:	e28db004 	add	fp, sp, #4
87801c54:	e24dd008 	sub	sp, sp, #8
87801c58:	e50b0008 	str	r0, [fp, #-8]
87801c5c:	ea000001 	b	87801c68 <delay+0x1c>
87801c60:	e59f0024 	ldr	r0, [pc, #36]	@ 87801c8c <delay+0x40>
87801c64:	ebffffe9 	bl	87801c10 <delay_short>
87801c68:	e51b3008 	ldr	r3, [fp, #-8]
87801c6c:	e2432001 	sub	r2, r3, #1
87801c70:	e50b2008 	str	r2, [fp, #-8]
87801c74:	e3530000 	cmp	r3, #0
87801c78:	1afffff8 	bne	87801c60 <delay+0x14>
87801c7c:	e1a00000 	nop			@ (mov r0, r0)
87801c80:	e1a00000 	nop			@ (mov r0, r0)
87801c84:	e24bd004 	sub	sp, fp, #4
87801c88:	e8bd8800 	pop	{fp, pc}
87801c8c:	000007ff 	strdeq	r0, [r0], -pc	@ <UNPREDICTABLE>

87801c90 <Int_Init>:
87801c90:	e92d4800 	push	{fp, lr}
87801c94:	e28db004 	add	fp, sp, #4
87801c98:	e24dd018 	sub	sp, sp, #24
87801c9c:	ee9f3f10 	mrc	15, 4, r3, cr15, cr0, {0}
87801ca0:	e50b3014 	str	r3, [fp, #-20]	@ 0xffffffec
87801ca4:	e51b3014 	ldr	r3, [fp, #-20]	@ 0xffffffec
87801ca8:	e1a00000 	nop			@ (mov r0, r0)
87801cac:	e1a03823 	lsr	r3, r3, #16
87801cb0:	e1a03803 	lsl	r3, r3, #16
87801cb4:	e50b3010 	str	r3, [fp, #-16]
87801cb8:	e51b3010 	ldr	r3, [fp, #-16]
87801cbc:	e2833a01 	add	r3, r3, #4096	@ 0x1000
87801cc0:	e5933004 	ldr	r3, [r3, #4]
87801cc4:	e203301f 	and	r3, r3, #31
87801cc8:	e2833001 	add	r3, r3, #1
87801ccc:	e50b300c 	str	r3, [fp, #-12]
87801cd0:	e3a03000 	mov	r3, #0
87801cd4:	e50b3008 	str	r3, [fp, #-8]
87801cd8:	ea000007 	b	87801cfc <Int_Init+0x6c>
87801cdc:	e51b3010 	ldr	r3, [fp, #-16]
87801ce0:	e51b2008 	ldr	r2, [fp, #-8]
87801ce4:	e2822e46 	add	r2, r2, #1120	@ 0x460
87801ce8:	e3e01000 	mvn	r1, #0
87801cec:	e7831102 	str	r1, [r3, r2, lsl #2]
87801cf0:	e51b3008 	ldr	r3, [fp, #-8]
87801cf4:	e2833001 	add	r3, r3, #1
87801cf8:	e50b3008 	str	r3, [fp, #-8]
87801cfc:	e51b200c 	ldr	r2, [fp, #-12]
87801d00:	e51b3008 	ldr	r3, [fp, #-8]
87801d04:	e1520003 	cmp	r2, r3
87801d08:	8afffff3 	bhi	87801cdc <Int_Init+0x4c>
87801d0c:	e51b3010 	ldr	r3, [fp, #-16]
87801d10:	e2833a02 	add	r3, r3, #8192	@ 0x2000
87801d14:	e1a02003 	mov	r2, r3
87801d18:	e3a030f8 	mov	r3, #248	@ 0xf8
87801d1c:	e5823004 	str	r3, [r2, #4]
87801d20:	e51b3010 	ldr	r3, [fp, #-16]
87801d24:	e2833a02 	add	r3, r3, #8192	@ 0x2000
87801d28:	e1a02003 	mov	r2, r3
87801d2c:	e3a03002 	mov	r3, #2
87801d30:	e5823008 	str	r3, [r2, #8]
87801d34:	e51b3010 	ldr	r3, [fp, #-16]
87801d38:	e2833a01 	add	r3, r3, #4096	@ 0x1000
87801d3c:	e1a02003 	mov	r2, r3
87801d40:	e3a03001 	mov	r3, #1
87801d44:	e5823000 	str	r3, [r2]
87801d48:	e51b3010 	ldr	r3, [fp, #-16]
87801d4c:	e2833a02 	add	r3, r3, #8192	@ 0x2000
87801d50:	e1a02003 	mov	r2, r3
87801d54:	e3a03001 	mov	r3, #1
87801d58:	e5823000 	str	r3, [r2]
87801d5c:	e1a00000 	nop			@ (mov r0, r0)
87801d60:	eb000020 	bl	87801de8 <IRQInt_Table_Init>
87801d64:	e59f3018 	ldr	r3, [pc, #24]	@ 87801d84 <Int_Init+0xf4>
87801d68:	e50b3018 	str	r3, [fp, #-24]	@ 0xffffffe8
87801d6c:	e51b3018 	ldr	r3, [fp, #-24]	@ 0xffffffe8
87801d70:	ee0c3f10 	mcr	15, 0, r3, cr12, cr0, {0}
87801d74:	e1a00000 	nop			@ (mov r0, r0)
87801d78:	e1a00000 	nop			@ (mov r0, r0)
87801d7c:	e24bd004 	sub	sp, fp, #4
87801d80:	e8bd8800 	pop	{fp, pc}
87801d84:	87800000 	strhi	r0, [r0, r0]

87801d88 <IRQInt_Handler_Init>:
87801d88:	e52db004 	push	{fp}		@ (str fp, [sp, #-4]!)
87801d8c:	e28db000 	add	fp, sp, #0
87801d90:	e24dd014 	sub	sp, sp, #20
87801d94:	e50b0008 	str	r0, [fp, #-8]
87801d98:	e50b100c 	str	r1, [fp, #-12]
87801d9c:	e50b2010 	str	r2, [fp, #-16]
87801da0:	e59f3038 	ldr	r3, [pc, #56]	@ 87801de0 <IRQInt_Handler_Init+0x58>
87801da4:	e08f3003 	add	r3, pc, r3
87801da8:	e51b200c 	ldr	r2, [fp, #-12]
87801dac:	e51b1008 	ldr	r1, [fp, #-8]
87801db0:	e7831182 	str	r1, [r3, r2, lsl #3]
87801db4:	e59f2028 	ldr	r2, [pc, #40]	@ 87801de4 <IRQInt_Handler_Init+0x5c>
87801db8:	e08f2002 	add	r2, pc, r2
87801dbc:	e51b300c 	ldr	r3, [fp, #-12]
87801dc0:	e1a03183 	lsl	r3, r3, #3
87801dc4:	e0823003 	add	r3, r2, r3
87801dc8:	e51b2010 	ldr	r2, [fp, #-16]
87801dcc:	e5832004 	str	r2, [r3, #4]
87801dd0:	e1a00000 	nop			@ (mov r0, r0)
87801dd4:	e28bd000 	add	sp, fp, #0
87801dd8:	e49db004 	pop	{fp}		@ (ldr fp, [sp], #4)
87801ddc:	e12fff1e 	bx	lr
87801de0:	00000d30 	andeq	r0, r0, r0, lsr sp
87801de4:	00000d1c 	andeq	r0, r0, ip, lsl sp

87801de8 <IRQInt_Table_Init>:
87801de8:	e92d4800 	push	{fp, lr}
87801dec:	e28db004 	add	fp, sp, #4
87801df0:	e24dd008 	sub	sp, sp, #8
87801df4:	e3a03000 	mov	r3, #0
87801df8:	e50b3008 	str	r3, [fp, #-8]
87801dfc:	ea000008 	b	87801e24 <IRQInt_Table_Init+0x3c>
87801e00:	e3a02000 	mov	r2, #0
87801e04:	e51b1008 	ldr	r1, [fp, #-8]
87801e08:	e59f3030 	ldr	r3, [pc, #48]	@ 87801e40 <IRQInt_Table_Init+0x58>
87801e0c:	e08f3003 	add	r3, pc, r3
87801e10:	e1a00003 	mov	r0, r3
87801e14:	ebffffdb 	bl	87801d88 <IRQInt_Handler_Init>
87801e18:	e51b3008 	ldr	r3, [fp, #-8]
87801e1c:	e2833001 	add	r3, r3, #1
87801e20:	e50b3008 	str	r3, [fp, #-8]
87801e24:	e51b3008 	ldr	r3, [fp, #-8]
87801e28:	e353009f 	cmp	r3, #159	@ 0x9f
87801e2c:	dafffff3 	ble	87801e00 <IRQInt_Table_Init+0x18>
87801e30:	e1a00000 	nop			@ (mov r0, r0)
87801e34:	e1a00000 	nop			@ (mov r0, r0)
87801e38:	e24bd004 	sub	sp, fp, #4
87801e3c:	e8bd8800 	pop	{fp, pc}
87801e40:	000000fc 	strdeq	r0, [r0], -ip

87801e44 <SystemIRQ_Handler>:
87801e44:	e92d4800 	push	{fp, lr}
87801e48:	e28db004 	add	fp, sp, #4
87801e4c:	e24dd010 	sub	sp, sp, #16
87801e50:	e50b0010 	str	r0, [fp, #-16]
87801e54:	e51b3010 	ldr	r3, [fp, #-16]
87801e58:	e1a03b03 	lsl	r3, r3, #22
87801e5c:	e1a03b23 	lsr	r3, r3, #22
87801e60:	e50b3008 	str	r3, [fp, #-8]
87801e64:	e51b3008 	ldr	r3, [fp, #-8]
87801e68:	e353001f 	cmp	r3, #31
87801e6c:	9a00001e 	bls	87801eec <SystemIRQ_Handler+0xa8>
87801e70:	e51b3008 	ldr	r3, [fp, #-8]
87801e74:	e353009f 	cmp	r3, #159	@ 0x9f
87801e78:	8a00001b 	bhi	87801eec <SystemIRQ_Handler+0xa8>
87801e7c:	e59f3074 	ldr	r3, [pc, #116]	@ 87801ef8 <SystemIRQ_Handler+0xb4>
87801e80:	e08f3003 	add	r3, pc, r3
87801e84:	e5933000 	ldr	r3, [r3]
87801e88:	e2832001 	add	r2, r3, #1
87801e8c:	e59f3068 	ldr	r3, [pc, #104]	@ 87801efc <SystemIRQ_Handler+0xb8>
87801e90:	e08f3003 	add	r3, pc, r3
87801e94:	e5832000 	str	r2, [r3]
87801e98:	e59f3060 	ldr	r3, [pc, #96]	@ 87801f00 <SystemIRQ_Handler+0xbc>
87801e9c:	e08f3003 	add	r3, pc, r3
87801ea0:	e51b2008 	ldr	r2, [fp, #-8]
87801ea4:	e7932182 	ldr	r2, [r3, r2, lsl #3]
87801ea8:	e59f1054 	ldr	r1, [pc, #84]	@ 87801f04 <SystemIRQ_Handler+0xc0>
87801eac:	e08f1001 	add	r1, pc, r1
87801eb0:	e51b3008 	ldr	r3, [fp, #-8]
87801eb4:	e1a03183 	lsl	r3, r3, #3
87801eb8:	e0813003 	add	r3, r1, r3
87801ebc:	e5933004 	ldr	r3, [r3, #4]
87801ec0:	e1a01003 	mov	r1, r3
87801ec4:	e51b0010 	ldr	r0, [fp, #-16]
87801ec8:	e12fff32 	blx	r2
87801ecc:	e59f3034 	ldr	r3, [pc, #52]	@ 87801f08 <SystemIRQ_Handler+0xc4>
87801ed0:	e08f3003 	add	r3, pc, r3
87801ed4:	e5933000 	ldr	r3, [r3]
87801ed8:	e2432001 	sub	r2, r3, #1
87801edc:	e59f3028 	ldr	r3, [pc, #40]	@ 87801f0c <SystemIRQ_Handler+0xc8>
87801ee0:	e08f3003 	add	r3, pc, r3
87801ee4:	e5832000 	str	r2, [r3]
87801ee8:	ea000000 	b	87801ef0 <SystemIRQ_Handler+0xac>
87801eec:	e1a00000 	nop			@ (mov r0, r0)
87801ef0:	e24bd004 	sub	sp, fp, #4
87801ef4:	e8bd8800 	pop	{fp, pc}
87801ef8:	00001154 	andeq	r1, r0, r4, asr r1
87801efc:	00001144 	andeq	r1, r0, r4, asr #2
87801f00:	00000c38 	andeq	r0, r0, r8, lsr ip
87801f04:	00000c28 	andeq	r0, r0, r8, lsr #24
87801f08:	00001104 	andeq	r1, r0, r4, lsl #2
87801f0c:	000010f4 	strdeq	r1, [r0], -r4

87801f10 <Default_Handler>:
87801f10:	e52db004 	push	{fp}		@ (str fp, [sp, #-4]!)
87801f14:	e28db000 	add	fp, sp, #0
87801f18:	e24dd00c 	sub	sp, sp, #12
87801f1c:	e50b0008 	str	r0, [fp, #-8]
87801f20:	e50b100c 	str	r1, [fp, #-12]
87801f24:	e1a00000 	nop			@ (mov r0, r0)
87801f28:	eafffffd 	b	87801f24 <Default_Handler+0x14>

87801f2c <Key_Init>:
87801f2c:	e92d4800 	push	{fp, lr}
87801f30:	e28db004 	add	fp, sp, #4
87801f34:	e24dd008 	sub	sp, sp, #8
87801f38:	e3a03000 	mov	r3, #0
87801f3c:	e58d3004 	str	r3, [sp, #4]
87801f40:	e59f3044 	ldr	r3, [pc, #68]	@ 87801f8c <Key_Init+0x60>
87801f44:	e58d3000 	str	r3, [sp]
87801f48:	e3a03000 	mov	r3, #0
87801f4c:	e3a02000 	mov	r2, #0
87801f50:	e3a01005 	mov	r1, #5
87801f54:	e59f0034 	ldr	r0, [pc, #52]	@ 87801f90 <Key_Init+0x64>
87801f58:	ebfffc2c 	bl	87801010 <IOMUXC_SetPinMux>
87801f5c:	e59f3030 	ldr	r3, [pc, #48]	@ 87801f94 <Key_Init+0x68>
87801f60:	e58d3004 	str	r3, [sp, #4]
87801f64:	e59f3020 	ldr	r3, [pc, #32]	@ 87801f8c <Key_Init+0x60>
87801f68:	e58d3000 	str	r3, [sp]
87801f6c:	e3a03000 	mov	r3, #0
87801f70:	e3a02000 	mov	r2, #0
87801f74:	e3a01005 	mov	r1, #5
87801f78:	e59f0010 	ldr	r0, [pc, #16]	@ 87801f90 <Key_Init+0x64>
87801f7c:	ebfffc3d 	bl	87801078 <IOMUXC_SetPinConfig>
87801f80:	e1a00000 	nop			@ (mov r0, r0)
87801f84:	e24bd004 	sub	sp, fp, #4
87801f88:	e8bd8800 	pop	{fp, pc}
87801f8c:	020e0318 	andeq	r0, lr, #24, 6	@ 0x60000000
87801f90:	020e008c 	andeq	r0, lr, #140	@ 0x8c
87801f94:	0000f080 	andeq	pc, r0, r0, lsl #1

87801f98 <Key_GetValue>:
87801f98:	e92d4800 	push	{fp, lr}
87801f9c:	e28db004 	add	fp, sp, #4
87801fa0:	e59f3044 	ldr	r3, [pc, #68]	@ 87801fec <Key_GetValue+0x54>
87801fa4:	e5933000 	ldr	r3, [r3]
87801fa8:	e2033701 	and	r3, r3, #262144	@ 0x40000
87801fac:	e3530000 	cmp	r3, #0
87801fb0:	1a00000a 	bne	87801fe0 <Key_GetValue+0x48>
87801fb4:	e3a0000a 	mov	r0, #10
87801fb8:	ebffff23 	bl	87801c4c <delay>
87801fbc:	e59f3028 	ldr	r3, [pc, #40]	@ 87801fec <Key_GetValue+0x54>
87801fc0:	e5933000 	ldr	r3, [r3]
87801fc4:	e2033701 	and	r3, r3, #262144	@ 0x40000
87801fc8:	e3530000 	cmp	r3, #0
87801fcc:	1a000001 	bne	87801fd8 <Key_GetValue+0x40>
87801fd0:	e3a03000 	mov	r3, #0
87801fd4:	ea000002 	b	87801fe4 <Key_GetValue+0x4c>
87801fd8:	e3a03001 	mov	r3, #1
87801fdc:	ea000000 	b	87801fe4 <Key_GetValue+0x4c>
87801fe0:	e3a03001 	mov	r3, #1
87801fe4:	e1a00003 	mov	r0, r3
87801fe8:	e8bd8800 	pop	{fp, pc}
87801fec:	0209c000 	andeq	ip, r9, #0

87801ff0 <GPIO1_IO18_Int_Init>:
87801ff0:	e92d4800 	push	{fp, lr}
87801ff4:	e28db004 	add	fp, sp, #4
87801ff8:	e24dd020 	sub	sp, sp, #32
87801ffc:	e3a03000 	mov	r3, #0
87802000:	e50b3010 	str	r3, [fp, #-16]
87802004:	e3a03004 	mov	r3, #4
87802008:	e50b3008 	str	r3, [fp, #-8]
8780200c:	e3a01012 	mov	r1, #18
87802010:	e59f0094 	ldr	r0, [pc, #148]	@ 878020ac <GPIO1_IO18_Int_Init+0xbc>
87802014:	ebfffbda 	bl	87800f84 <GPIO_Disable_Int>
87802018:	e3a03012 	mov	r3, #18
8780201c:	e58d3000 	str	r3, [sp]
87802020:	e59f3084 	ldr	r3, [pc, #132]	@ 878020ac <GPIO1_IO18_Int_Init+0xbc>
87802024:	e24b2010 	sub	r2, fp, #16
87802028:	e8920007 	ldm	r2, {r0, r1, r2}
8780202c:	ebfffaa6 	bl	87800acc <GPIO_Init>
87802030:	e3a03063 	mov	r3, #99	@ 0x63
87802034:	e50b301c 	str	r3, [fp, #-28]	@ 0xffffffe4
87802038:	ee9f3f10 	mrc	15, 4, r3, cr15, cr0, {0}
8780203c:	e50b3018 	str	r3, [fp, #-24]	@ 0xffffffe8
87802040:	e51b3018 	ldr	r3, [fp, #-24]	@ 0xffffffe8
87802044:	e1a00000 	nop			@ (mov r0, r0)
87802048:	e1a03823 	lsr	r3, r3, #16
8780204c:	e1a03803 	lsl	r3, r3, #16
87802050:	e50b3014 	str	r3, [fp, #-20]	@ 0xffffffec
87802054:	e51b301c 	ldr	r3, [fp, #-28]	@ 0xffffffe4
87802058:	e203301f 	and	r3, r3, #31
8780205c:	e51b201c 	ldr	r2, [fp, #-28]	@ 0xffffffe4
87802060:	e1a022a2 	lsr	r2, r2, #5
87802064:	e3a01001 	mov	r1, #1
87802068:	e1a01311 	lsl	r1, r1, r3
8780206c:	e51b3014 	ldr	r3, [fp, #-20]	@ 0xffffffec
87802070:	e2822d11 	add	r2, r2, #1088	@ 0x440
87802074:	e7831102 	str	r1, [r3, r2, lsl #2]
87802078:	e1a00000 	nop			@ (mov r0, r0)
8780207c:	e3a02000 	mov	r2, #0
87802080:	e3a01063 	mov	r1, #99	@ 0x63
87802084:	e59f3024 	ldr	r3, [pc, #36]	@ 878020b0 <GPIO1_IO18_Int_Init+0xc0>
87802088:	e08f3003 	add	r3, pc, r3
8780208c:	e1a00003 	mov	r0, r3
87802090:	ebffff3c 	bl	87801d88 <IRQInt_Handler_Init>
87802094:	e3a01012 	mov	r1, #18
87802098:	e59f000c 	ldr	r0, [pc, #12]	@ 878020ac <GPIO1_IO18_Int_Init+0xbc>
8780209c:	ebfffba7 	bl	87800f40 <GPIO_Enable_Int>
878020a0:	e1a00000 	nop			@ (mov r0, r0)
878020a4:	e24bd004 	sub	sp, fp, #4
878020a8:	e8bd8800 	pop	{fp, pc}
878020ac:	0209c000 	andeq	ip, r9, #0
878020b0:	00000024 	andeq	r0, r0, r4, lsr #32

878020b4 <GPIO1_IO18_Int_Handler>:
878020b4:	e92d4800 	push	{fp, lr}
878020b8:	e28db004 	add	fp, sp, #4
878020bc:	e24dd008 	sub	sp, sp, #8
878020c0:	e50b0008 	str	r0, [fp, #-8]
878020c4:	e50b100c 	str	r1, [fp, #-12]
878020c8:	e59f3040 	ldr	r3, [pc, #64]	@ 87802110 <GPIO1_IO18_Int_Handler+0x5c>
878020cc:	e5933000 	ldr	r3, [r3]
878020d0:	e2033701 	and	r3, r3, #262144	@ 0x40000
878020d4:	e3530000 	cmp	r3, #0
878020d8:	1a000006 	bne	878020f8 <GPIO1_IO18_Int_Handler+0x44>
878020dc:	e59f3030 	ldr	r3, [pc, #48]	@ 87802114 <GPIO1_IO18_Int_Handler+0x60>
878020e0:	e08f3003 	add	r3, pc, r3
878020e4:	e1a00003 	mov	r0, r3
878020e8:	eb000103 	bl	878024fc <_puts>
878020ec:	ebfffe81 	bl	87801af8 <EPIT2_Clear>
878020f0:	e3a0000a 	mov	r0, #10
878020f4:	ebfffea4 	bl	87801b8c <EPIT2_Start_ms>
878020f8:	e3a01012 	mov	r1, #18
878020fc:	e59f000c 	ldr	r0, [pc, #12]	@ 87802110 <GPIO1_IO18_Int_Handler+0x5c>
87802100:	ebfffbb1 	bl	87800fcc <GPIO_Clear_Int_Flag>
87802104:	e1a00000 	nop			@ (mov r0, r0)
87802108:	e24bd004 	sub	sp, fp, #4
8780210c:	e8bd8800 	pop	{fp, pc}
87802110:	0209c000 	andeq	ip, r9, #0
87802114:	000009c0 	andeq	r0, r0, r0, asr #19

87802118 <LED_Init>:
87802118:	e92d4800 	push	{fp, lr}
8780211c:	e28db004 	add	fp, sp, #4
87802120:	e24dd008 	sub	sp, sp, #8
87802124:	e3a03000 	mov	r3, #0
87802128:	e58d3004 	str	r3, [sp, #4]
8780212c:	e59f306c 	ldr	r3, [pc, #108]	@ 878021a0 <LED_Init+0x88>
87802130:	e58d3000 	str	r3, [sp]
87802134:	e3a03000 	mov	r3, #0
87802138:	e3a02000 	mov	r2, #0
8780213c:	e3a01005 	mov	r1, #5
87802140:	e59f005c 	ldr	r0, [pc, #92]	@ 878021a4 <LED_Init+0x8c>
87802144:	ebfffbb1 	bl	87801010 <IOMUXC_SetPinMux>
87802148:	e59f3058 	ldr	r3, [pc, #88]	@ 878021a8 <LED_Init+0x90>
8780214c:	e58d3004 	str	r3, [sp, #4]
87802150:	e59f3048 	ldr	r3, [pc, #72]	@ 878021a0 <LED_Init+0x88>
87802154:	e58d3000 	str	r3, [sp]
87802158:	e3a03000 	mov	r3, #0
8780215c:	e3a02000 	mov	r2, #0
87802160:	e3a01005 	mov	r1, #5
87802164:	e59f0038 	ldr	r0, [pc, #56]	@ 878021a4 <LED_Init+0x8c>
87802168:	ebfffbc2 	bl	87801078 <IOMUXC_SetPinConfig>
8780216c:	e59f3038 	ldr	r3, [pc, #56]	@ 878021ac <LED_Init+0x94>
87802170:	e5933004 	ldr	r3, [r3, #4]
87802174:	e59f2030 	ldr	r2, [pc, #48]	@ 878021ac <LED_Init+0x94>
87802178:	e3833008 	orr	r3, r3, #8
8780217c:	e5823004 	str	r3, [r2, #4]
87802180:	e59f3024 	ldr	r3, [pc, #36]	@ 878021ac <LED_Init+0x94>
87802184:	e5933000 	ldr	r3, [r3]
87802188:	e59f201c 	ldr	r2, [pc, #28]	@ 878021ac <LED_Init+0x94>
8780218c:	e3833008 	orr	r3, r3, #8
87802190:	e5823000 	str	r3, [r2]
87802194:	e1a00000 	nop			@ (mov r0, r0)
87802198:	e24bd004 	sub	sp, fp, #4
8780219c:	e8bd8800 	pop	{fp, pc}
878021a0:	020e02f4 	andeq	r0, lr, #244, 4	@ 0x4000000f
878021a4:	020e0068 	andeq	r0, lr, #104	@ 0x68
878021a8:	000010b0 	strheq	r1, [r0], -r0
878021ac:	0209c000 	andeq	ip, r9, #0

878021b0 <LED_ON>:
878021b0:	e52db004 	push	{fp}		@ (str fp, [sp, #-4]!)
878021b4:	e28db000 	add	fp, sp, #0
878021b8:	e59f301c 	ldr	r3, [pc, #28]	@ 878021dc <LED_ON+0x2c>
878021bc:	e5933000 	ldr	r3, [r3]
878021c0:	e59f2014 	ldr	r2, [pc, #20]	@ 878021dc <LED_ON+0x2c>
878021c4:	e3c33008 	bic	r3, r3, #8
878021c8:	e5823000 	str	r3, [r2]
878021cc:	e1a00000 	nop			@ (mov r0, r0)
878021d0:	e28bd000 	add	sp, fp, #0
878021d4:	e49db004 	pop	{fp}		@ (ldr fp, [sp], #4)
878021d8:	e12fff1e 	bx	lr
878021dc:	0209c000 	andeq	ip, r9, #0

878021e0 <LED_OFF>:
878021e0:	e52db004 	push	{fp}		@ (str fp, [sp, #-4]!)
878021e4:	e28db000 	add	fp, sp, #0
878021e8:	e59f301c 	ldr	r3, [pc, #28]	@ 8780220c <LED_OFF+0x2c>
878021ec:	e5933000 	ldr	r3, [r3]
878021f0:	e59f2014 	ldr	r2, [pc, #20]	@ 8780220c <LED_OFF+0x2c>
878021f4:	e3833008 	orr	r3, r3, #8
878021f8:	e5823000 	str	r3, [r2]
878021fc:	e1a00000 	nop			@ (mov r0, r0)
87802200:	e28bd000 	add	sp, fp, #0
87802204:	e49db004 	pop	{fp}		@ (ldr fp, [sp], #4)
87802208:	e12fff1e 	bx	lr
8780220c:	0209c000 	andeq	ip, r9, #0

87802210 <LED_Switch>:
87802210:	e92d4800 	push	{fp, lr}
87802214:	e28db004 	add	fp, sp, #4
87802218:	e59f3020 	ldr	r3, [pc, #32]	@ 87802240 <LED_Switch+0x30>
8780221c:	e5933000 	ldr	r3, [r3]
87802220:	e2033008 	and	r3, r3, #8
87802224:	e3530000 	cmp	r3, #0
87802228:	0a000001 	beq	87802234 <LED_Switch+0x24>
8780222c:	ebffffdf 	bl	878021b0 <LED_ON>
87802230:	ea000000 	b	87802238 <LED_Switch+0x28>
87802234:	ebffffe9 	bl	878021e0 <LED_OFF>
87802238:	e1a00000 	nop			@ (mov r0, r0)
8780223c:	e8bd8800 	pop	{fp, pc}
87802240:	0209c000 	andeq	ip, r9, #0

87802244 <UART1_Init>:
87802244:	e92d4800 	push	{fp, lr}
87802248:	e28db004 	add	fp, sp, #4
8780224c:	eb00004d 	bl	87802388 <UART1_IO_Init>
87802250:	e59f00d8 	ldr	r0, [pc, #216]	@ 87802330 <UART1_Init+0xec>
87802254:	eb00007b 	bl	87802448 <UART_Disable>
87802258:	e59f00d0 	ldr	r0, [pc, #208]	@ 87802330 <UART1_Init+0xec>
8780225c:	eb000035 	bl	87802338 <UART_SoftReset>
87802260:	ebfffbbb 	bl	87801154 <Beep_ON>
87802264:	e3a00032 	mov	r0, #50	@ 0x32
87802268:	ebfffe77 	bl	87801c4c <delay>
8780226c:	ebfffbc4 	bl	87801184 <Beep_OFF>
87802270:	e59f30b8 	ldr	r3, [pc, #184]	@ 87802330 <UART1_Init+0xec>
87802274:	e3a02000 	mov	r2, #0
87802278:	e5832080 	str	r2, [r3, #128]	@ 0x80
8780227c:	e59f30ac 	ldr	r3, [pc, #172]	@ 87802330 <UART1_Init+0xec>
87802280:	e5933080 	ldr	r3, [r3, #128]	@ 0x80
87802284:	e59f20a4 	ldr	r2, [pc, #164]	@ 87802330 <UART1_Init+0xec>
87802288:	e3c33901 	bic	r3, r3, #16384	@ 0x4000
8780228c:	e5823080 	str	r3, [r2, #128]	@ 0x80
87802290:	e59f3098 	ldr	r3, [pc, #152]	@ 87802330 <UART1_Init+0xec>
87802294:	e5933084 	ldr	r3, [r3, #132]	@ 0x84
87802298:	e59f2090 	ldr	r2, [pc, #144]	@ 87802330 <UART1_Init+0xec>
8780229c:	e3833901 	orr	r3, r3, #16384	@ 0x4000
878022a0:	e5823084 	str	r3, [r2, #132]	@ 0x84
878022a4:	e59f3084 	ldr	r3, [pc, #132]	@ 87802330 <UART1_Init+0xec>
878022a8:	e5933084 	ldr	r3, [r3, #132]	@ 0x84
878022ac:	e59f207c 	ldr	r2, [pc, #124]	@ 87802330 <UART1_Init+0xec>
878022b0:	e3833020 	orr	r3, r3, #32
878022b4:	e5823084 	str	r3, [r2, #132]	@ 0x84
878022b8:	e59f3070 	ldr	r3, [pc, #112]	@ 87802330 <UART1_Init+0xec>
878022bc:	e5933084 	ldr	r3, [r3, #132]	@ 0x84
878022c0:	e59f2068 	ldr	r2, [pc, #104]	@ 87802330 <UART1_Init+0xec>
878022c4:	e3833004 	orr	r3, r3, #4
878022c8:	e5823084 	str	r3, [r2, #132]	@ 0x84
878022cc:	e59f305c 	ldr	r3, [pc, #92]	@ 87802330 <UART1_Init+0xec>
878022d0:	e5933084 	ldr	r3, [r3, #132]	@ 0x84
878022d4:	e59f2054 	ldr	r2, [pc, #84]	@ 87802330 <UART1_Init+0xec>
878022d8:	e3833002 	orr	r3, r3, #2
878022dc:	e5823084 	str	r3, [r2, #132]	@ 0x84
878022e0:	e59f3048 	ldr	r3, [pc, #72]	@ 87802330 <UART1_Init+0xec>
878022e4:	e5933088 	ldr	r3, [r3, #136]	@ 0x88
878022e8:	e59f2040 	ldr	r2, [pc, #64]	@ 87802330 <UART1_Init+0xec>
878022ec:	e3833004 	orr	r3, r3, #4
878022f0:	e5823088 	str	r3, [r2, #136]	@ 0x88
878022f4:	e59f3034 	ldr	r3, [pc, #52]	@ 87802330 <UART1_Init+0xec>
878022f8:	e5933090 	ldr	r3, [r3, #144]	@ 0x90
878022fc:	e59f202c 	ldr	r2, [pc, #44]	@ 87802330 <UART1_Init+0xec>
87802300:	e3833d0a 	orr	r3, r3, #640	@ 0x280
87802304:	e5823090 	str	r3, [r2, #144]	@ 0x90
87802308:	e59f3020 	ldr	r3, [pc, #32]	@ 87802330 <UART1_Init+0xec>
8780230c:	e3a02047 	mov	r2, #71	@ 0x47
87802310:	e58320a4 	str	r2, [r3, #164]	@ 0xa4
87802314:	e59f3014 	ldr	r3, [pc, #20]	@ 87802330 <UART1_Init+0xec>
87802318:	e59f2014 	ldr	r2, [pc, #20]	@ 87802334 <UART1_Init+0xf0>
8780231c:	e58320a8 	str	r2, [r3, #168]	@ 0xa8
87802320:	e59f0008 	ldr	r0, [pc, #8]	@ 87802330 <UART1_Init+0xec>
87802324:	eb000054 	bl	8780247c <UART_Enable>
87802328:	e1a00000 	nop			@ (mov r0, r0)
8780232c:	e8bd8800 	pop	{fp, pc}
87802330:	02020000 	andeq	r0, r2, #0
87802334:	00000c34 	andeq	r0, r0, r4, lsr ip

87802338 <UART_SoftReset>:
87802338:	e52db004 	push	{fp}		@ (str fp, [sp, #-4]!)
8780233c:	e28db000 	add	fp, sp, #0
87802340:	e24dd00c 	sub	sp, sp, #12
87802344:	e50b0008 	str	r0, [fp, #-8]
87802348:	e51b3008 	ldr	r3, [fp, #-8]
8780234c:	e5933084 	ldr	r3, [r3, #132]	@ 0x84
87802350:	e3c32001 	bic	r2, r3, #1
87802354:	e51b3008 	ldr	r3, [fp, #-8]
87802358:	e5832084 	str	r2, [r3, #132]	@ 0x84
8780235c:	e1a00000 	nop			@ (mov r0, r0)
87802360:	e51b3008 	ldr	r3, [fp, #-8]
87802364:	e5933084 	ldr	r3, [r3, #132]	@ 0x84
87802368:	e2033001 	and	r3, r3, #1
8780236c:	e3530000 	cmp	r3, #0
87802370:	0afffffa 	beq	87802360 <UART_SoftReset+0x28>
87802374:	e1a00000 	nop			@ (mov r0, r0)
87802378:	e1a00000 	nop			@ (mov r0, r0)
8780237c:	e28bd000 	add	sp, fp, #0
87802380:	e49db004 	pop	{fp}		@ (ldr fp, [sp], #4)
87802384:	e12fff1e 	bx	lr

87802388 <UART1_IO_Init>:
87802388:	e92d4800 	push	{fp, lr}
8780238c:	e28db004 	add	fp, sp, #4
87802390:	e24dd008 	sub	sp, sp, #8
87802394:	e3a03000 	mov	r3, #0
87802398:	e58d3004 	str	r3, [sp, #4]
8780239c:	e59f308c 	ldr	r3, [pc, #140]	@ 87802430 <UART1_IO_Init+0xa8>
878023a0:	e58d3000 	str	r3, [sp]
878023a4:	e3a03000 	mov	r3, #0
878023a8:	e3a02000 	mov	r2, #0
878023ac:	e3a01000 	mov	r1, #0
878023b0:	e59f007c 	ldr	r0, [pc, #124]	@ 87802434 <UART1_IO_Init+0xac>
878023b4:	ebfffb15 	bl	87801010 <IOMUXC_SetPinMux>
878023b8:	e3a03000 	mov	r3, #0
878023bc:	e58d3004 	str	r3, [sp, #4]
878023c0:	e59f3070 	ldr	r3, [pc, #112]	@ 87802438 <UART1_IO_Init+0xb0>
878023c4:	e58d3000 	str	r3, [sp]
878023c8:	e3a03003 	mov	r3, #3
878023cc:	e59f2068 	ldr	r2, [pc, #104]	@ 8780243c <UART1_IO_Init+0xb4>
878023d0:	e3a01000 	mov	r1, #0
878023d4:	e59f0064 	ldr	r0, [pc, #100]	@ 87802440 <UART1_IO_Init+0xb8>
878023d8:	ebfffb0c 	bl	87801010 <IOMUXC_SetPinMux>
878023dc:	e59f3060 	ldr	r3, [pc, #96]	@ 87802444 <UART1_IO_Init+0xbc>
878023e0:	e58d3004 	str	r3, [sp, #4]
878023e4:	e59f3044 	ldr	r3, [pc, #68]	@ 87802430 <UART1_IO_Init+0xa8>
878023e8:	e58d3000 	str	r3, [sp]
878023ec:	e3a03000 	mov	r3, #0
878023f0:	e3a02000 	mov	r2, #0
878023f4:	e3a01000 	mov	r1, #0
878023f8:	e59f0034 	ldr	r0, [pc, #52]	@ 87802434 <UART1_IO_Init+0xac>
878023fc:	ebfffb1d 	bl	87801078 <IOMUXC_SetPinConfig>
87802400:	e59f303c 	ldr	r3, [pc, #60]	@ 87802444 <UART1_IO_Init+0xbc>
87802404:	e58d3004 	str	r3, [sp, #4]
87802408:	e59f3028 	ldr	r3, [pc, #40]	@ 87802438 <UART1_IO_Init+0xb0>
8780240c:	e58d3000 	str	r3, [sp]
87802410:	e3a03003 	mov	r3, #3
87802414:	e59f2020 	ldr	r2, [pc, #32]	@ 8780243c <UART1_IO_Init+0xb4>
87802418:	e3a01000 	mov	r1, #0
8780241c:	e59f001c 	ldr	r0, [pc, #28]	@ 87802440 <UART1_IO_Init+0xb8>
87802420:	ebfffb14 	bl	87801078 <IOMUXC_SetPinConfig>
87802424:	e1a00000 	nop			@ (mov r0, r0)
87802428:	e24bd004 	sub	sp, fp, #4
8780242c:	e8bd8800 	pop	{fp, pc}
87802430:	020e0310 	andeq	r0, lr, #16, 6	@ 0x40000000
87802434:	020e0084 	andeq	r0, lr, #132	@ 0x84
87802438:	020e0314 	andeq	r0, lr, #20, 6	@ 0x50000000
8780243c:	020e0624 	andeq	r0, lr, #36, 12	@ 0x2400000
87802440:	020e0088 	andeq	r0, lr, #136	@ 0x88
87802444:	000010b0 	strheq	r1, [r0], -r0

87802448 <UART_Disable>:
87802448:	e52db004 	push	{fp}		@ (str fp, [sp, #-4]!)
8780244c:	e28db000 	add	fp, sp, #0
87802450:	e24dd00c 	sub	sp, sp, #12
87802454:	e50b0008 	str	r0, [fp, #-8]
87802458:	e51b3008 	ldr	r3, [fp, #-8]
8780245c:	e5933080 	ldr	r3, [r3, #128]	@ 0x80
87802460:	e3c32001 	bic	r2, r3, #1
87802464:	e51b3008 	ldr	r3, [fp, #-8]
87802468:	e5832080 	str	r2, [r3, #128]	@ 0x80
8780246c:	e1a00000 	nop			@ (mov r0, r0)
87802470:	e28bd000 	add	sp, fp, #0
87802474:	e49db004 	pop	{fp}		@ (ldr fp, [sp], #4)
87802478:	e12fff1e 	bx	lr

8780247c <UART_Enable>:
8780247c:	e52db004 	push	{fp}		@ (str fp, [sp, #-4]!)
87802480:	e28db000 	add	fp, sp, #0
87802484:	e24dd00c 	sub	sp, sp, #12
87802488:	e50b0008 	str	r0, [fp, #-8]
8780248c:	e51b3008 	ldr	r3, [fp, #-8]
87802490:	e5933080 	ldr	r3, [r3, #128]	@ 0x80
87802494:	e3832001 	orr	r2, r3, #1
87802498:	e51b3008 	ldr	r3, [fp, #-8]
8780249c:	e5832080 	str	r2, [r3, #128]	@ 0x80
878024a0:	e1a00000 	nop			@ (mov r0, r0)
878024a4:	e28bd000 	add	sp, fp, #0
878024a8:	e49db004 	pop	{fp}		@ (ldr fp, [sp], #4)
878024ac:	e12fff1e 	bx	lr

878024b0 <_putc>:
878024b0:	e52db004 	push	{fp}		@ (str fp, [sp, #-4]!)
878024b4:	e28db000 	add	fp, sp, #0
878024b8:	e24dd00c 	sub	sp, sp, #12
878024bc:	e1a03000 	mov	r3, r0
878024c0:	e54b3005 	strb	r3, [fp, #-5]
878024c4:	e1a00000 	nop			@ (mov r0, r0)
878024c8:	e59f3028 	ldr	r3, [pc, #40]	@ 878024f8 <_putc+0x48>
878024cc:	e5933098 	ldr	r3, [r3, #152]	@ 0x98
878024d0:	e2033008 	and	r3, r3, #8
878024d4:	e3530000 	cmp	r3, #0
878024d8:	0afffffa 	beq	878024c8 <_putc+0x18>
878024dc:	e59f2014 	ldr	r2, [pc, #20]	@ 878024f8 <_putc+0x48>
878024e0:	e55b3005 	ldrb	r3, [fp, #-5]
878024e4:	e5823040 	str	r3, [r2, #64]	@ 0x40
878024e8:	e1a00000 	nop			@ (mov r0, r0)
878024ec:	e28bd000 	add	sp, fp, #0
878024f0:	e49db004 	pop	{fp}		@ (ldr fp, [sp], #4)
878024f4:	e12fff1e 	bx	lr
878024f8:	02020000 	andeq	r0, r2, #0

878024fc <_puts>:
878024fc:	e92d4800 	push	{fp, lr}
87802500:	e28db004 	add	fp, sp, #4
87802504:	e24dd008 	sub	sp, sp, #8
87802508:	e50b0008 	str	r0, [fp, #-8]
8780250c:	ea000006 	b	8780252c <_puts+0x30>
87802510:	e51b3008 	ldr	r3, [fp, #-8]
87802514:	e5d33000 	ldrb	r3, [r3]
87802518:	e1a00003 	mov	r0, r3
8780251c:	ebffffe3 	bl	878024b0 <_putc>
87802520:	e51b3008 	ldr	r3, [fp, #-8]
87802524:	e2833001 	add	r3, r3, #1
87802528:	e50b3008 	str	r3, [fp, #-8]
8780252c:	e51b3008 	ldr	r3, [fp, #-8]
87802530:	e5d33000 	ldrb	r3, [r3]
87802534:	e3530000 	cmp	r3, #0
87802538:	1afffff4 	bne	87802510 <_puts+0x14>
8780253c:	e1a00000 	nop			@ (mov r0, r0)
87802540:	e1a00000 	nop			@ (mov r0, r0)
87802544:	e24bd004 	sub	sp, fp, #4
87802548:	e8bd8800 	pop	{fp, pc}

8780254c <_getc>:
8780254c:	e52db004 	push	{fp}		@ (str fp, [sp, #-4]!)
87802550:	e28db000 	add	fp, sp, #0
87802554:	e1a00000 	nop			@ (mov r0, r0)
87802558:	e59f3028 	ldr	r3, [pc, #40]	@ 87802588 <_getc+0x3c>
8780255c:	e5933098 	ldr	r3, [r3, #152]	@ 0x98
87802560:	e2033001 	and	r3, r3, #1
87802564:	e3530000 	cmp	r3, #0
87802568:	0afffffa 	beq	87802558 <_getc+0xc>
8780256c:	e59f3014 	ldr	r3, [pc, #20]	@ 87802588 <_getc+0x3c>
87802570:	e5933000 	ldr	r3, [r3]
87802574:	e6ef3073 	uxtb	r3, r3
87802578:	e1a00003 	mov	r0, r3
8780257c:	e28bd000 	add	sp, fp, #0
87802580:	e49db004 	pop	{fp}		@ (ldr fp, [sp], #4)
87802584:	e12fff1e 	bx	lr
87802588:	02020000 	andeq	r0, r2, #0

8780258c <raise>:
8780258c:	e52db004 	push	{fp}		@ (str fp, [sp, #-4]!)
87802590:	e28db000 	add	fp, sp, #0
87802594:	e1a00000 	nop			@ (mov r0, r0)
87802598:	e28bd000 	add	sp, fp, #0
8780259c:	e49db004 	pop	{fp}		@ (ldr fp, [sp], #4)
878025a0:	e12fff1e 	bx	lr

878025a4 <int2string>:
878025a4:	e92d4800 	push	{fp, lr}
878025a8:	e28db004 	add	fp, sp, #4
878025ac:	e24dd020 	sub	sp, sp, #32
878025b0:	e50b0020 	str	r0, [fp, #-32]	@ 0xffffffe0
878025b4:	e59f3124 	ldr	r3, [pc, #292]	@ 878026e0 <int2string+0x13c>
878025b8:	e08f3003 	add	r3, pc, r3
878025bc:	e50b3014 	str	r3, [fp, #-20]	@ 0xffffffec
878025c0:	e51b3020 	ldr	r3, [fp, #-32]	@ 0xffffffe0
878025c4:	e3530000 	cmp	r3, #0
878025c8:	aa000008 	bge	878025f0 <int2string+0x4c>
878025cc:	e51b3014 	ldr	r3, [fp, #-20]	@ 0xffffffec
878025d0:	e2832001 	add	r2, r3, #1
878025d4:	e50b2014 	str	r2, [fp, #-20]	@ 0xffffffec
878025d8:	e3a0202d 	mov	r2, #45	@ 0x2d
878025dc:	e5c32000 	strb	r2, [r3]
878025e0:	e51b3020 	ldr	r3, [fp, #-32]	@ 0xffffffe0
878025e4:	e2633000 	rsb	r3, r3, #0
878025e8:	e50b3020 	str	r3, [fp, #-32]	@ 0xffffffe0
878025ec:	ea00000b 	b	87802620 <int2string+0x7c>
878025f0:	e51b3020 	ldr	r3, [fp, #-32]	@ 0xffffffe0
878025f4:	e3530000 	cmp	r3, #0
878025f8:	1a000008 	bne	87802620 <int2string+0x7c>
878025fc:	e51b3014 	ldr	r3, [fp, #-20]	@ 0xffffffec
87802600:	e2832001 	add	r2, r3, #1
87802604:	e50b2014 	str	r2, [fp, #-20]	@ 0xffffffec
87802608:	e3a02030 	mov	r2, #48	@ 0x30
8780260c:	e5c32000 	strb	r2, [r3]
87802610:	e51b3014 	ldr	r3, [fp, #-20]	@ 0xffffffec
87802614:	e3a02000 	mov	r2, #0
87802618:	e5c32000 	strb	r2, [r3]
8780261c:	ea00002d 	b	878026d8 <int2string+0x134>
87802620:	e59f30bc 	ldr	r3, [pc, #188]	@ 878026e4 <int2string+0x140>
87802624:	e50b3010 	str	r3, [fp, #-16]
87802628:	e3a03000 	mov	r3, #0
8780262c:	e54b3015 	strb	r3, [fp, #-21]	@ 0xffffffeb
87802630:	ea000022 	b	878026c0 <int2string+0x11c>
87802634:	e51b3020 	ldr	r3, [fp, #-32]	@ 0xffffffe0
87802638:	e51b1010 	ldr	r1, [fp, #-16]
8780263c:	e1a00003 	mov	r0, r3
87802640:	eb00007b 	bl	87802834 <__udivsi3>
87802644:	e1a03000 	mov	r3, r0
87802648:	e50b300c 	str	r3, [fp, #-12]
8780264c:	e51b3020 	ldr	r3, [fp, #-32]	@ 0xffffffe0
87802650:	e51b1010 	ldr	r1, [fp, #-16]
87802654:	e1a00003 	mov	r0, r3
87802658:	eb0000f0 	bl	87802a20 <__aeabi_uidivmod>
8780265c:	e1a03001 	mov	r3, r1
87802660:	e50b3008 	str	r3, [fp, #-8]
87802664:	e51b3008 	ldr	r3, [fp, #-8]
87802668:	e50b3020 	str	r3, [fp, #-32]	@ 0xffffffe0
8780266c:	e51b3010 	ldr	r3, [fp, #-16]
87802670:	e59f2070 	ldr	r2, [pc, #112]	@ 878026e8 <int2string+0x144>
87802674:	e0832392 	umull	r2, r3, r2, r3
87802678:	e1a031a3 	lsr	r3, r3, #3
8780267c:	e50b3010 	str	r3, [fp, #-16]
87802680:	e51b300c 	ldr	r3, [fp, #-12]
87802684:	e3530000 	cmp	r3, #0
87802688:	0a000001 	beq	87802694 <int2string+0xf0>
8780268c:	e3a03001 	mov	r3, #1
87802690:	e54b3015 	strb	r3, [fp, #-21]	@ 0xffffffeb
87802694:	e55b3015 	ldrb	r3, [fp, #-21]	@ 0xffffffeb
87802698:	e3530000 	cmp	r3, #0
8780269c:	0a000007 	beq	878026c0 <int2string+0x11c>
878026a0:	e51b300c 	ldr	r3, [fp, #-12]
878026a4:	e6ef2073 	uxtb	r2, r3
878026a8:	e51b3014 	ldr	r3, [fp, #-20]	@ 0xffffffec
878026ac:	e2831001 	add	r1, r3, #1
878026b0:	e50b1014 	str	r1, [fp, #-20]	@ 0xffffffec
878026b4:	e2822030 	add	r2, r2, #48	@ 0x30
878026b8:	e6ef2072 	uxtb	r2, r2
878026bc:	e5c32000 	strb	r2, [r3]
878026c0:	e51b3010 	ldr	r3, [fp, #-16]
878026c4:	e3530000 	cmp	r3, #0
878026c8:	1affffd9 	bne	87802634 <int2string+0x90>
878026cc:	e51b3014 	ldr	r3, [fp, #-20]	@ 0xffffffec
878026d0:	e3a02000 	mov	r2, #0
878026d4:	e5c32000 	strb	r2, [r3]
878026d8:	e24bd004 	sub	sp, fp, #4
878026dc:	e8bd8800 	pop	{fp, pc}
878026e0:	00000a20 	andeq	r0, r0, r0, lsr #20
878026e4:	3b9aca00 	blcc	85eb4eec <shift+0x85eb4eec>
878026e8:	cccccccd 	stclgt	12, cr12, [ip], {205}	@ 0xcd

878026ec <sprintf>:
878026ec:	e92d000f 	push	{r0, r1, r2, r3}
878026f0:	e92d4800 	push	{fp, lr}
878026f4:	e28db004 	add	fp, sp, #4
878026f8:	e24dd018 	sub	sp, sp, #24
878026fc:	e28b3008 	add	r3, fp, #8
87802700:	e50b3014 	str	r3, [fp, #-20]	@ 0xffffffec
87802704:	e59b3004 	ldr	r3, [fp, #4]
87802708:	e50b3010 	str	r3, [fp, #-16]
8780270c:	ea00003d 	b	87802808 <sprintf+0x11c>
87802710:	e51b3010 	ldr	r3, [fp, #-16]
87802714:	e5d33000 	ldrb	r3, [r3]
87802718:	e3530025 	cmp	r3, #37	@ 0x25
8780271c:	1a000020 	bne	878027a4 <sprintf+0xb8>
87802720:	e51b3010 	ldr	r3, [fp, #-16]
87802724:	e2833001 	add	r3, r3, #1
87802728:	e5d33000 	ldrb	r3, [r3]
8780272c:	e54b3015 	strb	r3, [fp, #-21]	@ 0xffffffeb
87802730:	e55b3015 	ldrb	r3, [fp, #-21]	@ 0xffffffeb
87802734:	e3530064 	cmp	r3, #100	@ 0x64
87802738:	1a000031 	bne	87802804 <sprintf+0x118>
8780273c:	e51b3014 	ldr	r3, [fp, #-20]	@ 0xffffffec
87802740:	e2833004 	add	r3, r3, #4
87802744:	e50b3014 	str	r3, [fp, #-20]	@ 0xffffffec
87802748:	e51b3014 	ldr	r3, [fp, #-20]	@ 0xffffffec
8780274c:	e5133004 	ldr	r3, [r3, #-4]
87802750:	e50b3008 	str	r3, [fp, #-8]
87802754:	e51b0008 	ldr	r0, [fp, #-8]
87802758:	ebffff91 	bl	878025a4 <int2string>
8780275c:	e59f30cc 	ldr	r3, [pc, #204]	@ 87802830 <sprintf+0x144>
87802760:	e08f3003 	add	r3, pc, r3
87802764:	e50b300c 	str	r3, [fp, #-12]
87802768:	ea000005 	b	87802784 <sprintf+0x98>
8780276c:	e51b300c 	ldr	r3, [fp, #-12]
87802770:	e2832001 	add	r2, r3, #1
87802774:	e50b200c 	str	r2, [fp, #-12]
87802778:	e5d33000 	ldrb	r3, [r3]
8780277c:	e1a00003 	mov	r0, r3
87802780:	ebffff4a 	bl	878024b0 <_putc>
87802784:	e51b300c 	ldr	r3, [fp, #-12]
87802788:	e5d33000 	ldrb	r3, [r3]
8780278c:	e3530000 	cmp	r3, #0
87802790:	1afffff5 	bne	8780276c <sprintf+0x80>
87802794:	e51b3010 	ldr	r3, [fp, #-16]
87802798:	e2833002 	add	r3, r3, #2
8780279c:	e50b3010 	str	r3, [fp, #-16]
878027a0:	ea000018 	b	87802808 <sprintf+0x11c>
878027a4:	e51b3010 	ldr	r3, [fp, #-16]
878027a8:	e5d33000 	ldrb	r3, [r3]
878027ac:	e353005c 	cmp	r3, #92	@ 0x5c
878027b0:	1a00000c 	bne	878027e8 <sprintf+0xfc>
878027b4:	e51b3010 	ldr	r3, [fp, #-16]
878027b8:	e2832001 	add	r2, r3, #1
878027bc:	e50b2010 	str	r2, [fp, #-16]
878027c0:	e5d33000 	ldrb	r3, [r3]
878027c4:	e1a00003 	mov	r0, r3
878027c8:	ebffff38 	bl	878024b0 <_putc>
878027cc:	e51b3010 	ldr	r3, [fp, #-16]
878027d0:	e2832001 	add	r2, r3, #1
878027d4:	e50b2010 	str	r2, [fp, #-16]
878027d8:	e5d33000 	ldrb	r3, [r3]
878027dc:	e1a00003 	mov	r0, r3
878027e0:	ebffff32 	bl	878024b0 <_putc>
878027e4:	ea000007 	b	87802808 <sprintf+0x11c>
878027e8:	e51b3010 	ldr	r3, [fp, #-16]
878027ec:	e2832001 	add	r2, r3, #1
878027f0:	e50b2010 	str	r2, [fp, #-16]
878027f4:	e5d33000 	ldrb	r3, [r3]
878027f8:	e1a00003 	mov	r0, r3
878027fc:	ebffff2b 	bl	878024b0 <_putc>
87802800:	ea000000 	b	87802808 <sprintf+0x11c>
87802804:	e1a00000 	nop			@ (mov r0, r0)
87802808:	e51b3010 	ldr	r3, [fp, #-16]
8780280c:	e5d33000 	ldrb	r3, [r3]
87802810:	e3530000 	cmp	r3, #0
87802814:	1affffbd 	bne	87802710 <sprintf+0x24>
87802818:	e1a00000 	nop			@ (mov r0, r0)
8780281c:	e1a00000 	nop			@ (mov r0, r0)
87802820:	e24bd004 	sub	sp, fp, #4
87802824:	e8bd4800 	pop	{fp, lr}
87802828:	e28dd010 	add	sp, sp, #16
8780282c:	e12fff1e 	bx	lr
87802830:	00000878 	andeq	r0, r0, r8, ror r8

87802834 <__udivsi3>:
87802834:	e2512001 	subs	r2, r1, #1
87802838:	012fff1e 	bxeq	lr
8780283c:	3a000074 	bcc	87802a14 <__udivsi3+0x1e0>
87802840:	e1500001 	cmp	r0, r1
87802844:	9a00006b 	bls	878029f8 <__udivsi3+0x1c4>
87802848:	e1110002 	tst	r1, r2
8780284c:	0a00006c 	beq	87802a04 <__udivsi3+0x1d0>
87802850:	e16f3f10 	clz	r3, r0
87802854:	e16f2f11 	clz	r2, r1
87802858:	e0423003 	sub	r3, r2, r3
8780285c:	e273301f 	rsbs	r3, r3, #31
87802860:	10833083 	addne	r3, r3, r3, lsl #1
87802864:	e3a02000 	mov	r2, #0
87802868:	108ff103 	addne	pc, pc, r3, lsl #2
8780286c:	e1a00000 	nop			@ (mov r0, r0)
87802870:	e1500f81 	cmp	r0, r1, lsl #31
87802874:	e0a22002 	adc	r2, r2, r2
87802878:	20400f81 	subcs	r0, r0, r1, lsl #31
8780287c:	e1500f01 	cmp	r0, r1, lsl #30
87802880:	e0a22002 	adc	r2, r2, r2
87802884:	20400f01 	subcs	r0, r0, r1, lsl #30
87802888:	e1500e81 	cmp	r0, r1, lsl #29
8780288c:	e0a22002 	adc	r2, r2, r2
87802890:	20400e81 	subcs	r0, r0, r1, lsl #29
87802894:	e1500e01 	cmp	r0, r1, lsl #28
87802898:	e0a22002 	adc	r2, r2, r2
8780289c:	20400e01 	subcs	r0, r0, r1, lsl #28
878028a0:	e1500d81 	cmp	r0, r1, lsl #27
878028a4:	e0a22002 	adc	r2, r2, r2
878028a8:	20400d81 	subcs	r0, r0, r1, lsl #27
878028ac:	e1500d01 	cmp	r0, r1, lsl #26
878028b0:	e0a22002 	adc	r2, r2, r2
878028b4:	20400d01 	subcs	r0, r0, r1, lsl #26
878028b8:	e1500c81 	cmp	r0, r1, lsl #25
878028bc:	e0a22002 	adc	r2, r2, r2
878028c0:	20400c81 	subcs	r0, r0, r1, lsl #25
878028c4:	e1500c01 	cmp	r0, r1, lsl #24
878028c8:	e0a22002 	adc	r2, r2, r2
878028cc:	20400c01 	subcs	r0, r0, r1, lsl #24
878028d0:	e1500b81 	cmp	r0, r1, lsl #23
878028d4:	e0a22002 	adc	r2, r2, r2
878028d8:	20400b81 	subcs	r0, r0, r1, lsl #23
878028dc:	e1500b01 	cmp	r0, r1, lsl #22
878028e0:	e0a22002 	adc	r2, r2, r2
878028e4:	20400b01 	subcs	r0, r0, r1, lsl #22
878028e8:	e1500a81 	cmp	r0, r1, lsl #21
878028ec:	e0a22002 	adc	r2, r2, r2
878028f0:	20400a81 	subcs	r0, r0, r1, lsl #21
878028f4:	e1500a01 	cmp	r0, r1, lsl #20
878028f8:	e0a22002 	adc	r2, r2, r2
878028fc:	20400a01 	subcs	r0, r0, r1, lsl #20
87802900:	e1500981 	cmp	r0, r1, lsl #19
87802904:	e0a22002 	adc	r2, r2, r2
87802908:	20400981 	subcs	r0, r0, r1, lsl #19
8780290c:	e1500901 	cmp	r0, r1, lsl #18
87802910:	e0a22002 	adc	r2, r2, r2
87802914:	20400901 	subcs	r0, r0, r1, lsl #18
87802918:	e1500881 	cmp	r0, r1, lsl #17
8780291c:	e0a22002 	adc	r2, r2, r2
87802920:	20400881 	subcs	r0, r0, r1, lsl #17
87802924:	e1500801 	cmp	r0, r1, lsl #16
87802928:	e0a22002 	adc	r2, r2, r2
8780292c:	20400801 	subcs	r0, r0, r1, lsl #16
87802930:	e1500781 	cmp	r0, r1, lsl #15
87802934:	e0a22002 	adc	r2, r2, r2
87802938:	20400781 	subcs	r0, r0, r1, lsl #15
8780293c:	e1500701 	cmp	r0, r1, lsl #14
87802940:	e0a22002 	adc	r2, r2, r2
87802944:	20400701 	subcs	r0, r0, r1, lsl #14
87802948:	e1500681 	cmp	r0, r1, lsl #13
8780294c:	e0a22002 	adc	r2, r2, r2
87802950:	20400681 	subcs	r0, r0, r1, lsl #13
87802954:	e1500601 	cmp	r0, r1, lsl #12
87802958:	e0a22002 	adc	r2, r2, r2
8780295c:	20400601 	subcs	r0, r0, r1, lsl #12
87802960:	e1500581 	cmp	r0, r1, lsl #11
87802964:	e0a22002 	adc	r2, r2, r2
87802968:	20400581 	subcs	r0, r0, r1, lsl #11
8780296c:	e1500501 	cmp	r0, r1, lsl #10
87802970:	e0a22002 	adc	r2, r2, r2
87802974:	20400501 	subcs	r0, r0, r1, lsl #10
87802978:	e1500481 	cmp	r0, r1, lsl #9
8780297c:	e0a22002 	adc	r2, r2, r2
87802980:	20400481 	subcs	r0, r0, r1, lsl #9
87802984:	e1500401 	cmp	r0, r1, lsl #8
87802988:	e0a22002 	adc	r2, r2, r2
8780298c:	20400401 	subcs	r0, r0, r1, lsl #8
87802990:	e1500381 	cmp	r0, r1, lsl #7
87802994:	e0a22002 	adc	r2, r2, r2
87802998:	20400381 	subcs	r0, r0, r1, lsl #7
8780299c:	e1500301 	cmp	r0, r1, lsl #6
878029a0:	e0a22002 	adc	r2, r2, r2
878029a4:	20400301 	subcs	r0, r0, r1, lsl #6
878029a8:	e1500281 	cmp	r0, r1, lsl #5
878029ac:	e0a22002 	adc	r2, r2, r2
878029b0:	20400281 	subcs	r0, r0, r1, lsl #5
878029b4:	e1500201 	cmp	r0, r1, lsl #4
878029b8:	e0a22002 	adc	r2, r2, r2
878029bc:	20400201 	subcs	r0, r0, r1, lsl #4
878029c0:	e1500181 	cmp	r0, r1, lsl #3
878029c4:	e0a22002 	adc	r2, r2, r2
878029c8:	20400181 	subcs	r0, r0, r1, lsl #3
878029cc:	e1500101 	cmp	r0, r1, lsl #2
878029d0:	e0a22002 	adc	r2, r2, r2
878029d4:	20400101 	subcs	r0, r0, r1, lsl #2
878029d8:	e1500081 	cmp	r0, r1, lsl #1
878029dc:	e0a22002 	adc	r2, r2, r2
878029e0:	20400081 	subcs	r0, r0, r1, lsl #1
878029e4:	e1500001 	cmp	r0, r1
878029e8:	e0a22002 	adc	r2, r2, r2
878029ec:	20400001 	subcs	r0, r0, r1
878029f0:	e1a00002 	mov	r0, r2
878029f4:	e12fff1e 	bx	lr
878029f8:	03a00001 	moveq	r0, #1
878029fc:	13a00000 	movne	r0, #0
87802a00:	e12fff1e 	bx	lr
87802a04:	e16f2f11 	clz	r2, r1
87802a08:	e262201f 	rsb	r2, r2, #31
87802a0c:	e1a00230 	lsr	r0, r0, r2
87802a10:	e12fff1e 	bx	lr
87802a14:	e3500000 	cmp	r0, #0
87802a18:	13e00000 	mvnne	r0, #0
87802a1c:	ea000007 	b	87802a40 <__aeabi_idiv0>

87802a20 <__aeabi_uidivmod>:
87802a20:	e3510000 	cmp	r1, #0
87802a24:	0afffffa 	beq	87802a14 <__udivsi3+0x1e0>
87802a28:	e92d4003 	push	{r0, r1, lr}
87802a2c:	ebffff80 	bl	87802834 <__udivsi3>
87802a30:	e8bd4006 	pop	{r1, r2, lr}
87802a34:	e0030092 	mul	r3, r2, r0
87802a38:	e0411003 	sub	r1, r1, r3
87802a3c:	e12fff1e 	bx	lr

87802a40 <__aeabi_idiv0>:
87802a40:	e92d4002 	push	{r1, lr}
87802a44:	e3a00008 	mov	r0, #8
87802a48:	ebfffecf 	bl	8780258c <raise>
87802a4c:	e8bd8002 	pop	{r1, pc}

Disassembly of section .rodata:

87802a50 <__bss_start-0x8b>:
87802a50:	00000000 	andeq	r0, r0, r0
87802a54:	0000003c 	andeq	r0, r0, ip, lsr r0
87802a58:	0000008c 	andeq	r0, r0, ip, lsl #1
87802a5c:	000000dc 	ldrdeq	r0, [r0], -ip
87802a60:	0000012c 	andeq	r0, r0, ip, lsr #2
87802a64:	00000000 	andeq	r0, r0, r0
87802a68:	0000003c 	andeq	r0, r0, ip, lsr r0
87802a6c:	0000008c 	andeq	r0, r0, ip, lsl #1
87802a70:	000000dc 	ldrdeq	r0, [r0], -ip
87802a74:	0000012c 	andeq	r0, r0, ip, lsr #2
87802a78:	45206e69 	strmi	r6, [r0, #-3689]!	@ 0xfffff197
87802a7c:	32544950 	subscc	r4, r4, #80, 18	@ 0x140000
87802a80:	746e495f 	strbtvc	r4, [lr], #-2399	@ 0xfffff6a1
87802a84:	6e61485f 	mcrvs	8, 3, r4, cr1, cr15, {2}
87802a88:	72656c64 	rsbvc	r6, r5, #100, 24	@ 0x6400
87802a8c:	00000a0d 	andeq	r0, r0, sp, lsl #20
87802a90:	4f495047 	svcmi	0x00495047
87802a94:	4f495f31 	svcmi	0x00495f31
87802a98:	72203831 	eorvc	r3, r0, #3211264	@ 0x310000
87802a9c:	73646165 	cmnvc	r4, #1073741849	@ 0x40000019
87802aa0:	0a0d3020 	beq	87b4eb28 <__bss_end+0x34bae4>
87802aa4:	00000000 	andeq	r0, r0, r0
87802aa8:	47206e49 	strmi	r6, [r0, -r9, asr #28]!
87802aac:	314f4950 	cmpcc	pc, r0, asr r9	@ <UNPREDICTABLE>
87802ab0:	314f495f 	cmpcc	pc, pc, asr r9	@ <UNPREDICTABLE>
87802ab4:	6e495f38 	mcrvs	15, 2, r5, cr9, cr8, {1}
87802ab8:	61485f74 	cmpvs	r8, r4, ror pc
87802abc:	656c646e 	strbvs	r6, [ip, #-1134]!	@ 0xfffffb92
87802ac0:	47202c72 			@ <UNDEFINED> instruction: 0x47202c72
87802ac4:	314f4950 	cmpcc	pc, r0, asr r9	@ <UNPREDICTABLE>
87802ac8:	314f495f 	cmpcc	pc, pc, asr r9	@ <UNPREDICTABLE>
87802acc:	52442038 	subpl	r2, r4, #56	@ 0x38
87802ad0:	61657220 	cmnvs	r5, r0, lsr #4
87802ad4:	30207364 	eorcc	r7, r0, r4, ror #6
87802ad8:	Address 0x87802ad8 is out of bounds.


Disassembly of section .debug_info:

00000000 <.debug_info>:
       0:	000002bf 			@ <UNDEFINED> instruction: 0x000002bf
       4:	04010005 	streq	r0, [r1], #-5
       8:	00000000 	andeq	r0, r0, r0
       c:	00002b0b 	andeq	r2, r0, fp, lsl #22
      10:	019b1d00 	orrseq	r1, fp, r0, lsl #26
      14:	00890000 	addeq	r0, r9, r0
      18:	0acc0000 	beq	ff300020 <__bss_end+0x77afcfdc>
      1c:	05448780 	strbeq	r8, [r4, #-1920]	@ 0xfffff880
      20:	00000000 	andeq	r0, r0, r0
      24:	01020000 	mrseq	r0, (UNDEF: 2)
      28:	0000d706 	andeq	sp, r0, r6, lsl #14
      2c:	05020200 	streq	r0, [r2, #-512]	@ 0xfffffe00
      30:	000001fa 	strdeq	r0, [r0], -sl
      34:	6905040c 	stmdbvs	r5, {r2, r3, sl}
      38:	0200746e 	andeq	r7, r0, #1845493760	@ 0x6e000000
      3c:	01b50508 			@ <UNDEFINED> instruction: 0x01b50508
      40:	93090000 	tstls	r9, #0
      44:	22000001 	andcs	r0, r0, #1
      48:	00004d17 	andeq	r4, r0, r7, lsl sp
      4c:	08010200 	stmdaeq	r1, {r9}
      50:	000000d5 	ldrdeq	r0, [r0], -r5
      54:	e3070202 	tst	r7, #536870912	@ 0x20000000
      58:	09000000 	stmdbeq	r0, {}	@ <UNPREDICTABLE>
      5c:	00000229 	andeq	r0, r0, r9, lsr #4
      60:	00701624 	rsbseq	r1, r0, r4, lsr #12
      64:	5b0d0000 	blpl	34006c <shift+0x34006c>
      68:	0e000000 	cdpeq	0, 0, cr0, cr0, cr0, {0}
      6c:	00000066 	andeq	r0, r0, r6, rrx
      70:	86070402 	strhi	r0, [r7], -r2, lsl #8
      74:	02000001 	andeq	r0, r0, #1
      78:	017c0708 	cmneq	ip, r8, lsl #14
      7c:	200f0000 	andcs	r0, pc, r0
      80:	0902dc02 	stmdbeq	r2, {r1, sl, fp, ip, lr, pc}
      84:	000000ec 	andeq	r0, r0, ip, ror #1
      88:	00524406 	subseq	r4, r2, r6, lsl #8
      8c:	006602dd 	ldrdeq	r0, [r6], #-45	@ 0xffffffd3	@ <UNPREDICTABLE>
      90:	03000000 	tsteq	r0, #0
      94:	000000a7 	andeq	r0, r0, r7, lsr #1
      98:	661102de 			@ <UNDEFINED> instruction: 0x661102de
      9c:	04000000 	streq	r0, [r0], #-0
      a0:	52535006 	subspl	r5, r3, #6
      a4:	6b02df00 	blvs	b7cac <shift+0xb7cac>
      a8:	08000000 	stmdaeq	r0, {}	@ <UNPREDICTABLE>
      ac:	00020e03 	andeq	r0, r2, r3, lsl #28
      b0:	1102e000 	mrsne	lr, (UNDEF: 2)
      b4:	00000066 	andeq	r0, r0, r6, rrx
      b8:	0213030c 	andseq	r0, r3, #12, 6	@ 0x30000000
      bc:	02e10000 	rsceq	r0, r1, #0
      c0:	00006611 	andeq	r6, r0, r1, lsl r6
      c4:	49061000 	stmdbmi	r6, {ip}
      c8:	e200524d 	and	r5, r0, #-805306364	@ 0xd0000004
      cc:	00006602 	andeq	r6, r0, r2, lsl #12
      d0:	49061400 	stmdbmi	r6, {sl, ip}
      d4:	e3005253 	tst	r0, #805306373	@ 0x30000005
      d8:	00006602 	andeq	r6, r0, r2, lsl #12
      dc:	44031800 	strmi	r1, [r3], #-2048	@ 0xfffff800
      e0:	e4000002 	str	r0, [r0], #-2
      e4:	00661102 	rsbeq	r1, r6, r2, lsl #2
      e8:	001c0000 	andseq	r0, ip, r0
      ec:	00014907 	andeq	r4, r1, r7, lsl #18
      f0:	7e02e500 	cdpvc	5, 0, cr14, cr2, cr0, {0}
      f4:	0a000000 	beq	fc <shift+0xfc>
      f8:	00000006 	andeq	r0, r0, r6
      fc:	00000070 	andeq	r0, r0, r0, ror r0
     100:	01130305 	tsteq	r3, r5, lsl #6
     104:	f6010000 			@ <UNDEFINED> instruction: 0xf6010000
     108:	00000000 	andeq	r0, r0, r0
     10c:	00026201 	andeq	r6, r2, r1, lsl #4
     110:	07000100 	streq	r0, [r0, -r0, lsl #2]
     114:	000001e5 	andeq	r0, r0, r5, ror #3
     118:	00f70309 	rscseq	r0, r7, r9, lsl #6
     11c:	4d0a0000 	stcmi	0, cr0, [sl, #-0]
     120:	70000002 	andvc	r0, r0, r2
     124:	0c000000 	stceq	0, cr0, [r0], {-0}
     128:	00015203 	andeq	r5, r1, r3, lsl #4
     12c:	02860100 	addeq	r0, r6, #0, 2
     130:	01000000 	mrseq	r0, (UNDEF: 0)
     134:	00000232 	andeq	r0, r0, r2, lsr r2
     138:	00c20101 	sbceq	r0, r2, r1, lsl #2
     13c:	01020000 	mrseq	r0, (UNDEF: 2)
     140:	00000123 	andeq	r0, r0, r3, lsr #2
     144:	010e0103 	tsteq	lr, r3, lsl #2
     148:	01040000 	mrseq	r0, (UNDEF: 4)
     14c:	00000153 	andeq	r0, r0, r3, asr r1
     150:	ac070005 	stcge	0, cr0, [r7], {5}
     154:	14000000 	strne	r0, [r0], #-0
     158:	00011e03 	andeq	r1, r1, r3, lsl #28
     15c:	02181000 	andseq	r1, r8, #0
     160:	020c0000 	andeq	r0, ip, #0
     164:	93100317 	tstls	r0, #1543503872	@ 0x5c000000
     168:	03000001 	tsteq	r0, #1
     16c:	00000010 	andeq	r0, r0, r0, lsl r0
     170:	131b0319 	tstne	fp, #1677721600	@ 0x64000000
     174:	00000001 	andeq	r0, r0, r1
     178:	00017003 	andeq	r7, r1, r3
     17c:	0d031a00 	vstreq	s2, [r3, #-0]
     180:	00000042 	andeq	r0, r0, r2, asr #32
     184:	01c30304 	biceq	r0, r3, r4, lsl #6
     188:	031b0000 	tsteq	fp, #0
     18c:	0001521b 	andeq	r5, r1, fp, lsl r2
     190:	07000800 	streq	r0, [r0, -r0, lsl #16]
     194:	00000137 	andeq	r0, r0, r7, lsr r1
     198:	015d031c 	cmpeq	sp, ip, lsl r3
     19c:	d1080000 	mrsle	r0, (UNDEF: 8)
     1a0:	57000001 	strpl	r0, [r0, -r1]
     1a4:	87800fcc 	strhi	r0, [r0, ip, asr #31]
     1a8:	00000044 	andeq	r0, r0, r4, asr #32
     1ac:	01cf9c01 	biceq	r9, pc, r1, lsl #24
     1b0:	09040000 	stmdbeq	r4, {}	@ <UNPREDICTABLE>
     1b4:	57000001 	strpl	r0, [r0, -r1]
     1b8:	0001cf25 	andeq	ip, r1, r5, lsr #30
     1bc:	74910200 	ldrvc	r0, [r1], #512	@ 0x200
     1c0:	6e697005 	cdpvs	0, 6, cr7, cr9, cr5, {0}
     1c4:	5b345700 	blpl	d15dcc <shift+0xd15dcc>
     1c8:	02000000 	andeq	r0, r0, #0
     1cc:	11007091 	swpne	r7, r1, [r0]
     1d0:	0000ec04 	andeq	lr, r0, r4, lsl #24
     1d4:	001a0800 	andseq	r0, sl, r0, lsl #16
     1d8:	84520000 	ldrbhi	r0, [r2], #-0
     1dc:	4887800f 	stmmi	r7, {r0, r1, r2, r3, pc}
     1e0:	01000000 	mrseq	r0, (UNDEF: 0)
     1e4:	0002069c 	muleq	r2, ip, r6
     1e8:	01090400 	tsteq	r9, r0, lsl #8
     1ec:	22520000 	subscs	r0, r2, #0
     1f0:	000001cf 	andeq	r0, r0, pc, asr #3
     1f4:	05749102 	ldrbeq	r9, [r4, #-258]!	@ 0xfffffefe
     1f8:	006e6970 	rsbeq	r6, lr, r0, ror r9
     1fc:	005b3152 	subseq	r3, fp, r2, asr r1
     200:	91020000 	mrsls	r0, (UNDEF: 2)
     204:	76080070 			@ <UNDEFINED> instruction: 0x76080070
     208:	4d000002 	stcmi	0, cr0, [r0, #-8]
     20c:	87800f40 	strhi	r0, [r0, r0, asr #30]
     210:	00000044 	andeq	r0, r0, r4, asr #32
     214:	02379c01 	eorseq	r9, r7, #256	@ 0x100
     218:	09040000 	stmdbeq	r4, {}	@ <UNPREDICTABLE>
     21c:	4d000001 	stcmi	0, cr0, [r0, #-4]
     220:	0001cf21 	andeq	ip, r1, r1, lsr #30
     224:	74910200 	ldrvc	r0, [r1], #512	@ 0x200
     228:	6e697005 	cdpvs	0, 6, cr7, cr9, cr5, {0}
     22c:	5b304d00 	blpl	c13634 <shift+0xc13634>
     230:	02000000 	andeq	r0, r0, #0
     234:	08007091 	stmdaeq	r0, {r0, r4, r7, ip, sp, lr}
     238:	000001a6 	andeq	r0, r0, r6, lsr #3
     23c:	800e9042 	andhi	r9, lr, r2, asr #32
     240:	0000b087 	andeq	fp, r0, r7, lsl #1
     244:	769c0100 	ldrvc	r0, [ip], r0, lsl #2
     248:	04000002 	streq	r0, [r0], #-2
     24c:	00000109 	andeq	r0, r0, r9, lsl #2
     250:	01cf2042 	biceq	r2, pc, r2, asr #32
     254:	91020000 	mrsls	r0, (UNDEF: 2)
     258:	69700574 	ldmdbvs	r0!, {r2, r4, r5, r6, r8, sl}^
     25c:	2f42006e 	svccs	0x0042006e
     260:	0000005b 	andeq	r0, r0, fp, asr r0
     264:	04709102 	ldrbteq	r9, [r0], #-258	@ 0xfffffefe
     268:	000014d6 	ldrdeq	r1, [r0], -r6
     26c:	005b3d42 	subseq	r3, fp, r2, asr #26
     270:	91020000 	mrsls	r0, (UNDEF: 2)
     274:	0412006c 	ldreq	r0, [r2], #-108	@ 0xffffff94
     278:	01000002 	tsteq	r0, r2
     27c:	0acc0603 	beq	ff301a90 <__bss_end+0x77afea4c>
     280:	03c48780 	biceq	r8, r4, #128, 14	@ 0x2000000
     284:	9c010000 	stcls	0, cr0, [r1], {-0}
     288:	00022204 	andeq	r2, r2, r4, lsl #4
     28c:	93220300 			@ <UNDEFINED> instruction: 0x93220300
     290:	02000001 	andeq	r0, r0, #1
     294:	09046491 	stmdbeq	r4, {r0, r4, r7, sl, sp, lr}
     298:	03000001 	tsteq	r0, #1
     29c:	0001cf35 	andeq	ip, r1, r5, lsr pc
     2a0:	60910200 	addsvs	r0, r1, r0, lsl #4
     2a4:	6e697005 	cdpvs	0, 6, cr7, cr9, cr5, {0}
     2a8:	5b440300 	blpl	1100eb0 <shift+0x1100eb0>
     2ac:	02000000 	andeq	r0, r0, #0
     2b0:	00130091 	mulseq	r3, r1, r0
     2b4:	01000000 	mrseq	r0, (UNDEF: 0)
     2b8:	005b0e0b 	subseq	r0, fp, fp, lsl #28
     2bc:	91020000 	mrsls	r0, (UNDEF: 2)
     2c0:	39000074 	stmdbcc	r0, {r2, r4, r5, r6}
     2c4:	05000001 	streq	r0, [r0, #-1]
     2c8:	34040100 	strcc	r0, [r4], #-256	@ 0xffffff00
     2cc:	03000001 	tsteq	r0, #1
     2d0:	0000002b 	andeq	r0, r0, fp, lsr #32
     2d4:	0002c71d 	andeq	ip, r2, sp, lsl r7
     2d8:	00008900 	andeq	r8, r0, r0, lsl #18
     2dc:	80101000 	andshi	r1, r0, r0
     2e0:	0000ac87 	andeq	sl, r0, r7, lsl #25
     2e4:	0001eb00 	andeq	lr, r1, r0, lsl #22
     2e8:	06010200 	streq	r0, [r1], -r0, lsl #4
     2ec:	000000d7 	ldrdeq	r0, [r0], -r7
     2f0:	fa050202 	blx	140b00 <shift+0x140b00>
     2f4:	04000001 	streq	r0, [r0], #-1
     2f8:	6e690504 	cdpvs	5, 6, cr0, cr9, cr4, {0}
     2fc:	08020074 	stmdaeq	r2, {r2, r4, r5, r6}
     300:	0001b505 	andeq	fp, r1, r5, lsl #10
     304:	08010200 	stmdaeq	r1, {r9}
     308:	000000d5 	ldrdeq	r0, [r0], -r5
     30c:	e3070202 	tst	r7, #536870912	@ 0x20000000
     310:	05000000 	streq	r0, [r0, #-0]
     314:	00000229 	andeq	r0, r0, r9, lsr #4
     318:	5c162402 	ldcpl	4, cr2, [r6], {2}
     31c:	02000000 	andeq	r0, r0, #0
     320:	01860704 	orreq	r0, r6, r4, lsl #14
     324:	08020000 	stmdaeq	r2, {}	@ <UNPREDICTABLE>
     328:	00017c07 	andeq	r7, r1, r7, lsl #24
     32c:	02d10600 	sbcseq	r0, r1, #0, 12
     330:	38010000 	stmdacc	r1, {}	@ <UNPREDICTABLE>
     334:	80107806 	andshi	r7, r0, r6, lsl #16
     338:	00004487 	andeq	r4, r0, r7, lsl #9
     33c:	d59c0100 	ldrle	r0, [ip, #256]	@ 0x100
     340:	01000000 	mrseq	r0, (UNDEF: 0)
     344:	000002bb 			@ <UNDEFINED> instruction: 0x000002bb
     348:	00502338 	subseq	r2, r0, r8, lsr r3
     34c:	91020000 	mrsls	r0, (UNDEF: 2)
     350:	02e50174 	rsceq	r0, r5, #116, 2
     354:	31390000 	teqcc	r9, r0
     358:	00000050 	andeq	r0, r0, r0, asr r0
     35c:	01709102 	cmneq	r0, r2, lsl #2
     360:	000002ad 	andeq	r0, r0, sp, lsr #5
     364:	0050313a 	subseq	r3, r0, sl, lsr r1
     368:	91020000 	mrsls	r0, (UNDEF: 2)
     36c:	02a2016c 	adceq	r0, r2, #108, 2
     370:	313b0000 	teqcc	fp, r0
     374:	00000050 	andeq	r0, r0, r0, asr r0
     378:	01689102 	cmneq	r8, r2, lsl #2
     37c:	000002fa 	strdeq	r0, [r0], -sl
     380:	0050313c 	subseq	r3, r0, ip, lsr r1
     384:	91020000 	mrsls	r0, (UNDEF: 2)
     388:	02960100 	addseq	r0, r6, #0, 2
     38c:	313d0000 	teqcc	sp, r0
     390:	00000050 	andeq	r0, r0, r0, asr r0
     394:	00049102 	andeq	r9, r4, r2, lsl #2
     398:	00030907 	andeq	r0, r3, r7, lsl #18
     39c:	06180100 	ldreq	r0, [r8], -r0, lsl #2
     3a0:	87801010 	usada8hi	r0, r0, r0, r1
     3a4:	00000068 	andeq	r0, r0, r8, rrx
     3a8:	bb019c01 	bllt	673b4 <shift+0x673b4>
     3ac:	18000002 	stmdane	r0, {r1}
     3b0:	00005020 	andeq	r5, r0, r0, lsr #32
     3b4:	74910200 	ldrvc	r0, [r1], #512	@ 0x200
     3b8:	0002e501 	andeq	lr, r2, r1, lsl #10
     3bc:	502e1900 	eorpl	r1, lr, r0, lsl #18
     3c0:	02000000 	andeq	r0, r0, #0
     3c4:	ad017091 	stcge	0, cr7, [r1, #-580]	@ 0xfffffdbc
     3c8:	1a000002 	bne	3d8 <shift+0x3d8>
     3cc:	0000502e 	andeq	r5, r0, lr, lsr #32
     3d0:	6c910200 	ldcvs	2, cr0, [r1], {0}
     3d4:	0002a201 	andeq	sl, r2, r1, lsl #4
     3d8:	502e1b00 	eorpl	r1, lr, r0, lsl #22
     3dc:	02000000 	andeq	r0, r0, #0
     3e0:	fa016891 	blx	5a62c <shift+0x5a62c>
     3e4:	1c000002 	stcne	0, cr0, [r0], {2}
     3e8:	0000502e 	andeq	r5, r0, lr, lsr #32
     3ec:	00910200 	addseq	r0, r1, r0, lsl #4
     3f0:	0002ed01 	andeq	lr, r2, r1, lsl #26
     3f4:	502e1d00 	eorpl	r1, lr, r0, lsl #26
     3f8:	02000000 	andeq	r0, r0, #0
     3fc:	00000491 	muleq	r0, r1, r4
     400:	0000017a 	andeq	r0, r0, sl, ror r1
     404:	04010005 	streq	r0, [r1], #-5
     408:	000001b3 			@ <UNDEFINED> instruction: 0x000001b3
     40c:	00002b08 	andeq	r2, r0, r8, lsl #22
     410:	03221d00 			@ <UNDEFINED> instruction: 0x03221d00
     414:	00890000 	addeq	r0, r9, r0
     418:	10bc0000 	adcsne	r0, ip, r0
     41c:	012c8780 	smlawbeq	ip, r0, r7, r8
     420:	025d0000 	subseq	r0, sp, #0
     424:	01020000 	mrseq	r0, (UNDEF: 2)
     428:	0000d706 	andeq	sp, r0, r6, lsl #14
     42c:	05020200 	streq	r0, [r2, #-512]	@ 0xfffffe00
     430:	000001fa 	strdeq	r0, [r0], -sl
     434:	69050409 	stmdbvs	r5, {r0, r3, sl}
     438:	0200746e 	andeq	r7, r0, #1845493760	@ 0x6e000000
     43c:	01b50508 			@ <UNDEFINED> instruction: 0x01b50508
     440:	01020000 	mrseq	r0, (UNDEF: 2)
     444:	0000d508 	andeq	sp, r0, r8, lsl #10
     448:	07020200 	streq	r0, [r2, -r0, lsl #4]
     44c:	000000e3 	andeq	r0, r0, r3, ror #1
     450:	0002290a 	andeq	r2, r2, sl, lsl #18
     454:	16240200 	strtne	r0, [r4], -r0, lsl #4
     458:	00000066 	andeq	r0, r0, r6, rrx
     45c:	0000500b 	andeq	r5, r0, fp
     460:	005c0c00 	subseq	r0, ip, r0, lsl #24
     464:	04020000 	streq	r0, [r2], #-0
     468:	00018607 	andeq	r8, r1, r7, lsl #12
     46c:	07080200 	streq	r0, [r8, -r0, lsl #4]
     470:	0000017c 	andeq	r0, r0, ip, ror r1
     474:	dc02200d 	stcle	0, cr2, [r2], {13}
     478:	00de0902 	sbcseq	r0, lr, r2, lsl #18
     47c:	44030000 	strmi	r0, [r3], #-0
     480:	02dd0052 	sbcseq	r0, sp, #82	@ 0x52
     484:	0000005c 	andeq	r0, r0, ip, asr r0
     488:	00a70400 	adceq	r0, r7, r0, lsl #8
     48c:	02de0000 	sbcseq	r0, lr, #0
     490:	0000005c 	andeq	r0, r0, ip, asr r0
     494:	53500304 	cmppl	r0, #4, 6	@ 0x10000000
     498:	02df0052 	sbcseq	r0, pc, #82	@ 0x52
     49c:	00000061 	andeq	r0, r0, r1, rrx
     4a0:	020e0408 	andeq	r0, lr, #8, 8	@ 0x8000000
     4a4:	02e00000 	rsceq	r0, r0, #0
     4a8:	0000005c 	andeq	r0, r0, ip, asr r0
     4ac:	0213040c 	andseq	r0, r3, #12, 8	@ 0xc000000
     4b0:	02e10000 	rsceq	r0, r1, #0
     4b4:	0000005c 	andeq	r0, r0, ip, asr r0
     4b8:	4d490310 	stclmi	3, cr0, [r9, #-64]	@ 0xffffffc0
     4bc:	02e20052 	rsceq	r0, r2, #82	@ 0x52
     4c0:	0000005c 	andeq	r0, r0, ip, asr r0
     4c4:	53490314 	cmppl	r9, #20, 6	@ 0x50000000
     4c8:	02e30052 	rsceq	r0, r3, #82	@ 0x52
     4cc:	0000005c 	andeq	r0, r0, ip, asr r0
     4d0:	02440418 	subeq	r0, r4, #24, 8	@ 0x18000000
     4d4:	02e40000 	rsceq	r0, r4, #0
     4d8:	0000005c 	andeq	r0, r0, ip, asr r0
     4dc:	490e001c 	stmdbmi	lr, {r2, r3, r4}
     4e0:	02000001 	andeq	r0, r0, #1
     4e4:	740302e5 	strvc	r0, [r3], #-741	@ 0xfffffd1b
     4e8:	05000000 	streq	r0, [r0, #-0]
     4ec:	000002d1 	ldrdeq	r0, [r0], -r1
     4f0:	0001140c 	andeq	r1, r1, ip, lsl #8
     4f4:	00500100 	subseq	r0, r0, r0, lsl #2
     4f8:	50010000 	andpl	r0, r1, r0
     4fc:	01000000 	mrseq	r0, (UNDEF: 0)
     500:	00000050 	andeq	r0, r0, r0, asr r0
     504:	00005001 	andeq	r5, r0, r1
     508:	00500100 	subseq	r0, r0, r0, lsl #2
     50c:	50010000 	andpl	r0, r1, r0
     510:	00000000 	andeq	r0, r0, r0
     514:	00030905 	andeq	r0, r3, r5, lsl #18
     518:	013d0500 	teqeq	sp, r0, lsl #10
     51c:	50010000 	andpl	r0, r1, r0
     520:	01000000 	mrseq	r0, (UNDEF: 0)
     524:	00000050 	andeq	r0, r0, r0, asr r0
     528:	00005001 	andeq	r5, r0, r1
     52c:	00500100 	subseq	r0, r0, r0, lsl #2
     530:	50010000 	andpl	r0, r1, r0
     534:	01000000 	mrseq	r0, (UNDEF: 0)
     538:	00000050 	andeq	r0, r0, r0, asr r0
     53c:	033c0600 	teqeq	ip, #0, 12
     540:	b4150000 	ldrlt	r0, [r5], #-0
     544:	34878011 	strcc	r8, [r7], #17
     548:	01000000 	mrseq	r0, (UNDEF: 0)
     54c:	0348079c 	cmpeq	r8, #156, 14	@ 0x2700000
     550:	84100000 	ldrhi	r0, [r0], #-0
     554:	30878011 	addcc	r8, r7, r1, lsl r0
     558:	01000000 	mrseq	r0, (UNDEF: 0)
     55c:	031a079c 	tsteq	sl, #156, 14	@ 0x2700000
     560:	540b0000 	strpl	r0, [fp], #-0
     564:	30878011 	addcc	r8, r7, r1, lsl r0
     568:	01000000 	mrseq	r0, (UNDEF: 0)
     56c:	0332069c 	teqeq	r2, #156, 12	@ 0x9c00000
     570:	bc030000 	stclt	0, cr0, [r3], {-0}
     574:	98878010 	stmls	r7, {r4, pc}
     578:	01000000 	mrseq	r0, (UNDEF: 0)
     57c:	0715009c 			@ <UNDEFINED> instruction: 0x0715009c
     580:	00050000 	andeq	r0, r5, r0
     584:	02920401 	addseq	r0, r2, #16777216	@ 0x1000000
     588:	2b0e0000 	blcs	380590 <shift+0x380590>
     58c:	1d000000 	stcne	0, cr0, [r0, #-0]
     590:	000006cc 	andeq	r0, r0, ip, asr #13
     594:	00000089 	andeq	r0, r0, r9, lsl #1
     598:	878011e8 	strhi	r1, [r0, r8, ror #3]
     59c:	000004a0 	andeq	r0, r0, r0, lsr #9
     5a0:	000002ef 	andeq	r0, r0, pc, ror #5
     5a4:	d7060103 	strle	r0, [r6, -r3, lsl #2]
     5a8:	03000000 	tsteq	r0, #0
     5ac:	01fa0502 	mvnseq	r0, r2, lsl #10
     5b0:	040f0000 	streq	r0, [pc], #-0	@ 5b8 <shift+0x5b8>
     5b4:	746e6905 	strbtvc	r6, [lr], #-2309	@ 0xfffff6fb
     5b8:	05080300 	streq	r0, [r8, #-768]	@ 0xfffffd00
     5bc:	000001b5 			@ <UNDEFINED> instruction: 0x000001b5
     5c0:	00019308 	andeq	r9, r1, r8, lsl #6
     5c4:	4d172200 	ldcmi	2, cr2, [r7, #-0]
     5c8:	03000000 	tsteq	r0, #0
     5cc:	00d50801 	sbcseq	r0, r5, r1, lsl #16
     5d0:	02030000 	andeq	r0, r3, #0
     5d4:	0000e307 	andeq	lr, r0, r7, lsl #6
     5d8:	02290800 	eoreq	r0, r9, #0, 16
     5dc:	16240000 	strtne	r0, [r4], -r0
     5e0:	00000070 	andeq	r0, r0, r0, ror r0
     5e4:	00005b10 	andeq	r5, r0, r0, lsl fp
     5e8:	00661100 	rsbeq	r1, r6, r0, lsl #2
     5ec:	04030000 	streq	r0, [r3], #-0
     5f0:	00018607 	andeq	r8, r1, r7, lsl #12
     5f4:	07080300 	streq	r0, [r8, -r0, lsl #6]
     5f8:	0000017c 	andeq	r0, r0, ip, ror r1
     5fc:	3b028c12 	blcc	a364c <shift+0xa364c>
     600:	00021209 	andeq	r1, r2, r9, lsl #4
     604:	43430c00 	cmpmi	r3, #0, 24
     608:	663c0052 			@ <UNDEFINED> instruction: 0x663c0052
     60c:	00000000 	andeq	r0, r0, r0
     610:	0005c501 	andeq	ip, r5, r1, lsl #10
     614:	66113d00 	ldrvs	r3, [r1], -r0, lsl #26
     618:	04000000 	streq	r0, [r0], #-0
     61c:	5253430c 	subspl	r4, r3, #12, 6	@ 0x30000000
     620:	006b3e00 	rsbeq	r3, fp, r0, lsl #28
     624:	01080000 	mrseq	r0, (UNDEF: 8)
     628:	0000067e 	andeq	r0, r0, lr, ror r6
     62c:	0066113f 	rsbeq	r1, r6, pc, lsr r1
     630:	010c0000 	mrseq	r0, (UNDEF: 12)
     634:	00000705 	andeq	r0, r0, r5, lsl #14
     638:	00661140 	rsbeq	r1, r6, r0, asr #2
     63c:	01100000 	tsteq	r0, r0
     640:	0000052a 	andeq	r0, r0, sl, lsr #10
     644:	00661141 	rsbeq	r1, r6, r1, asr #2
     648:	01140000 	tsteq	r4, r0
     64c:	00000666 	andeq	r0, r0, r6, ror #12
     650:	00661142 	rsbeq	r1, r6, r2, asr #2
     654:	01180000 	tsteq	r8, r0
     658:	0000076e 	andeq	r0, r0, lr, ror #14
     65c:	00661143 	rsbeq	r1, r6, r3, asr #2
     660:	011c0000 	tsteq	ip, r0
     664:	0000079b 	muleq	r0, fp, r7
     668:	00661144 	rsbeq	r1, r6, r4, asr #2
     66c:	01200000 			@ <UNDEFINED> instruction: 0x01200000
     670:	000003a3 	andeq	r0, r0, r3, lsr #7
     674:	00661145 	rsbeq	r1, r6, r5, asr #2
     678:	01240000 			@ <UNDEFINED> instruction: 0x01240000
     67c:	0000073c 	andeq	r0, r0, ip, lsr r7
     680:	00661146 	rsbeq	r1, r6, r6, asr #2
     684:	01280000 			@ <UNDEFINED> instruction: 0x01280000
     688:	0000048a 	andeq	r0, r0, sl, lsl #9
     68c:	00661147 	rsbeq	r1, r6, r7, asr #2
     690:	012c0000 			@ <UNDEFINED> instruction: 0x012c0000
     694:	0000072e 	andeq	r0, r0, lr, lsr #14
     698:	00661148 	rsbeq	r1, r6, r8, asr #2
     69c:	01300000 	teqeq	r0, r0
     6a0:	000005c2 	andeq	r0, r0, r2, asr #11
     6a4:	00661149 	rsbeq	r1, r6, r9, asr #2
     6a8:	01340000 	teqeq	r4, r0
     6ac:	000003aa 	andeq	r0, r0, sl, lsr #7
     6b0:	0066114a 	rsbeq	r1, r6, sl, asr #2
     6b4:	01380000 	teqeq	r8, r0
     6b8:	000003b1 			@ <UNDEFINED> instruction: 0x000003b1
     6bc:	0066114b 	rsbeq	r1, r6, fp, asr #2
     6c0:	013c0000 	teqeq	ip, r0
     6c4:	000004ff 	strdeq	r0, [r0], -pc	@ <UNPREDICTABLE>
     6c8:	0212104c 	andseq	r1, r2, #76	@ 0x4c
     6cc:	01400000 	mrseq	r0, (UNDEF: 64)
     6d0:	0000037c 	andeq	r0, r0, ip, ror r3
     6d4:	006b114d 	rsbeq	r1, fp, sp, asr #2
     6d8:	01480000 	mrseq	r0, (UNDEF: 72)
     6dc:	000003b8 			@ <UNDEFINED> instruction: 0x000003b8
     6e0:	0212104e 	andseq	r1, r2, #78	@ 0x4e
     6e4:	014c0000 	mrseq	r0, (UNDEF: 76)
     6e8:	0000042e 	andeq	r0, r0, lr, lsr #8
     6ec:	0066114f 	rsbeq	r1, r6, pc, asr #2
     6f0:	01540000 	cmpeq	r4, r0
     6f4:	000003c3 	andeq	r0, r0, r3, asr #7
     6f8:	00661150 	rsbeq	r1, r6, r0, asr r1
     6fc:	01580000 	cmpeq	r8, r0
     700:	0000056f 	andeq	r0, r0, pc, ror #10
     704:	00661151 	rsbeq	r1, r6, r1, asr r1
     708:	015c0000 	cmpeq	ip, r0
     70c:	0000038f 	andeq	r0, r0, pc, lsl #7
     710:	00661152 	rsbeq	r1, r6, r2, asr r1
     714:	01600000 	cmneq	r0, r0
     718:	0000057e 	andeq	r0, r0, lr, ror r5
     71c:	00661153 	rsbeq	r1, r6, r3, asr r1
     720:	01640000 	cmneq	r4, r0
     724:	00000683 	andeq	r0, r0, r3, lsl #13
     728:	00661154 	rsbeq	r1, r6, r4, asr r1
     72c:	01680000 	cmneq	r8, r0
     730:	00000689 	andeq	r0, r0, r9, lsl #13
     734:	00661155 	rsbeq	r1, r6, r5, asr r1
     738:	016c0000 	cmneq	ip, r0
     73c:	0000068f 	andeq	r0, r0, pc, lsl #13
     740:	00661156 	rsbeq	r1, r6, r6, asr r1
     744:	01700000 	cmneq	r0, r0
     748:	00000695 	muleq	r0, r5, r6
     74c:	00661157 	rsbeq	r1, r6, r7, asr r1
     750:	01740000 	cmneq	r4, r0
     754:	0000069b 	muleq	r0, fp, r6
     758:	00661158 	rsbeq	r1, r6, r8, asr r1
     75c:	01780000 	cmneq	r8, r0
     760:	000006a1 	andeq	r0, r0, r1, lsr #13
     764:	00661159 	rsbeq	r1, r6, r9, asr r1
     768:	017c0000 	cmneq	ip, r0
     76c:	000006a7 	andeq	r0, r0, r7, lsr #13
     770:	0066115a 	rsbeq	r1, r6, sl, asr r1
     774:	01800000 	orreq	r0, r0, r0
     778:	000003c8 	andeq	r0, r0, r8, asr #7
     77c:	0222105b 	eoreq	r1, r2, #91	@ 0x5b
     780:	01840000 	orreq	r0, r4, r0
     784:	00000768 	andeq	r0, r0, r8, ror #14
     788:	0066115c 	rsbeq	r1, r6, ip, asr r1
     78c:	00880000 	addeq	r0, r8, r0
     790:	00004204 	andeq	r4, r0, r4, lsl #4
     794:	00022200 	andeq	r2, r2, r0, lsl #4
     798:	00700500 	rsbseq	r0, r0, r0, lsl #10
     79c:	00070000 	andeq	r0, r7, r0
     7a0:	00004204 	andeq	r4, r0, r4, lsl #4
     7a4:	00023200 	andeq	r3, r2, r0, lsl #4
     7a8:	00700500 	rsbseq	r0, r0, r0, lsl #10
     7ac:	00030000 	andeq	r0, r3, r0
     7b0:	00054808 	andeq	r4, r5, r8, lsl #16
     7b4:	7e035d00 	cdpvc	13, 0, cr5, cr3, cr0, {0}
     7b8:	13000000 	tstne	r0, #0
     7bc:	6f020180 	svcvs	0x00020180
     7c0:	00054d09 	andeq	r4, r5, r9, lsl #26
     7c4:	050a0100 	streq	r0, [sl, #-256]	@ 0xffffff00
     7c8:	11700000 	cmnne	r0, r0
     7cc:	00000066 	andeq	r0, r0, r6, rrx
     7d0:	04d90100 	ldrbeq	r0, [r9], #256	@ 0x100
     7d4:	11710000 	cmnne	r1, r0
     7d8:	00000066 	andeq	r0, r0, r6, rrx
     7dc:	03510104 	cmpeq	r1, #4, 2
     7e0:	11720000 	cmnne	r2, r0
     7e4:	00000066 	andeq	r0, r0, r6, rrx
     7e8:	04340108 	ldrteq	r0, [r4], #-264	@ 0xfffffef8
     7ec:	11730000 	cmnne	r3, r0
     7f0:	00000066 	andeq	r0, r0, r6, rrx
     7f4:	040f010c 	streq	r0, [pc], #-268	@ 7fc <shift+0x7fc>
     7f8:	11740000 	cmnne	r4, r0
     7fc:	00000066 	andeq	r0, r0, r6, rrx
     800:	05300110 	ldreq	r0, [r0, #-272]!	@ 0xfffffef0
     804:	11750000 	cmnne	r5, r0
     808:	00000066 	andeq	r0, r0, r6, rrx
     80c:	03de0114 	bicseq	r0, lr, #20, 2
     810:	11760000 	cmnne	r6, r0
     814:	00000066 	andeq	r0, r0, r6, rrx
     818:	07150118 			@ <UNDEFINED> instruction: 0x07150118
     81c:	11770000 	cmnne	r7, r0
     820:	00000066 	andeq	r0, r0, r6, rrx
     824:	0425011c 	strteq	r0, [r5], #-284	@ 0xfffffee4
     828:	11780000 	cmnne	r8, r0
     82c:	00000066 	andeq	r0, r0, r6, rrx
     830:	06590120 	ldrbeq	r0, [r9], -r0, lsr #2
     834:	11790000 	cmnne	r9, r0
     838:	00000066 	andeq	r0, r0, r6, rrx
     83c:	05830124 	streq	r0, [r3, #292]	@ 0x124
     840:	117a0000 	cmnne	sl, r0
     844:	00000066 	andeq	r0, r0, r6, rrx
     848:	04910128 	ldreq	r0, [r1], #296	@ 0x128
     84c:	117b0000 	cmnne	fp, r0
     850:	00000066 	andeq	r0, r0, r6, rrx
     854:	0522012c 	streq	r0, [r2, #-300]!	@ 0xfffffed4
     858:	117c0000 	cmnne	ip, r0
     85c:	00000066 	andeq	r0, r0, r6, rrx
     860:	06000130 			@ <UNDEFINED> instruction: 0x06000130
     864:	117d0000 	cmnne	sp, r0
     868:	00000066 	andeq	r0, r0, r6, rrx
     86c:	04f30134 	ldrbteq	r0, [r3], #308	@ 0x134
     870:	117e0000 	cmnne	lr, r0
     874:	00000066 	andeq	r0, r0, r6, rrx
     878:	05aa0138 	streq	r0, [sl, #312]!	@ 0x138
     87c:	117f0000 	cmnne	pc, r0
     880:	00000066 	andeq	r0, r0, r6, rrx
     884:	053d013c 	ldreq	r0, [sp, #-316]!	@ 0xfffffec4
     888:	11800000 	orrne	r0, r0, r0
     88c:	00000066 	andeq	r0, r0, r6, rrx
     890:	04ff0140 	ldrbteq	r0, [pc], #320	@ 898 <shift+0x898>
     894:	10810000 	addne	r0, r1, r0
     898:	0000054d 	andeq	r0, r0, sp, asr #10
     89c:	07220144 	streq	r0, [r2, -r4, asr #2]!
     8a0:	11820000 	orrne	r0, r2, r0
     8a4:	00000066 	andeq	r0, r0, r6, rrx
     8a8:	03b80150 			@ <UNDEFINED> instruction: 0x03b80150
     8ac:	10830000 	addne	r0, r3, r0
     8b0:	0000054d 	andeq	r0, r0, sp, asr #10
     8b4:	07a20154 			@ <UNDEFINED> instruction: 0x07a20154
     8b8:	11840000 	orrne	r0, r4, r0
     8bc:	00000066 	andeq	r0, r0, r6, rrx
     8c0:	03c80160 	biceq	r0, r8, #96, 2
     8c4:	10850000 	addne	r0, r5, r0
     8c8:	0000054d 	andeq	r0, r0, sp, asr #10
     8cc:	04680164 	strbteq	r0, [r8], #-356	@ 0xfffffe9c
     8d0:	11860000 	orrne	r0, r6, r0
     8d4:	00000066 	andeq	r0, r0, r6, rrx
     8d8:	07430170 	smlsldxeq	r0, r3, r0, r1
     8dc:	11870000 	orrne	r0, r7, r0
     8e0:	00000066 	andeq	r0, r0, r6, rrx
     8e4:	03950174 	orrseq	r0, r5, #116, 2
     8e8:	11880000 	orrne	r0, r8, r0
     8ec:	00000066 	andeq	r0, r0, r6, rrx
     8f0:	06ed0178 			@ <UNDEFINED> instruction: 0x06ed0178
     8f4:	11890000 	orrne	r0, r9, r0
     8f8:	00000066 	andeq	r0, r0, r6, rrx
     8fc:	044a017c 	strbeq	r0, [sl], #-380	@ 0xfffffe84
     900:	118a0000 	orrne	r0, sl, r0
     904:	00000066 	andeq	r0, r0, r6, rrx
     908:	03d30180 	bicseq	r0, r3, #128, 2
     90c:	108b0000 	addne	r0, fp, r0
     910:	0000054d 	andeq	r0, r0, sp, asr #10
     914:	05120184 	ldreq	r0, [r2, #-388]	@ 0xfffffe7c
     918:	118c0000 	orrne	r0, ip, r0
     91c:	00000066 	andeq	r0, r0, r6, rrx
     920:	03eb0190 	mvneq	r0, #144, 2	@ 0x24
     924:	108d0000 	addne	r0, sp, r0
     928:	0000054d 	andeq	r0, r0, sp, asr #10
     92c:	06de0194 			@ <UNDEFINED> instruction: 0x06de0194
     930:	118e0000 	orrne	r0, lr, r0
     934:	00000066 	andeq	r0, r0, r6, rrx
     938:	04b701a0 	ldrteq	r0, [r7], #416	@ 0x1a0
     93c:	118f0000 	orrne	r0, pc, r0
     940:	00000066 	andeq	r0, r0, r6, rrx
     944:	047201a4 	ldrbteq	r0, [r2], #-420	@ 0xfffffe5c
     948:	11900000 	orrsne	r0, r0, r0
     94c:	00000066 	andeq	r0, r0, r6, rrx
     950:	07b801a8 	ldreq	r0, [r8, r8, lsr #3]!
     954:	11910000 	orrsne	r0, r1, r0
     958:	00000066 	andeq	r0, r0, r6, rrx
     95c:	04e501ac 	strbteq	r0, [r5], #428	@ 0x1ac
     960:	11920000 	orrsne	r0, r2, r0
     964:	00000066 	andeq	r0, r0, r6, rrx
     968:	03f601b0 	mvnseq	r0, #176, 2	@ 0x2c
     96c:	10930000 	addsne	r0, r3, r0
     970:	0000054d 	andeq	r0, r0, sp, asr #10
     974:	059001b4 	ldreq	r0, [r0, #436]	@ 0x1b4
     978:	11940000 	orrsne	r0, r4, r0
     97c:	00000066 	andeq	r0, r0, r6, rrx
     980:	06ad01c0 	strteq	r0, [sp], r0, asr #3
     984:	10950000 	addsne	r0, r5, r0
     988:	0000055d 	andeq	r0, r0, sp, asr r5
     98c:	06c301c4 	strbeq	r0, [r3], r4, asr #3
     990:	11960000 	orrsne	r0, r6, r0
     994:	00000066 	andeq	r0, r0, r6, rrx
     998:	064c01e0 	strbeq	r0, [ip], -r0, ror #3
     99c:	11970000 	orrsne	r0, r7, r0
     9a0:	00000066 	andeq	r0, r0, r6, rrx
     9a4:	041801e4 	ldreq	r0, [r8], #-484	@ 0xfffffe1c
     9a8:	11980000 	orrsne	r0, r8, r0
     9ac:	00000066 	andeq	r0, r0, r6, rrx
     9b0:	075b01e8 	ldrbeq	r0, [fp, -r8, ror #3]
     9b4:	11990000 	orrsne	r0, r9, r0
     9b8:	00000066 	andeq	r0, r0, r6, rrx
     9bc:	037401ec 	cmneq	r4, #236, 2	@ 0x3b
     9c0:	119a0000 	orrsne	r0, sl, r0
     9c4:	00000066 	andeq	r0, r0, r6, rrx
     9c8:	05b601f0 	ldreq	r0, [r6, #496]!	@ 0x1f0
     9cc:	119b0000 	orrsne	r0, fp, r0
     9d0:	00000066 	andeq	r0, r0, r6, rrx
     9d4:	04cd01f4 	strbeq	r0, [sp], #500	@ 0x1f4
     9d8:	119c0000 	orrsne	r0, ip, r0
     9dc:	00000066 	andeq	r0, r0, r6, rrx
     9e0:	038301f8 	orreq	r0, r3, #248, 2	@ 0x3e
     9e4:	119d0000 	orrsne	r0, sp, r0
     9e8:	00000066 	andeq	r0, r0, r6, rrx
     9ec:	073402fc 			@ <UNDEFINED> instruction: 0x073402fc
     9f0:	119e0000 	orrsne	r0, lr, r0
     9f4:	00000066 	andeq	r0, r0, r6, rrx
     9f8:	8f020100 	svchi	0x00020100
     9fc:	9f000007 	svcls	0x00000007
     a00:	00006611 	andeq	r6, r0, r1, lsl r6
     a04:	02010400 	andeq	r0, r1, #0, 8
     a08:	0000062b 	andeq	r0, r0, fp, lsr #12
     a0c:	006611a0 	rsbeq	r1, r6, r0, lsr #3
     a10:	01080000 	mrseq	r0, (UNDEF: 8)
     a14:	00056302 	andeq	r6, r5, r2, lsl #6
     a18:	6611a100 	ldrvs	sl, [r1], -r0, lsl #2
     a1c:	0c000000 	stceq	0, cr0, [r0], {-0}
     a20:	06b80201 	ldrteq	r0, [r8], r1, lsl #4
     a24:	10a20000 	adcne	r0, r2, r0
     a28:	0000056d 	andeq	r0, r0, sp, ror #10
     a2c:	51020110 	tstpl	r2, r0, lsl r1
     a30:	a3000005 	tstge	r0, #5
     a34:	00006611 	andeq	r6, r0, r1, lsl r6
     a38:	02015000 	andeq	r5, r1, #0
     a3c:	00000440 	andeq	r0, r0, r0, asr #8
     a40:	006611a4 	rsbeq	r1, r6, r4, lsr #3
     a44:	01540000 	cmpeq	r4, r0
     a48:	00070b02 	andeq	r0, r7, r2, lsl #22
     a4c:	6611a500 	ldrvs	sl, [r1], -r0, lsl #10
     a50:	58000000 	stmdapl	r0, {}	@ <UNPREDICTABLE>
     a54:	06140201 	ldreq	r0, [r4], -r1, lsl #4
     a58:	11a60000 			@ <UNDEFINED> instruction: 0x11a60000
     a5c:	00000066 	andeq	r0, r0, r6, rrx
     a60:	5702015c 	smlsdpl	r2, ip, r1, r0
     a64:	a7000005 	strge	r0, [r0, -r5]
     a68:	00006611 	andeq	r6, r0, r1, lsl r6
     a6c:	02016000 	andeq	r6, r1, #0
     a70:	00000574 	andeq	r0, r0, r4, ror r5
     a74:	006611a8 	rsbeq	r1, r6, r8, lsr #3
     a78:	01640000 	cmneq	r4, r0
     a7c:	00048002 	andeq	r8, r4, r2
     a80:	6611a900 	ldrvs	sl, [r1], -r0, lsl #18
     a84:	68000000 	stmdavs	r0, {}	@ <UNPREDICTABLE>
     a88:	07c60201 	strbeq	r0, [r6, r1, lsl #4]
     a8c:	11aa0000 			@ <UNDEFINED> instruction: 0x11aa0000
     a90:	00000066 	andeq	r0, r0, r6, rrx
     a94:	5d02016c 	stcpl	1, cr0, [r2, #-432]	@ 0xfffffe50
     a98:	ab000005 	blge	ab4 <shift+0xab4>
     a9c:	00006611 	andeq	r6, r0, r1, lsl r6
     aa0:	02017000 	andeq	r7, r1, #0
     aa4:	000006fb 	strdeq	r0, [r0], -fp
     aa8:	006611ac 	rsbeq	r1, r6, ip, lsr #3
     aac:	01740000 	cmneq	r4, r0
     ab0:	0005a002 	andeq	sl, r5, r2
     ab4:	6611ad00 	ldrvs	sl, [r1], -r0, lsl #26
     ab8:	78000000 	stmdavc	r0, {}	@ <UNPREDICTABLE>
     abc:	07510201 	ldrbeq	r0, [r1, -r1, lsl #4]
     ac0:	11ae0000 			@ <UNDEFINED> instruction: 0x11ae0000
     ac4:	00000066 	andeq	r0, r0, r6, rrx
     ac8:	0400017c 	streq	r0, [r0], #-380	@ 0xfffffe84
     acc:	00000042 	andeq	r0, r0, r2, asr #32
     ad0:	0000055d 	andeq	r0, r0, sp, asr r5
     ad4:	00007005 	andeq	r7, r0, r5
     ad8:	04000b00 	streq	r0, [r0], #-2816	@ 0xfffff500
     adc:	00000042 	andeq	r0, r0, r2, asr #32
     ae0:	0000056d 	andeq	r0, r0, sp, ror #10
     ae4:	00007005 	andeq	r7, r0, r5
     ae8:	04001b00 	streq	r1, [r0], #-2816	@ 0xfffff500
     aec:	00000042 	andeq	r0, r0, r2, asr #32
     af0:	0000057d 	andeq	r0, r0, sp, ror r5
     af4:	00007005 	andeq	r7, r0, r5
     af8:	08003f00 	stmdaeq	r0, {r8, r9, sl, fp, ip, sp}
     afc:	00000458 	andeq	r0, r0, r8, asr r4
     b00:	023d03af 	eorseq	r0, sp, #-1140850686	@ 0xbc000002
     b04:	5d140000 	ldcpl	0, cr0, [r4, #-0]
     b08:	01000003 	tsteq	r0, r3
     b0c:	166c066d 	strbtne	r0, [ip], -sp, ror #12
     b10:	001c8780 	andseq	r8, ip, r0, lsl #15
     b14:	9c010000 	stcls	0, cr0, [r1], {-0}
     b18:	00063706 	andeq	r3, r6, r6, lsl #14
     b1c:	161c6500 	ldrne	r6, [ip], -r0, lsl #10
     b20:	00508780 	subseq	r8, r0, r0, lsl #15
     b24:	9c010000 	stcls	0, cr0, [r1], {-0}
     b28:	000005bc 			@ <UNDEFINED> instruction: 0x000005bc
     b2c:	0007b009 	andeq	fp, r7, r9
     b30:	005b6700 	subseq	r6, fp, r0, lsl #14
     b34:	91020000 	mrsls	r0, (UNDEF: 2)
     b38:	de060074 	mcrle	0, 0, r0, cr6, cr4, {3}
     b3c:	5d000005 	stcpl	0, cr0, [r0, #-20]	@ 0xffffffec
     b40:	878015cc 	strhi	r1, [r0, ip, asr #11]
     b44:	00000050 	andeq	r0, r0, r0, asr r0
     b48:	05de9c01 	ldrbeq	r9, [lr, #3073]	@ 0xc01
     b4c:	b0090000 	andlt	r0, r9, r0
     b50:	5f000007 	svcpl	0x00000007
     b54:	0000005b 	andeq	r0, r0, fp, asr r0
     b58:	00749102 	rsbseq	r9, r4, r2, lsl #2
     b5c:	00066c06 	andeq	r6, r6, r6, lsl #24
     b60:	15244d00 	strne	r4, [r4, #-3328]!	@ 0xfffff300
     b64:	00a88780 	adceq	r8, r8, r0, lsl #15
     b68:	9c010000 	stcls	0, cr0, [r1], {-0}
     b6c:	00000600 	andeq	r0, r0, r0, lsl #12
     b70:	0007b009 	andeq	fp, r7, r9
     b74:	005b4f00 	subseq	r4, fp, r0, lsl #30
     b78:	91020000 	mrsls	r0, (UNDEF: 2)
     b7c:	01060074 	tsteq	r6, r4, ror r0
     b80:	45000004 	strmi	r0, [r0, #-4]
     b84:	878014c4 	strhi	r1, [r0, r4, asr #9]
     b88:	00000060 	andeq	r0, r0, r0, rrx
     b8c:	06239c01 	strteq	r9, [r3], -r1, lsl #24
     b90:	72070000 	andvc	r0, r7, #0
     b94:	47006765 	strmi	r6, [r0, -r5, ror #14]
     b98:	00005b0e 	andeq	r5, r0, lr, lsl #22
     b9c:	74910200 	ldrvc	r0, [r1], #512	@ 0x200
     ba0:	05f00600 	ldrbeq	r0, [r0, #1536]!	@ 0x600
     ba4:	643d0000 	ldrtvs	r0, [sp], #-0
     ba8:	60878014 	addvs	r8, r7, r4, lsl r0
     bac:	01000000 	mrseq	r0, (UNDEF: 0)
     bb0:	0006469c 	muleq	r6, ip, r6
     bb4:	65720700 	ldrbvs	r0, [r2, #-1792]!	@ 0xfffff900
     bb8:	0e3f0067 	cdpeq	0, 3, cr0, cr15, cr7, {3}
     bbc:	0000005b 	andeq	r0, r0, fp, asr r0
     bc0:	00749102 	rsbseq	r9, r4, r2, lsl #2
     bc4:	00061e0a 	andeq	r1, r6, sl, lsl #28
     bc8:	13942300 	orrsne	r2, r4, #0, 6
     bcc:	00d08780 	sbcseq	r8, r0, r0, lsl #15
     bd0:	9c010000 	stcls	0, cr0, [r1], {-0}
     bd4:	00000684 	andeq	r0, r0, r4, lsl #13
     bd8:	0004c50b 	andeq	ip, r4, fp, lsl #10
     bdc:	5b1c2300 	blpl	7097e4 <shift+0x7097e4>
     be0:	02000000 	andeq	r0, r0, #0
     be4:	0c096c91 	stceq	12, cr6, [r9], {145}	@ 0x91
     be8:	28000006 	stmdacs	r0, {r1, r2}
     bec:	0000005b 	andeq	r0, r0, fp, asr r0
     bf0:	07709102 	ldrbeq	r9, [r0, -r2, lsl #2]!
     bf4:	00676572 	rsbeq	r6, r7, r2, ror r5
     bf8:	005b0e2d 	subseq	r0, fp, sp, lsr #28
     bfc:	91020000 	mrsls	r0, (UNDEF: 2)
     c00:	750a0074 	strvc	r0, [sl, #-116]	@ 0xffffff8c
     c04:	19000007 	stmdbne	r0, {r0, r1, r2}
     c08:	878012f4 			@ <UNDEFINED> instruction: 0x878012f4
     c0c:	000000a0 	andeq	r0, r0, r0, lsr #1
     c10:	06c29c01 	strbeq	r9, [r2], r1, lsl #24
     c14:	630d0000 	tstvs	sp, #0
     c18:	29190067 	ldmdbcs	r9, {r0, r1, r2, r5, r6}
     c1c:	0000005b 	andeq	r0, r0, fp, asr r0
     c20:	0b6c9102 	bleq	1b25030 <shift+0x1b25030>
     c24:	000006e8 	andeq	r0, r0, r8, ror #13
     c28:	005b3619 	subseq	r3, fp, r9, lsl r6
     c2c:	91020000 	mrsls	r0, (UNDEF: 2)
     c30:	65720768 	ldrbvs	r0, [r2, #-1896]!	@ 0xfffff898
     c34:	0f1f0067 	svceq	0x001f0067
     c38:	000006c2 	andeq	r0, r0, r2, asr #13
     c3c:	00749102 	rsbseq	r9, r4, r2, lsl #2
     c40:	005b0415 	subseq	r0, fp, r5, lsl r4
     c44:	9e0a0000 	cdpls	0, 0, cr0, cr10, cr0, {0}
     c48:	0f000004 	svceq	0x00000004
     c4c:	87801258 			@ <UNDEFINED> instruction: 0x87801258
     c50:	0000009c 	muleq	r0, ip, r0
     c54:	07069c01 	streq	r9, [r6, -r1, lsl #24]
     c58:	630d0000 	tstvs	sp, #0
     c5c:	280f0067 	stmdacs	pc, {r0, r1, r2, r5, r6}	@ <UNPREDICTABLE>
     c60:	0000005b 	andeq	r0, r0, fp, asr r0
     c64:	0b6c9102 	bleq	1b25074 <shift+0x1b25074>
     c68:	000006e8 	andeq	r0, r0, r8, ror #13
     c6c:	005b350f 	subseq	r3, fp, pc, lsl #10
     c70:	91020000 	mrsls	r0, (UNDEF: 2)
     c74:	65720768 	ldrbvs	r0, [r2, #-1896]!	@ 0xfffff898
     c78:	0f150067 	svceq	0x00150067
     c7c:	000006c2 	andeq	r0, r0, r2, asr #13
     c80:	00749102 	rsbseq	r9, r4, r2, lsl #2
     c84:	0005ca16 	andeq	ip, r5, r6, lsl sl
     c88:	06040100 	streq	r0, [r4], -r0, lsl #2
     c8c:	878011e8 	strhi	r1, [r0, r8, ror #3]
     c90:	00000070 	andeq	r0, r0, r0, ror r0
     c94:	57009c01 	strpl	r9, [r0, -r1, lsl #24]
     c98:	0500000c 	streq	r0, [r0, #-12]
     c9c:	fd040100 	stc2	1, cr0, [r4, #-0]
     ca0:	1c000003 	stcne	0, cr0, [r0], {3}
     ca4:	0000002b 	andeq	r0, r0, fp, lsr #32
     ca8:	000df91d 	andeq	pc, sp, sp, lsl r9	@ <UNPREDICTABLE>
     cac:	00008900 	andeq	r8, r0, r0, lsl #18
     cb0:	80168800 	andshi	r8, r6, r0, lsl #16
     cb4:	00058887 	andeq	r8, r5, r7, lsl #17
     cb8:	00048e00 	andeq	r8, r4, r0, lsl #28
     cbc:	06010600 	streq	r0, [r1], -r0, lsl #12
     cc0:	000000d7 	ldrdeq	r0, [r0], -r7
     cc4:	fa050206 	blx	1414e4 <shift+0x1414e4>
     cc8:	0b000001 	bleq	cd4 <shift+0xcd4>
     ccc:	0000022a 	andeq	r0, r0, sl, lsr #4
     cd0:	40141f03 	andsmi	r1, r4, r3, lsl #30
     cd4:	1d000000 	stcne	0, cr0, [r0, #-0]
     cd8:	6e690504 	cdpvs	5, 6, cr0, cr9, cr4, {0}
     cdc:	08060074 	stmdaeq	r6, {r2, r4, r5, r6}
     ce0:	0001b505 	andeq	fp, r1, r5, lsl #10
     ce4:	01930b00 	orrseq	r0, r3, r0, lsl #22
     ce8:	22030000 	andcs	r0, r3, #0
     cec:	00005f17 	andeq	r5, r0, r7, lsl pc
     cf0:	004e0700 	subeq	r0, lr, r0, lsl #14
     cf4:	01060000 	mrseq	r0, (UNDEF: 6)
     cf8:	0000d508 	andeq	sp, r0, r8, lsl #10
     cfc:	07020600 	streq	r0, [r2, -r0, lsl #12]
     d00:	000000e3 	andeq	r0, r0, r3, ror #1
     d04:	0002290b 	andeq	r2, r2, fp, lsl #18
     d08:	16240300 	strtne	r0, [r4], -r0, lsl #6
     d0c:	00000083 	andeq	r0, r0, r3, lsl #1
     d10:	00006d07 	andeq	r6, r0, r7, lsl #26
     d14:	00791400 	rsbseq	r1, r9, r0, lsl #8
     d18:	04060000 	streq	r0, [r6], #-0
     d1c:	00018607 	andeq	r8, r1, r7, lsl #12
     d20:	00830700 	addeq	r0, r3, r0, lsl #14
     d24:	08060000 	stmdaeq	r6, {}	@ <UNPREDICTABLE>
     d28:	00017c07 	andeq	r7, r1, r7, lsl #24
     d2c:	dc201500 	stcle	5, cr1, [r0], #-0
     d30:	00010602 	andeq	r0, r1, r2, lsl #12
     d34:	52440800 	subpl	r0, r4, #0, 16
     d38:	7902dd00 	stmdbvc	r2, {r8, sl, fp, ip, lr, pc}
     d3c:	00000000 	andeq	r0, r0, r0
     d40:	0000a70a 	andeq	sl, r0, sl, lsl #14
     d44:	02de0300 	sbcseq	r0, lr, #0, 6
     d48:	00007911 	andeq	r7, r0, r1, lsl r9
     d4c:	50080400 	andpl	r0, r8, r0, lsl #8
     d50:	df005253 	svcle	0x00005253
     d54:	00007e02 	andeq	r7, r0, r2, lsl #28
     d58:	0e0a0800 	cdpeq	8, 0, cr0, cr10, cr0, {0}
     d5c:	03000002 	tsteq	r0, #2
     d60:	791102e0 	ldmdbvc	r1, {r5, r6, r7, r9}
     d64:	0c000000 	stceq	0, cr0, [r0], {-0}
     d68:	0002130a 	andeq	r1, r2, sl, lsl #6
     d6c:	02e10300 	rsceq	r0, r1, #0, 6
     d70:	00007911 	andeq	r7, r0, r1, lsl r9
     d74:	49081000 	stmdbmi	r8, {ip}
     d78:	e200524d 	and	r5, r0, #-805306364	@ 0xd0000004
     d7c:	00007902 	andeq	r7, r0, r2, lsl #18
     d80:	49081400 	stmdbmi	r8, {sl, ip}
     d84:	e3005253 	tst	r0, #805306373	@ 0x30000005
     d88:	00007902 	andeq	r7, r0, r2, lsl #18
     d8c:	440a1800 	strmi	r1, [sl], #-2048	@ 0xfffff800
     d90:	03000002 	tsteq	r0, #2
     d94:	791102e4 	ldmdbvc	r1, {r2, r5, r6, r7, r9}
     d98:	1c000000 	stcne	0, cr0, [r0], {-0}
     d9c:	01490c00 	cmpeq	r9, r0, lsl #24
     da0:	e5030000 	str	r0, [r3, #-0]
     da4:	00009602 	andeq	r9, r0, r2, lsl #12
     da8:	0ef21e00 	cdpeq	14, 15, cr1, cr2, cr0, {0}
     dac:	04050000 	streq	r0, [r5], #-0
     db0:	00000040 	andeq	r0, r0, r0, asr #32
     db4:	0e032b03 	vmlaeq.f64	d2, d3, d3
     db8:	000004b7 			@ <UNDEFINED> instruction: 0x000004b7
     dbc:	0013231f 	andseq	r2, r3, pc, lsl r3
     dc0:	017f8000 	cmneq	pc, r0
     dc4:	00000bdd 	ldrdeq	r0, [r0], -sp
     dc8:	0b250100 	bleq	9411d0 <shift+0x9411d0>
     dcc:	01010000 	mrseq	r0, (UNDEF: 1)
     dd0:	000012ba 			@ <UNDEFINED> instruction: 0x000012ba
     dd4:	0daf0102 	stceq	1, cr0, [pc, #8]!	@ de4 <shift+0xde4>
     dd8:	01030000 	mrseq	r0, (UNDEF: 3)
     ddc:	00000cf1 	strdeq	r0, [r0], -r1
     de0:	085e0104 	ldmdaeq	lr, {r2, r8}^
     de4:	01050000 	mrseq	r0, (UNDEF: 5)
     de8:	00001057 	andeq	r1, r0, r7, asr r0
     dec:	0f930106 	svceq	0x00930106
     df0:	01070000 	mrseq	r0, (UNDEF: 7)
     df4:	00000aa7 	andeq	r0, r0, r7, lsr #21
     df8:	123a0108 	eorsne	r0, sl, #8, 2
     dfc:	01090000 	mrseq	r0, (UNDEF: 9)
     e00:	00001331 	andeq	r1, r0, r1, lsr r3
     e04:	1285010a 	addne	r0, r5, #-2147483646	@ 0x80000002
     e08:	010b0000 	mrseq	r0, (UNDEF: 11)
     e0c:	00000d8e 	andeq	r0, r0, lr, lsl #27
     e10:	090b010c 	stmdbeq	fp, {r2, r3, r8}
     e14:	010d0000 	mrseq	r0, (UNDEF: 13)
     e18:	00000838 	andeq	r0, r0, r8, lsr r8
     e1c:	1019010e 	andsne	r0, r9, lr, lsl #2
     e20:	010f0000 	mrseq	r0, CPSR
     e24:	00000f37 	andeq	r0, r0, r7, lsr pc
     e28:	10660119 	rsbne	r0, r6, r9, lsl r1
     e2c:	011a0000 	tsteq	sl, r0
     e30:	000008b2 			@ <UNDEFINED> instruction: 0x000008b2
     e34:	0a6c011b 	beq	1b012a8 <shift+0x1b012a8>
     e38:	011c0000 	tsteq	ip, r0
     e3c:	00000bc9 	andeq	r0, r0, r9, asr #23
     e40:	0bc6011d 	bleq	ff1812bc <__bss_end+0x7797e278>
     e44:	011e0000 	tsteq	lr, r0
     e48:	0000091b 	andeq	r0, r0, fp, lsl r9
     e4c:	0d5b011f 	ldcleq	1, cr0, [fp, #-124]	@ 0xffffff84
     e50:	01200000 			@ <UNDEFINED> instruction: 0x01200000
     e54:	000011aa 	andeq	r1, r0, sl, lsr #3
     e58:	0a260121 	beq	9812e4 <shift+0x9812e4>
     e5c:	01220000 			@ <UNDEFINED> instruction: 0x01220000
     e60:	00000de5 	andeq	r0, r0, r5, ror #27
     e64:	0c5f0123 	mrrceq	1, 2, r0, pc, cr3	@ <UNPREDICTABLE>
     e68:	01240000 			@ <UNDEFINED> instruction: 0x01240000
     e6c:	00000dbe 			@ <UNDEFINED> instruction: 0x00000dbe
     e70:	07d00125 	ldrbeq	r0, [r0, r5, lsr #2]
     e74:	01260000 			@ <UNDEFINED> instruction: 0x01260000
     e78:	00000c8d 	andeq	r0, r0, sp, lsl #25
     e7c:	11ef0127 	mvnne	r0, r7, lsr #2
     e80:	01280000 			@ <UNDEFINED> instruction: 0x01280000
     e84:	00000caf 	andeq	r0, r0, pc, lsr #25
     e88:	08290129 	stmdaeq	r9!, {r0, r3, r5, r8}
     e8c:	012a0000 			@ <UNDEFINED> instruction: 0x012a0000
     e90:	00000c0a 	andeq	r0, r0, sl, lsl #24
     e94:	13ce012b 	bicne	r0, lr, #-1073741814	@ 0xc000000a
     e98:	012c0000 			@ <UNDEFINED> instruction: 0x012c0000
     e9c:	00000f2d 	andeq	r0, r0, sp, lsr #30
     ea0:	12ee012d 	rscne	r0, lr, #1073741835	@ 0x4000000b
     ea4:	012e0000 			@ <UNDEFINED> instruction: 0x012e0000
     ea8:	00000ffa 	strdeq	r0, [r0], -sl
     eac:	1153012f 	cmpne	r3, pc, lsr #2
     eb0:	01300000 	teqeq	r0, r0
     eb4:	00000896 	muleq	r0, r6, r8
     eb8:	0cc80131 	stcleq	1, cr0, [r8], {49}	@ 0x31
     ebc:	01320000 	teqeq	r2, r0
     ec0:	00001341 	andeq	r1, r0, r1, asr #6
     ec4:	12d40133 	sbcsne	r0, r4, #-1073741812	@ 0xc000000c
     ec8:	01340000 	teqeq	r4, r0
     ecc:	00001176 	andeq	r1, r0, r6, ror r1
     ed0:	09d10135 	ldmibeq	r1, {r0, r2, r4, r5, r8}^
     ed4:	01360000 	teqeq	r6, r0
     ed8:	00000933 	andeq	r0, r0, r3, lsr r9
     edc:	0ed90137 	mrceq	1, 6, r0, cr9, cr7, {1}
     ee0:	01380000 	teqeq	r8, r0
     ee4:	0000104a 	andeq	r1, r0, sl, asr #32
     ee8:	0c310139 	ldceq	1, cr0, [r1], #-228	@ 0xffffff1c
     eec:	013a0000 	teqeq	sl, r0
     ef0:	00000b88 	andeq	r0, r0, r8, lsl #23
     ef4:	12f8013b 	rscsne	r0, r8, #-1073741810	@ 0xc000000e
     ef8:	013c0000 	teqeq	ip, r0
     efc:	00000dee 	andeq	r0, r0, lr, ror #27
     f00:	0d44013d 	stcleq	1, cr0, [r4, #-244]	@ 0xffffff0c
     f04:	013e0000 	teqeq	lr, r0
     f08:	00001147 	andeq	r1, r0, r7, asr #2
     f0c:	0fd4013f 	svceq	0x00d4013f
     f10:	01400000 	mrseq	r0, (UNDEF: 64)
     f14:	00000f16 	andeq	r0, r0, r6, lsl pc
     f18:	0a0f0141 	beq	3c1424 <shift+0x3c1424>
     f1c:	01420000 	mrseq	r0, (UNDEF: 66)
     f20:	000011a0 	andeq	r1, r0, r0, lsr #3
     f24:	0f890143 	svceq	0x00890143
     f28:	01440000 	mrseq	r0, (UNDEF: 68)
     f2c:	00000a93 	muleq	r0, r3, sl
     f30:	09b70145 	ldmibeq	r7!, {r0, r2, r6, r8}
     f34:	01460000 	mrseq	r0, (UNDEF: 70)
     f38:	000010c2 	andeq	r1, r0, r2, asr #1
     f3c:	0bbb0147 	bleq	feec1460 <__bss_end+0x776be41c>
     f40:	01480000 	mrseq	r0, (UNDEF: 72)
     f44:	00000dd5 	ldrdeq	r0, [r0], -r5
     f48:	081b0149 	ldmdaeq	fp, {r0, r3, r6, r8}
     f4c:	014a0000 	mrseq	r0, (UNDEF: 74)
     f50:	000008db 	ldrdeq	r0, [r0], -fp
     f54:	0ef7014b 	cdpeq	1, 15, cr0, cr7, cr11, {2}
     f58:	014c0000 	mrseq	r0, (UNDEF: 76)
     f5c:	00000968 	andeq	r0, r0, r8, ror #18
     f60:	0ebc014d 	cdpeq	1, 11, cr0, cr12, cr13, {2}
     f64:	014e0000 	mrseq	r0, (UNDEF: 78)
     f68:	000008ca 	andeq	r0, r0, sl, asr #17
     f6c:	111e014f 	tstne	lr, pc, asr #2
     f70:	01500000 	cmpeq	r0, r0
     f74:	00000ac2 	andeq	r0, r0, r2, asr #21
     f78:	0a9d0151 	beq	fe7414c4 <__bss_end+0x76f3e480>
     f7c:	01520000 	cmpeq	r2, r0
     f80:	00001362 	andeq	r1, r0, r2, ror #6
     f84:	095d0153 	ldmdbeq	sp, {r0, r1, r4, r6, r8}^
     f88:	01540000 	cmpeq	r4, r0
     f8c:	000011df 	ldrdeq	r1, [r0], -pc	@ <UNPREDICTABLE>
     f90:	12770155 	rsbsne	r0, r7, #1073741845	@ 0x40000015
     f94:	01560000 	cmpeq	r6, r0
     f98:	00001114 	andeq	r1, r0, r4, lsl r1
     f9c:	09ac0157 	stmibeq	ip!, {r0, r1, r2, r4, r6, r8}
     fa0:	01580000 	cmpeq	r8, r0
     fa4:	00001195 	muleq	r0, r5, r1
     fa8:	138a0159 	orrne	r0, sl, #1073741846	@ 0x40000016
     fac:	015a0000 	cmpeq	sl, r0
     fb0:	00000c15 	andeq	r0, r0, r5, lsl ip
     fb4:	1137015b 	teqne	r7, fp, asr r1
     fb8:	015c0000 	cmpeq	ip, r0
     fbc:	000011cf 	andeq	r1, r0, pc, asr #3
     fc0:	09c1015d 	stmibeq	r1, {r0, r2, r3, r4, r6, r8}^
     fc4:	015e0000 	cmpeq	lr, r0
     fc8:	00000ec9 	andeq	r0, r0, r9, asr #29
     fcc:	0fad015f 	svceq	0x00ad015f
     fd0:	01600000 	cmneq	r0, r0
     fd4:	000007e7 	andeq	r0, r0, r7, ror #15
     fd8:	10290161 	eorne	r0, r9, r1, ror #2
     fdc:	01620000 	cmneq	r2, r0
     fe0:	0000120d 	andeq	r1, r0, sp, lsl #4
     fe4:	08e90163 	stmiaeq	r9!, {r0, r1, r5, r6, r8}^
     fe8:	01640000 	cmneq	r4, r0
     fec:	00000801 	andeq	r0, r0, r1, lsl #16
     ff0:	0e090165 	cdpeq	1, 0, cr0, cr9, cr5, {3}
     ff4:	01660000 	cmneq	r6, r0
     ff8:	00000acf 	andeq	r0, r0, pc, asr #21
     ffc:	13ab0167 			@ <UNDEFINED> instruction: 0x13ab0167
    1000:	01680000 	cmneq	r8, r0
    1004:	00000d00 	andeq	r0, r0, r0, lsl #26
    1008:	0c960169 	ldceq	1, cr0, [r6], {105}	@ 0x69
    100c:	016a0000 	cmneq	sl, r0
    1010:	00000fe0 	andeq	r0, r0, r0, ror #31
    1014:	09dd016b 	ldmibeq	sp, {r0, r1, r3, r5, r6, r8}^
    1018:	016c0000 	cmneq	ip, r0
    101c:	0000094c 	andeq	r0, r0, ip, asr #18
    1020:	0ee6016d 	cdpeq	1, 14, cr0, cr6, cr13, {3}
    1024:	016e0000 	cmneq	lr, r0
    1028:	00000b59 	andeq	r0, r0, r9, asr fp
    102c:	11b3016f 			@ <UNDEFINED> instruction: 0x11b3016f
    1030:	01700000 	cmneq	r0, r0
    1034:	00000c7a 	andeq	r0, r0, sl, ror ip
    1038:	0b930171 	bleq	fe4c1604 <__bss_end+0x76cbe5c0>
    103c:	01720000 	cmneq	r2, r0
    1040:	00001203 	andeq	r1, r0, r3, lsl #4
    1044:	0cd60173 	ldcleq	1, cr0, [r6], {115}	@ 0x73
    1048:	01740000 	cmneq	r4, r0
    104c:	00000c55 	andeq	r0, r0, r5, asr ip
    1050:	13c40175 	bicne	r0, r4, #1073741853	@ 0x4000001d
    1054:	01760000 	cmneq	r6, r0
    1058:	0000100b 	andeq	r1, r0, fp
    105c:	0b4b0177 	bleq	12c1640 <shift+0x12c1640>
    1060:	01780000 	cmneq	r8, r0
    1064:	00000d21 	andeq	r0, r0, r1, lsr #26
    1068:	0b140179 	bleq	501654 <shift+0x501654>
    106c:	017a0000 	cmneq	sl, r0
    1070:	00000a9e 	muleq	r0, lr, sl
    1074:	0d9e017b 	ldceq	1, cr0, [lr, #492]	@ 0x1ec
    1078:	017c0000 	cmneq	ip, r0
    107c:	00000ce0 	andeq	r0, r0, r0, ror #25
    1080:	0c3c017d 	ldceq	1, cr0, [ip], #-500	@ 0xfffffe0c
    1084:	017e0000 	cmneq	lr, r0
    1088:	00000f74 	andeq	r0, r0, r4, ror pc
    108c:	0e8a017f 	mcreq	1, 4, r0, cr10, cr15, {3}
    1090:	01800000 	orreq	r0, r0, r0
    1094:	00000b9c 	muleq	r0, ip, fp
    1098:	13030181 	tstne	r3, #1073741856	@ 0x40000020
    109c:	01820000 	orreq	r0, r2, r0
    10a0:	00000c69 	andeq	r0, r0, r9, ror #24
    10a4:	10a20183 	adcne	r0, r2, r3, lsl #3
    10a8:	01840000 	orreq	r0, r4, r0
    10ac:	0000093f 	andeq	r0, r0, pc, lsr r9
    10b0:	0e790185 	cdpeq	1, 7, cr0, cr9, cr5, {4}
    10b4:	01860000 	orreq	r0, r6, r0
    10b8:	00000d75 	andeq	r0, r0, r5, ror sp
    10bc:	092a0187 	stmdbeq	sl!, {r0, r1, r2, r7, r8}
    10c0:	01880000 	orreq	r0, r8, r0
    10c4:	00001100 	andeq	r1, r0, r0, lsl #2
    10c8:	0bec0189 	bleq	ffb016f4 <__bss_end+0x782fe6b0>
    10cc:	018a0000 	orreq	r0, sl, r0
    10d0:	00001082 	andeq	r1, r0, r2, lsl #1
    10d4:	0b7d018b 	bleq	1f41708 <shift+0x1f41708>
    10d8:	018c0000 	orreq	r0, ip, r0
    10dc:	00000c00 	andeq	r0, r0, r0, lsl #24
    10e0:	07f7018d 	ldrbeq	r0, [r7, sp, lsl #3]!
    10e4:	018e0000 	orreq	r0, lr, r0
    10e8:	0000136c 	andeq	r1, r0, ip, ror #6
    10ec:	0f4f018f 	svceq	0x004f018f
    10f0:	01900000 	orrseq	r0, r0, r0
    10f4:	00000e22 	andeq	r0, r0, r2, lsr #28
    10f8:	0f600191 	svceq	0x00600191
    10fc:	01920000 	orrseq	r0, r2, r0
    1100:	00000e3b 	andeq	r0, r0, fp, lsr lr
    1104:	09a20193 	stmibeq	r2!, {r0, r1, r4, r7, r8}
    1108:	01940000 	orrseq	r0, r4, r0
    110c:	0000118b 	andeq	r1, r0, fp, lsl #3
    1110:	12490195 	subne	r0, r9, #1073741861	@ 0x40000025
    1114:	01960000 	orrseq	r0, r6, r0
    1118:	00000b3b 	andeq	r0, r0, fp, lsr fp
    111c:	0d390197 	ldceq	1, cr0, [r9, #-604]!	@ 0xfffffda4
    1120:	01980000 	orrseq	r0, r8, r0
    1124:	00000af3 	strdeq	r0, [r0], -r3
    1128:	139a0199 	orrsne	r0, sl, #1073741862	@ 0x40000026
    112c:	019a0000 	orrseq	r0, sl, r0
    1130:	00000f05 	andeq	r0, r0, r5, lsl #30
    1134:	09f5019b 	ldmibeq	r5!, {r0, r1, r3, r4, r7, r8}^
    1138:	019c0000 	orrseq	r0, ip, r0
    113c:	000008a1 	andeq	r0, r0, r1, lsr #17
    1140:	1165019d 			@ <UNDEFINED> instruction: 0x1165019d
    1144:	019e0000 	orrseq	r0, lr, r0
    1148:	00000d67 	andeq	r0, r0, r7, ror #26
    114c:	be0c009f 	mcrlt	0, 0, r0, cr12, cr15, {4}
    1150:	0300000c 	tsteq	r0, #12
    1154:	011203c9 	tsteq	r2, r9, asr #7
    1158:	14150000 	ldrne	r0, [r5], #-0
    115c:	050703da 	streq	r0, [r7, #-986]	@ 0xfffffc26
    1160:	43080000 	tstmi	r8, #0
    1164:	03db0052 	bicseq	r0, fp, #82	@ 0x52
    1168:	00000079 	andeq	r0, r0, r9, ror r0
    116c:	52530800 	subspl	r0, r3, #0, 16
    1170:	7903dc00 	stmdbvc	r3, {sl, fp, ip, lr, pc}
    1174:	04000000 	streq	r0, [r0], #-0
    1178:	00524c08 	subseq	r4, r2, r8, lsl #24
    117c:	007903dd 	ldrsbeq	r0, [r9], #-61	@ 0xffffffc3	@ <UNPREDICTABLE>
    1180:	0a080000 	beq	201188 <shift+0x201188>
    1184:	0000087f 	andeq	r0, r0, pc, ror r8
    1188:	1103de03 	tstne	r3, r3, lsl #28
    118c:	00000079 	andeq	r0, r0, r9, ror r0
    1190:	4e43080c 	cdpmi	8, 4, cr0, cr3, cr12, {0}
    1194:	03df0052 	bicseq	r0, pc, #82	@ 0x52
    1198:	0000007e 	andeq	r0, r0, lr, ror r0
    119c:	580c0010 	stmdapl	ip, {r4}
    11a0:	03000013 	tsteq	r0, #19
    11a4:	04c303e0 	strbeq	r0, [r3], #992	@ 0x3e0
    11a8:	04200000 	strteq	r0, [r0], #-0
    11ac:	02070230 	andeq	r0, r7, #48, 4
    11b0:	00086009 	andeq	r6, r8, r9
    11b4:	0a300a00 	beq	c039bc <shift+0xc039bc>
    11b8:	09020000 	stmdbeq	r2, {}	@ <UNPREDICTABLE>
    11bc:	08601202 	stmdaeq	r0!, {r1, r9, ip}^
    11c0:	02000000 	andeq	r0, r0, #0
    11c4:	000012e7 	andeq	r1, r0, r7, ror #5
    11c8:	0079020a 	rsbseq	r0, r9, sl, lsl #4
    11cc:	10000000 	andne	r0, r0, r0
    11d0:	0007df02 	andeq	sp, r7, r2, lsl #30
    11d4:	7e020b00 	vmlavc.f64	d0, d2, d0
    11d8:	04000000 	streq	r0, [r0], #-0
    11dc:	0d1a0210 	ldceq	2, cr0, [sl, #-64]	@ 0xffffffc0
    11e0:	020c0000 	andeq	r0, ip, #0
    11e4:	0000007e 	andeq	r0, r0, lr, ror r0
    11e8:	3a021008 	bcc	85210 <shift+0x85210>
    11ec:	0d00000a 	stceq	0, cr0, [r0, #-40]	@ 0xffffffd8
    11f0:	00087102 	andeq	r7, r8, r2, lsl #2
    11f4:	02100c00 	andseq	r0, r0, #0, 24
    11f8:	000011c5 	andeq	r1, r0, r5, asr #3
    11fc:	0891020e 	ldmeq	r1, {r1, r2, r3, r9}
    1200:	10800000 	addne	r0, r0, r0
    1204:	000ae902 	andeq	lr, sl, r2, lsl #18
    1208:	96020f00 	strls	r0, [r2], -r0, lsl #30
    120c:	c0000008 	andgt	r0, r0, r8
    1210:	0e450210 	mcreq	2, 2, r0, cr5, cr0, {0}
    1214:	02100000 	andseq	r0, r0, #0
    1218:	00000891 	muleq	r0, r1, r8
    121c:	44021100 	strmi	r1, [r2], #-256	@ 0xffffff00
    1220:	1100000a 	tstne	r0, sl
    1224:	00089602 	andeq	r9, r8, r2, lsl #12
    1228:	02114000 	andseq	r4, r1, #0
    122c:	000010f4 	strdeq	r1, [r0], -r4
    1230:	08910212 	ldmeq	r1, {r1, r4, r9}
    1234:	11800000 	orrne	r0, r0, r0
    1238:	000a4e02 	andeq	r4, sl, r2, lsl #28
    123c:	96021300 	strls	r1, [r2], -r0, lsl #6
    1240:	c0000008 	andgt	r0, r0, r8
    1244:	0f6a0211 	svceq	0x006a0211
    1248:	02140000 	andseq	r0, r4, #0
    124c:	00000891 	muleq	r0, r1, r8
    1250:	58021200 	stmdapl	r2, {r9, ip}
    1254:	1500000a 	strne	r0, [r0, #-10]
    1258:	00089602 	andeq	r9, r8, r2, lsl #12
    125c:	02124000 	andseq	r4, r2, #0
    1260:	0000097e 	andeq	r0, r0, lr, ror r9
    1264:	08910216 	ldmeq	r1, {r1, r2, r4, r9}
    1268:	12800000 	addne	r0, r0, #0
    126c:	000a6202 	andeq	r6, sl, r2, lsl #4
    1270:	96021700 	strls	r1, [r2], -r0, lsl #14
    1274:	c0000008 	andgt	r0, r0, r8
    1278:	12950212 	addsne	r0, r5, #536870913	@ 0x20000001
    127c:	02180000 	andseq	r0, r8, #0
    1280:	00000891 	muleq	r0, r1, r8
    1284:	03021300 	tsteq	r2, #0, 6
    1288:	1900000b 	stmdbne	r0, {r0, r1, r3}
    128c:	00089602 	andeq	r9, r8, r2, lsl #12
    1290:	02134000 	andseq	r4, r3, #0
    1294:	00000b6a 	andeq	r0, r0, sl, ror #22
    1298:	0891021a 	ldmeq	r1, {r1, r3, r4, r9}
    129c:	13800000 	orrne	r0, r0, #0
    12a0:	000a7f02 	andeq	r7, sl, r2, lsl #30
    12a4:	96021b00 	strls	r1, [r2], -r0, lsl #22
    12a8:	c0000008 	andgt	r0, r0, r8
    12ac:	12ad0213 	adcne	r0, sp, #805306369	@ 0x30000001
    12b0:	021c0000 	andseq	r0, ip, #0
    12b4:	000008b7 			@ <UNDEFINED> instruction: 0x000008b7
    12b8:	89021400 	stmdbhi	r2, {sl, ip}
    12bc:	1d00000a 	stcne	0, cr0, [r0, #-40]	@ 0xffffffd8
    12c0:	0008bc02 	andeq	fp, r8, r2, lsl #24
    12c4:	02160000 	andseq	r0, r6, #0
    12c8:	00000d4f 	andeq	r0, r0, pc, asr #26
    12cc:	08b7021e 	ldmeq	r7!, {r1, r2, r3, r4, r9}
    12d0:	18000000 	stmdane	r0, {}	@ <UNPREDICTABLE>
    12d4:	00108c02 	andseq	r8, r0, r2, lsl #24
    12d8:	bc021f00 	stclt	15, cr1, [r2], {-0}
    12dc:	00000008 	andeq	r0, r0, r8
    12e0:	0fbd021a 	svceq	0x00bd021a
    12e4:	02200000 	eoreq	r0, r0, #0
    12e8:	000008dc 	ldrdeq	r0, [r0], -ip
    12ec:	97021c00 	strls	r1, [r2, -r0, lsl #24]
    12f0:	21000010 	tstcs	r0, r0, lsl r0
    12f4:	0008e102 	andeq	lr, r8, r2, lsl #2
    12f8:	021c8000 	andseq	r8, ip, #0
    12fc:	00000976 	andeq	r0, r0, r6, ror r9
    1300:	007e0222 	rsbseq	r0, lr, r2, lsr #4
    1304:	1d000000 	stcne	0, cr0, [r0, #-0]
    1308:	00104202 	andseq	r4, r0, r2, lsl #4
    130c:	06022300 	streq	r2, [r2], -r0, lsl #6
    1310:	04000009 	streq	r0, [r0], #-9
    1314:	130d021d 	tstne	sp, #-805306367	@ 0xd0000001
    1318:	02240000 	eoreq	r0, r4, #0
    131c:	0000090b 	andeq	r0, r0, fp, lsl #18
    1320:	34021d40 	strcc	r1, [r2], #-3392	@ 0xfffff2c0
    1324:	2500000b 	strcs	r0, [r0, #-11]
    1328:	00007902 	andeq	r7, r0, r2, lsl #18
    132c:	021f0000 	andseq	r0, pc, #0
    1330:	000010ac 	andeq	r1, r0, ip, lsr #1
    1334:	091b0226 	ldmdbeq	fp, {r1, r2, r5, r9}
    1338:	1f040000 	svcne	0x00040000
    133c:	000ab602 	andeq	fp, sl, r2, lsl #12
    1340:	3b022700 	blcc	8af48 <shift+0x8af48>
    1344:	10000009 	andne	r0, r0, r9
    1348:	117f021f 	cmnne	pc, pc, lsl r2	@ <UNPREDICTABLE>
    134c:	02280000 	eoreq	r0, r8, #0
    1350:	0000093b 	andeq	r0, r0, fp, lsr r9
    1354:	b7021f20 	strlt	r1, [r2, -r0, lsr #30]
    1358:	29000010 	stmdbcs	r0, {r4}
    135c:	00094002 	andeq	r4, r9, r2
    1360:	021f3000 	andseq	r3, pc, #0
    1364:	00000e59 	andeq	r0, r0, r9, asr lr
    1368:	007e022a 	rsbseq	r0, lr, sl, lsr #4
    136c:	1fd00000 	svcne	0x00d00000
    1370:	000e6102 	andeq	r6, lr, r2, lsl #2
    1374:	7e022b00 	vmlavc.f64	d2, d2, d0
    1378:	d4000000 	strle	r0, [r0], #-0
    137c:	0e69021f 	mcreq	2, 3, r0, cr9, cr15, {0}
    1380:	022c0000 	eoreq	r0, ip, #0
    1384:	0000007e 	andeq	r0, r0, lr, ror r0
    1388:	71021fd8 	ldrdvc	r1, [r2, -r8]
    138c:	2d00000e 	stccs	0, cr0, [r0, #-56]	@ 0xffffffc8
    1390:	00007e02 	andeq	r7, r0, r2, lsl #28
    1394:	021fdc00 	andseq	sp, pc, #0, 24
    1398:	00000e33 	andeq	r0, r0, r3, lsr lr
    139c:	007e022e 	rsbseq	r0, lr, lr, lsr #4
    13a0:	1fe00000 	svcne	0x00e00000
    13a4:	00084802 	andeq	r4, r8, r2, lsl #16
    13a8:	7e022f00 	cdpvc	15, 0, cr2, cr2, cr0, {0}
    13ac:	e4000000 	str	r0, [r0], #-0
    13b0:	0850021f 	ldmdaeq	r0, {r0, r1, r2, r3, r4, r9}^
    13b4:	02300000 	eorseq	r0, r0, #0
    13b8:	0000007e 	andeq	r0, r0, lr, ror r0
    13bc:	51021fe8 	smlattpl	r2, r8, pc, r1	@ <UNPREDICTABLE>
    13c0:	3100000e 	tstcc	r0, lr
    13c4:	00007e02 	andeq	r7, r0, r2, lsl #28
    13c8:	021fec00 	andseq	lr, pc, #0, 24
    13cc:	00000e9c 	muleq	r0, ip, lr
    13d0:	007e0232 	rsbseq	r0, lr, r2, lsr r2
    13d4:	1ff00000 	svcne	0x00f00000	@ IMB
    13d8:	000ea402 	andeq	sl, lr, r2, lsl #8
    13dc:	7e023300 	cdpvc	3, 0, cr3, cr2, cr0, {0}
    13e0:	f4000000 	vst4.8	{d0-d3}, [r0], r0
    13e4:	0eac021f 	mcreq	2, 5, r0, cr12, cr15, {0}
    13e8:	02340000 	eorseq	r0, r4, #0
    13ec:	0000007e 	andeq	r0, r0, lr, ror r0
    13f0:	b4021ff8 	strlt	r1, [r2], #-4088	@ 0xfffff008
    13f4:	3500000e 	strcc	r0, [r0, #-14]
    13f8:	00007e02 	andeq	r7, r0, r2, lsl #28
    13fc:	021ffc00 	andseq	pc, pc, #0, 24
    1400:	00000b76 	andeq	r0, r0, r6, ror fp
    1404:	00790237 	rsbseq	r0, r9, r7, lsr r2
    1408:	20000000 	andcs	r0, r0, r0
    140c:	00125d02 	andseq	r5, r2, r2, lsl #26
    1410:	79023800 	stmdbvc	r2, {fp, ip, sp}
    1414:	04000000 	streq	r0, [r0], #-0
    1418:	0c2b0220 	stceq	2, cr0, [fp], #-128	@ 0xffffff80
    141c:	02390000 	eorseq	r0, r9, #0
    1420:	00000079 	andeq	r0, r0, r9, ror r0
    1424:	58022008 	stmdapl	r2, {r3, sp}
    1428:	3a000008 	bcc	1450 <shift+0x1450>
    142c:	00007e02 	andeq	r7, r0, r2, lsl #28
    1430:	02200c00 	eoreq	r0, r0, #0, 24
    1434:	000009ee 	andeq	r0, r0, lr, ror #19
    1438:	0079023b 	rsbseq	r0, r9, fp, lsr r2
    143c:	20100000 	andscs	r0, r0, r0
    1440:	000c2502 	andeq	r2, ip, r2, lsl #10
    1444:	7e023c00 	cdpvc	12, 0, cr3, cr2, cr0, {0}
    1448:	14000000 	strne	r0, [r0], #-0
    144c:	0c850220 	stceq	2, cr0, [r5], {32}
    1450:	023d0000 	eorseq	r0, sp, #0
    1454:	0000007e 	andeq	r0, r0, lr, ror r0
    1458:	be022018 	mcrlt	0, 0, r2, cr2, cr8, {0}
    145c:	3e000011 	mcrcc	0, 0, r0, cr0, cr1, {0}
    1460:	00007902 	andeq	r7, r0, r2, lsl #18
    1464:	02201c00 	eoreq	r1, r0, #0, 24
    1468:	00000b0d 	andeq	r0, r0, sp, lsl #22
    146c:	007e023f 	rsbseq	r0, lr, pc, lsr r2
    1470:	20200000 	eorcs	r0, r0, r0
    1474:	00112f02 	andseq	r2, r1, r2, lsl #30
    1478:	79024000 	stmdbvc	r2, {lr}
    147c:	24000000 	strcs	r0, [r0], #-0
    1480:	12540220 	subsne	r0, r4, #32, 4
    1484:	02410000 	subeq	r0, r1, #0
    1488:	0000007e 	andeq	r0, r0, lr, ror r0
    148c:	18022028 	stmdane	r2, {r3, r5, sp}
    1490:	42000013 	andmi	r0, r0, #19
    1494:	00095002 	andeq	r5, r9, r2
    1498:	02202c00 	eoreq	r2, r0, #0, 24
    149c:	00000fcd 	andeq	r0, r0, sp, asr #31
    14a0:	00790243 	rsbseq	r0, r9, r3, asr #4
    14a4:	20d00000 	sbcscs	r0, r0, r0
    14a8:	0010cd02 	andseq	ip, r0, r2, lsl #26
    14ac:	1b024400 	blne	924b4 <shift+0x924b4>
    14b0:	d4000009 	strle	r0, [r0], #-9
    14b4:	09940220 	ldmibeq	r4, {r5, r9}
    14b8:	02450000 	subeq	r0, r5, #0
    14bc:	00000079 	andeq	r0, r0, r9, ror r0
    14c0:	d80220e0 	stmdale	r2, {r5, r6, r7, sp}
    14c4:	46000010 			@ <UNDEFINED> instruction: 0x46000010
    14c8:	00096002 	andeq	r6, r9, r2
    14cc:	0220e400 	eoreq	lr, r0, #0, 8
    14d0:	00001233 	andeq	r1, r0, r3, lsr r2
    14d4:	007e0247 	rsbseq	r0, lr, r7, asr #4
    14d8:	20fc0000 	rscscs	r0, ip, r0
    14dc:	0010e302 	andseq	lr, r0, r2, lsl #6
    14e0:	70024800 	andvc	r4, r2, r0, lsl #16
    14e4:	00000009 	andeq	r0, r0, r9
    14e8:	10ee0221 	rscne	r0, lr, r1, lsr #4
    14ec:	02490000 	subeq	r0, r9, #0
    14f0:	00000079 	andeq	r0, r0, r9, ror r0
    14f4:	03003000 	tsteq	r0, #0
    14f8:	0000006d 	andeq	r0, r0, sp, rrx
    14fc:	00000871 	andeq	r0, r0, r1, ror r8
    1500:	0000830f 	andeq	r8, r0, pc, lsl #6
    1504:	0003ff00 	andeq	pc, r3, r0, lsl #30
    1508:	00006d03 	andeq	r6, r0, r3, lsl #26
    150c:	00088100 	andeq	r8, r8, r0, lsl #2
    1510:	00830400 	addeq	r0, r3, r0, lsl #8
    1514:	001c0000 	andseq	r0, ip, r0
    1518:	00007903 	andeq	r7, r0, r3, lsl #18
    151c:	00089100 	andeq	r9, r8, r0, lsl #2
    1520:	00830400 	addeq	r0, r3, r0, lsl #8
    1524:	000f0000 	andeq	r0, pc, r0
    1528:	00088107 	andeq	r8, r8, r7, lsl #2
    152c:	006d0300 	rsbeq	r0, sp, r0, lsl #6
    1530:	08a60000 	stmiaeq	r6!, {}	@ <UNPREDICTABLE>
    1534:	83040000 	tsthi	r4, #0
    1538:	0f000000 	svceq	0x00000000
    153c:	005a0300 	subseq	r0, sl, r0, lsl #6
    1540:	08b70000 	ldmeq	r7!, {}	@ <UNPREDICTABLE>
    1544:	830f0000 	tsthi	pc, #0
    1548:	ff000000 			@ <UNDEFINED> instruction: 0xff000000
    154c:	a6070001 	strge	r0, [r7], -r1
    1550:	03000008 	tsteq	r0, #8
    1554:	0000006d 	andeq	r0, r0, sp, rrx
    1558:	000008cc 	andeq	r0, r0, ip, asr #17
    155c:	00008304 	andeq	r8, r0, r4, lsl #6
    1560:	03007f00 	tsteq	r0, #0, 30
    1564:	00000079 	andeq	r0, r0, r9, ror r0
    1568:	000008dc 	ldrdeq	r0, [r0], -ip
    156c:	00008304 	andeq	r8, r0, r4, lsl #6
    1570:	07001f00 	streq	r1, [r0, -r0, lsl #30]
    1574:	000008cc 	andeq	r0, r0, ip, asr #17
    1578:	00006d03 	andeq	r6, r0, r3, lsl #26
    157c:	0008f100 	andeq	pc, r8, r0, lsl #2
    1580:	00830400 	addeq	r0, r3, r0, lsl #8
    1584:	001f0000 	andseq	r0, pc, r0
    1588:	00007e03 	andeq	r7, r0, r3, lsl #28
    158c:	00090100 	andeq	r0, r9, r0, lsl #2
    1590:	00830400 	addeq	r0, r3, r0, lsl #8
    1594:	000e0000 	andeq	r0, lr, r0
    1598:	0008f114 	andeq	pc, r8, r4, lsl r1	@ <UNPREDICTABLE>
    159c:	09010700 	stmdbeq	r1, {r8, r9, sl}
    15a0:	6d030000 	stcvs	0, cr0, [r3, #-0]
    15a4:	1b000000 	blne	15ac <shift+0x15ac>
    15a8:	04000009 	streq	r0, [r0], #-9
    15ac:	00000083 	andeq	r0, r0, r3, lsl #1
    15b0:	6d03006f 	stcvs	0, cr0, [r3, #-444]	@ 0xfffffe44
    15b4:	2b000000 	blcs	15bc <shift+0x15bc>
    15b8:	04000009 	streq	r0, [r0], #-9
    15bc:	00000083 	andeq	r0, r0, r3, lsl #1
    15c0:	5a030002 	bpl	c15d0 <shift+0xc15d0>
    15c4:	3b000000 	blcc	15cc <shift+0x15cc>
    15c8:	04000009 	streq	r0, [r0], #-9
    15cc:	00000083 	andeq	r0, r0, r3, lsl #1
    15d0:	2b07000f 	blcs	1c1614 <shift+0x1c1614>
    15d4:	03000009 	tsteq	r0, #9
    15d8:	0000006d 	andeq	r0, r0, sp, rrx
    15dc:	00000950 	andeq	r0, r0, r0, asr r9
    15e0:	00008304 	andeq	r8, r0, r4, lsl #6
    15e4:	03002700 	tsteq	r0, #0, 14
    15e8:	0000006d 	andeq	r0, r0, sp, rrx
    15ec:	00000960 	andeq	r0, r0, r0, ror #18
    15f0:	00008304 	andeq	r8, r0, r4, lsl #6
    15f4:	03002800 	tsteq	r0, #0, 16
    15f8:	0000006d 	andeq	r0, r0, sp, rrx
    15fc:	00000970 	andeq	r0, r0, r0, ror r9
    1600:	00008304 	andeq	r8, r0, r4, lsl #6
    1604:	03000500 	tsteq	r0, #0, 10
    1608:	0000006d 	andeq	r0, r0, sp, rrx
    160c:	00000981 	andeq	r0, r0, r1, lsl #19
    1610:	0000830f 	andeq	r8, r0, pc, lsl #6
    1614:	0003bf00 	andeq	fp, r3, r0, lsl #30
    1618:	0009020c 	andeq	r0, r9, ip, lsl #4
    161c:	024a0200 	subeq	r0, sl, #0, 4
    1620:	00000513 	andeq	r0, r0, r3, lsl r5
    1624:	000ba60b 	andeq	sl, fp, fp, lsl #12
    1628:	10060400 	andne	r0, r6, r0, lsl #8
    162c:	00000999 	muleq	r0, r9, r9
    1630:	00099e10 	andeq	r9, r9, r0, lsl lr
    1634:	09ae2100 	stmibeq	lr!, {r8, sp}
    1638:	6d090000 	stcvs	0, cr0, [r9, #-0]
    163c:	09000000 	stmdbeq	r0, {}	@ <UNPREDICTABLE>
    1640:	000009ae 	andeq	r0, r0, lr, lsr #19
    1644:	06042200 	streq	r2, [r4], -r0, lsl #4
    1648:	00de0801 	sbcseq	r0, lr, r1, lsl #16
    164c:	63110000 	tstvs	r1, #0
    1650:	05000012 	streq	r0, [r0, #-18]	@ 0xffffffee
    1654:	0009c812 	andeq	ip, r9, r2, lsl r8
    1658:	09c80900 	stmibeq	r8, {r8, fp}^
    165c:	10000000 	andne	r0, r0, r0
    1660:	0000004e 	andeq	r0, r0, lr, asr #32
    1664:	00034812 	andeq	r4, r3, r2, lsl r8
    1668:	11080700 	tstne	r8, r0, lsl #14
    166c:	000008c4 	andeq	r0, r0, r4, asr #17
    1670:	09e50706 	stmibeq	r5!, {r1, r2, r8, r9, sl}^
    1674:	8a090000 	bhi	24167c <shift+0x24167c>
    1678:	00000000 	andeq	r0, r0, r0
    167c:	00031a12 	andeq	r1, r3, r2, lsl sl
    1680:	12070700 	andne	r0, r7, #0, 14
    1684:	000012c9 	andeq	r1, r0, r9, asr #5
    1688:	76110908 	ldrvc	r0, [r1], -r8, lsl #18
    168c:	04000013 	streq	r0, [r0], #-19	@ 0xffffffed
    1690:	000a0e0e 	andeq	r0, sl, lr, lsl #28
    1694:	098d0900 	stmibeq	sp, {r8, fp}
    1698:	b7090000 	strlt	r0, [r9, -r0]
    169c:	09000004 	stmdbeq	r0, {r2}
    16a0:	000009ae 	andeq	r0, r0, lr, lsr #19
    16a4:	0d2a1300 	stceq	3, cr1, [sl, #-0]
    16a8:	8c740000 	ldclhi	0, cr0, [r4], #-0
    16ac:	8487801b 	strhi	r8, [r7], #27
    16b0:	01000000 	mrseq	r0, (UNDEF: 0)
    16b4:	000a319c 	muleq	sl, ip, r1
    16b8:	0a060500 	beq	182ac0 <shift+0x182ac0>
    16bc:	1e740000 	cdpne	0, 7, cr0, cr4, cr0, {0}
    16c0:	0000006d 	andeq	r0, r0, sp, rrx
    16c4:	00749102 	rsbseq	r9, r4, r2, lsl #2
    16c8:	000dc913 	andeq	ip, sp, r3, lsl r9
    16cc:	1b286500 	blne	a1aad4 <shift+0xa1aad4>
    16d0:	00648780 	rsbeq	r8, r4, r0, lsl #15
    16d4:	9c010000 	stcls	0, cr0, [r1], {-0}
    16d8:	00000a54 	andeq	r0, r0, r4, asr sl
    16dc:	0014d605 	andseq	sp, r4, r5, lsl #12
    16e0:	6d1b6500 	ldcvs	5, cr6, [fp, #-0]
    16e4:	02000000 	andeq	r0, r0, #0
    16e8:	16007491 			@ <UNDEFINED> instruction: 0x16007491
    16ec:	000012a1 	andeq	r1, r0, r1, lsr #5
    16f0:	801af860 	andshi	pc, sl, r0, ror #16
    16f4:	00003087 	andeq	r3, r0, r7, lsl #1
    16f8:	0d9c0100 	ldceq	1, cr0, [ip]
    16fc:	0000086d 	andeq	r0, r0, sp, ror #16
    1700:	801a5051 	andshi	r5, sl, r1, asr r0
    1704:	0000a887 	andeq	sl, r0, r7, lsl #17
    1708:	ae9c0100 	cdpge	1, 9, cr0, cr12, cr0, {0}
    170c:	0500000a 	streq	r0, [r0, #-10]
    1710:	00000fc5 	andeq	r0, r0, r5, asr #31
    1714:	006d2151 	rsbeq	r2, sp, r1, asr r1
    1718:	91020000 	mrsls	r0, (UNDEF: 2)
    171c:	107b056c 	rsbsne	r0, fp, ip, ror #10
    1720:	30510000 	subscc	r0, r1, r0
    1724:	000009ae 	andeq	r0, r0, lr, lsr #19
    1728:	23689102 	cmncs	r8, #-2147483648	@ 0x80000000
    172c:	87801a78 			@ <UNDEFINED> instruction: 0x87801a78
    1730:	00000064 	andeq	r0, r0, r4, rrx
    1734:	000d8624 	andeq	r8, sp, r4, lsr #12
    1738:	0d540100 	ldcleq	1, cr0, [r4, #-0]
    173c:	00000040 	andeq	r0, r0, r0, asr #32
    1740:	00749102 	rsbseq	r9, r4, r2, lsl #2
    1744:	099d2500 	ldmibeq	sp, {r8, sl, sp}
    1748:	4b010000 	blmi	41750 <shift+0x41750>
    174c:	00006d0a 	andeq	r6, r0, sl, lsl #26
    1750:	801a2c00 	andshi	r2, sl, r0, lsl #24
    1754:	00002487 	andeq	r2, r0, r7, lsl #9
    1758:	0d9c0100 	ldceq	1, cr0, [ip]
    175c:	00000a1b 	andeq	r0, r0, fp, lsl sl
    1760:	80190838 	andshi	r0, r9, r8, lsr r8
    1764:	00012487 	andeq	r2, r1, r7, lsl #9
    1768:	379c0100 	ldrcc	r0, [ip, r0, lsl #2]
    176c:	0500000b 	streq	r0, [r0, #-11]
    1770:	000007da 	ldrdeq	r0, [r0], -sl
    1774:	006d1a38 	rsbeq	r1, sp, r8, lsr sl
    1778:	91020000 	mrsls	r0, (UNDEF: 2)
    177c:	646c1764 	strbtvs	r1, [ip], #-1892	@ 0xfffff89c
    1780:	6d380072 	ldcvs	0, cr0, [r8, #-456]!	@ 0xfffffe38
    1784:	02000000 	andeq	r0, r0, #0
    1788:	0e186091 	mrceq	0, 0, r6, cr8, cr1, {4}
    178c:	b800000c 	stmdalt	r0, {r2, r3}
    1790:	44878019 	strmi	r8, [r7], #25
    1794:	45000000 	strmi	r0, [r0, #-0]
    1798:	000c1c19 	andeq	r1, ip, r9, lsl ip
    179c:	6c910200 	ldcvs	2, cr0, [r1], {0}
    17a0:	000c290e 	andeq	r2, ip, lr, lsl #18
    17a4:	74910200 	ldrvc	r0, [r1], #512	@ 0x200
    17a8:	000c3c1a 	andeq	r3, ip, sl, lsl ip
    17ac:	8019b800 	andshi	fp, r9, r0, lsl #16
    17b0:	00001087 	andeq	r1, r0, r7, lsl #1
    17b4:	0c4a1b00 	mcrreq	11, 0, r1, sl, cr0
    17b8:	19b80000 	ldmibne	r8!, {}	@ <UNPREDICTABLE>
    17bc:	000c8780 	andeq	r8, ip, r0, lsl #15
    17c0:	4b0e0000 	blmi	3817c8 <shift+0x3817c8>
    17c4:	0200000c 	andeq	r0, r0, #12
    17c8:	00007091 	muleq	r0, r1, r0
    17cc:	88130000 	ldmdahi	r3, {}	@ <UNPREDICTABLE>
    17d0:	29000009 	stmdbcs	r0, {r0, r3}
    17d4:	8780184c 	strhi	r1, [r0, ip, asr #16]
    17d8:	000000bc 	strheq	r0, [r0], -ip
    17dc:	0b5a9c01 	bleq	16a87e8 <shift+0x16a87e8>
    17e0:	d6050000 	strle	r0, [r5], -r0
    17e4:	29000014 	stmdbcs	r0, {r2, r4}
    17e8:	00006d1b 	andeq	r6, r0, fp, lsl sp
    17ec:	74910200 	ldrvc	r0, [r1], #512	@ 0x200
    17f0:	12271600 	eorne	r1, r7, #0, 12
    17f4:	10240000 	eorne	r0, r4, r0
    17f8:	3c878018 	stccc	0, cr8, [r7], {24}
    17fc:	01000000 	mrseq	r0, (UNDEF: 0)
    1800:	08840d9c 	stmeq	r4, {r2, r3, r4, r7, r8, sl, fp}
    1804:	c01c0000 	andsgt	r0, ip, r0
    1808:	50878017 	addpl	r8, r7, r7, lsl r0
    180c:	01000000 	mrseq	r0, (UNDEF: 0)
    1810:	000b9b9c 	muleq	fp, ip, fp
    1814:	0fc50500 	svceq	0x00c50500
    1818:	211c0000 	tstcs	ip, r0
    181c:	0000006d 	andeq	r0, r0, sp, rrx
    1820:	05749102 	ldrbeq	r9, [r4, #-258]!	@ 0xfffffefe
    1824:	0000107b 	andeq	r1, r0, fp, ror r0
    1828:	09ae301c 	stmibeq	lr!, {r2, r3, r4, ip, sp}
    182c:	91020000 	mrsls	r0, (UNDEF: 2)
    1830:	220d0070 	andcs	r0, sp, #112	@ 0x70
    1834:	0900000f 	stmdbeq	r0, {r0, r1, r2, r3}
    1838:	87801688 	strhi	r1, [r0, r8, lsl #13]
    183c:	00000138 	andeq	r0, r0, r8, lsr r1
    1840:	0c0e9c01 	stceq	12, cr9, [lr], {1}
    1844:	da050000 	ble	14184c <shift+0x14184c>
    1848:	09000007 	stmdbeq	r0, {r0, r1, r2}
    184c:	00006d1a 	andeq	r6, r0, sl, lsl sp
    1850:	64910200 	ldrvs	r0, [r1], #512	@ 0x200
    1854:	72646c17 	rsbvc	r6, r4, #5888	@ 0x1700
    1858:	006d0900 	rsbeq	r0, sp, r0, lsl #18
    185c:	91020000 	mrsls	r0, (UNDEF: 2)
    1860:	0c0e1860 	stceq	8, cr1, [lr], {96}	@ 0x60
    1864:	17380000 	ldrne	r0, [r8, -r0]!
    1868:	00448780 	subeq	r8, r4, r0, lsl #15
    186c:	19160000 	ldmdbne	r6, {}	@ <UNPREDICTABLE>
    1870:	00000c1c 	andeq	r0, r0, ip, lsl ip
    1874:	0e6c9102 	cdpeq	1, 6, cr9, cr12, cr2, {0}
    1878:	00000c29 	andeq	r0, r0, r9, lsr #24
    187c:	1a749102 	bne	1d25c8c <shift+0x1d25c8c>
    1880:	00000c3c 	andeq	r0, r0, ip, lsr ip
    1884:	87801738 			@ <UNDEFINED> instruction: 0x87801738
    1888:	00000010 	andeq	r0, r0, r0, lsl r0
    188c:	000c4a1b 	andeq	r4, ip, fp, lsl sl
    1890:	80173800 	andshi	r3, r7, r0, lsl #16
    1894:	00000c87 	andeq	r0, r0, r7, lsl #25
    1898:	0c4b0e00 	mcrreq	14, 0, r0, fp, cr0
    189c:	91020000 	mrsls	r0, (UNDEF: 2)
    18a0:	00000070 	andeq	r0, r0, r0, ror r0
    18a4:	12692600 	rsbne	r2, r9, #0, 12
    18a8:	69020000 	stmdbvs	r2, {}	@ <UNPREDICTABLE>
    18ac:	37032302 	strcc	r2, [r3, -r2, lsl #6]
    18b0:	2700000c 	strcs	r0, [r0, -ip]
    18b4:	00000ef2 	strdeq	r0, [r0], -r2
    18b8:	3b026902 	blcc	9bcc8 <shift+0x9bcc8>
    18bc:	000004b7 			@ <UNDEFINED> instruction: 0x000004b7
    18c0:	63696728 	cmnvs	r9, #40, 14	@ 0xa00000
    18c4:	026b0200 	rsbeq	r0, fp, #0, 4
    18c8:	000c370d 	andeq	r3, ip, sp, lsl #14
    18cc:	81100000 	tsthi	r0, r0
    18d0:	29000009 	stmdbcs	r0, {r0, r3}
    18d4:	00000fa2 	andeq	r0, r0, r2, lsr #31
    18d8:	2701ff02 	strcs	pc, [r1, -r2, lsl #30]
    18dc:	0000006d 	andeq	r0, r0, sp, rrx
    18e0:	fd2b2a03 	stc2	10, cr2, [fp, #-12]!	@ <UNPREDICTABLE>
    18e4:	02000011 	andeq	r0, r0, #17
    18e8:	6d0a0201 	stcvs	2, cr0, [sl, #-4]
    18ec:	00000000 	andeq	r0, r0, r0
    18f0:	00a20000 	adceq	r0, r2, r0
    18f4:	00050000 	andeq	r0, r5, r0
    18f8:	06800401 	streq	r0, [r0], r1, lsl #8
    18fc:	2b030000 	blcs	c1904 <shift+0xc1904>
    1900:	1d000000 	stcne	0, cr0, [r0, #-0]
    1904:	000013de 	ldrdeq	r1, [r0], -lr
    1908:	00000089 	andeq	r0, r0, r9, lsl #1
    190c:	87801c10 	usada8hi	r0, r0, ip, r1
    1910:	00000080 	andeq	r0, r0, r0, lsl #1
    1914:	0000071d 	andeq	r0, r0, sp, lsl r7
    1918:	d7060101 	strle	r0, [r6, -r1, lsl #2]
    191c:	01000000 	mrseq	r0, (UNDEF: 0)
    1920:	01fa0502 	mvnseq	r0, r2, lsl #10
    1924:	04040000 	streq	r0, [r4], #-0
    1928:	746e6905 	strbtvc	r6, [lr], #-2309	@ 0xfffff6fb
    192c:	05080100 	streq	r0, [r8, #-256]	@ 0xffffff00
    1930:	000001b5 			@ <UNDEFINED> instruction: 0x000001b5
    1934:	d5080101 	strle	r0, [r8, #-257]	@ 0xfffffeff
    1938:	01000000 	mrseq	r0, (UNDEF: 0)
    193c:	00e30702 	rsceq	r0, r3, r2, lsl #14
    1940:	04010000 	streq	r0, [r1], #-0
    1944:	00018607 	andeq	r8, r1, r7, lsl #12
    1948:	00500500 	subseq	r0, r0, r0, lsl #10
    194c:	08010000 	stmdaeq	r1, {}	@ <UNPREDICTABLE>
    1950:	00017c07 	andeq	r7, r1, r7, lsl #24
    1954:	08c40600 	stmiaeq	r4, {r9, sl}^
    1958:	0b010000 	bleq	41960 <shift+0x41960>
    195c:	801c4c06 	andshi	r4, ip, r6, lsl #24
    1960:	00004487 	andeq	r4, r0, r7, lsl #9
    1964:	869c0100 	ldrhi	r0, [ip], r0, lsl #2
    1968:	02000000 	andeq	r0, r0, #0
    196c:	220b006e 	andcs	r0, fp, #110	@ 0x6e
    1970:	00000057 	andeq	r0, r0, r7, asr r0
    1974:	00749102 	rsbseq	r9, r4, r2, lsl #2
    1978:	0013ef07 	andseq	lr, r3, r7, lsl #30
    197c:	06030100 	streq	r0, [r3], -r0, lsl #2
    1980:	87801c10 	usada8hi	r0, r0, ip, r1
    1984:	0000003c 	andeq	r0, r0, ip, lsr r0
    1988:	6e029c01 	cdpvs	12, 0, cr9, cr2, cr1, {0}
    198c:	57280300 	strpl	r0, [r8, -r0, lsl #6]!
    1990:	02000000 	andeq	r0, r0, #0
    1994:	00007491 	muleq	r0, r1, r4
    1998:	00000af3 	strdeq	r0, [r0], -r3
    199c:	04010005 	streq	r0, [r1], #-5
    19a0:	000006f7 	strdeq	r0, [r0], -r7
    19a4:	00002b15 	andeq	r2, r0, r5, lsl fp
    19a8:	14551d00 	ldrbne	r1, [r5], #-3328	@ 0xfffff300
    19ac:	00890000 	addeq	r0, r9, r0
    19b0:	1c900000 	ldcne	0, cr0, [r0], {0}
    19b4:	029c8780 	addseq	r8, ip, #128, 14	@ 0x2000000
    19b8:	07810000 	streq	r0, [r1, r0]
    19bc:	01050000 	mrseq	r0, (UNDEF: 5)
    19c0:	0000d706 	andeq	sp, r0, r6, lsl #14
    19c4:	05020500 	streq	r0, [r2, #-1280]	@ 0xfffffb00
    19c8:	000001fa 	strdeq	r0, [r0], -sl
    19cc:	69050416 	stmdbvs	r5, {r1, r2, r4, sl}
    19d0:	0500746e 	streq	r7, [r0, #-1134]	@ 0xfffffb92
    19d4:	01b50508 			@ <UNDEFINED> instruction: 0x01b50508
    19d8:	93080000 	tstls	r8, #0
    19dc:	03000001 	tsteq	r0, #1
    19e0:	00531722 	subseq	r1, r3, r2, lsr #14
    19e4:	42060000 	andmi	r0, r6, #0
    19e8:	05000000 	streq	r0, [r0, #-0]
    19ec:	00d50801 	sbcseq	r0, r5, r1, lsl #16
    19f0:	02050000 	andeq	r0, r5, #0
    19f4:	0000e307 	andeq	lr, r0, r7, lsl #6
    19f8:	02290800 	eoreq	r0, r9, #0, 16
    19fc:	24030000 	strcs	r0, [r3], #-0
    1a00:	00007716 	andeq	r7, r0, r6, lsl r7
    1a04:	00610600 	rsbeq	r0, r1, r0, lsl #12
    1a08:	6d0c0000 	stcvs	0, cr0, [ip, #-0]
    1a0c:	05000000 	streq	r0, [r0, #-0]
    1a10:	01860704 	orreq	r0, r6, r4, lsl #14
    1a14:	08050000 	stmdaeq	r5, {}	@ <UNPREDICTABLE>
    1a18:	00017c07 	andeq	r7, r1, r7, lsl #24
    1a1c:	0ef21700 	cdpeq	7, 15, cr1, cr2, cr0, {0}
    1a20:	04050000 	streq	r0, [r5], #-0
    1a24:	00000034 	andeq	r0, r0, r4, lsr r0
    1a28:	0e032b03 	vmlaeq.f64	d2, d3, d3
    1a2c:	0000042a 	andeq	r0, r0, sl, lsr #8
    1a30:	00132318 	andseq	r2, r3, r8, lsl r3
    1a34:	017f8000 	cmneq	pc, r0
    1a38:	00000bdd 	ldrdeq	r0, [r0], -sp
    1a3c:	0b250100 	bleq	941e44 <shift+0x941e44>
    1a40:	01010000 	mrseq	r0, (UNDEF: 1)
    1a44:	000012ba 			@ <UNDEFINED> instruction: 0x000012ba
    1a48:	0daf0102 	stceq	1, cr0, [pc, #8]!	@ 1a58 <shift+0x1a58>
    1a4c:	01030000 	mrseq	r0, (UNDEF: 3)
    1a50:	00000cf1 	strdeq	r0, [r0], -r1
    1a54:	085e0104 	ldmdaeq	lr, {r2, r8}^
    1a58:	01050000 	mrseq	r0, (UNDEF: 5)
    1a5c:	00001057 	andeq	r1, r0, r7, asr r0
    1a60:	0f930106 	svceq	0x00930106
    1a64:	01070000 	mrseq	r0, (UNDEF: 7)
    1a68:	00000aa7 	andeq	r0, r0, r7, lsr #21
    1a6c:	123a0108 	eorsne	r0, sl, #8, 2
    1a70:	01090000 	mrseq	r0, (UNDEF: 9)
    1a74:	00001331 	andeq	r1, r0, r1, lsr r3
    1a78:	1285010a 	addne	r0, r5, #-2147483646	@ 0x80000002
    1a7c:	010b0000 	mrseq	r0, (UNDEF: 11)
    1a80:	00000d8e 	andeq	r0, r0, lr, lsl #27
    1a84:	090b010c 	stmdbeq	fp, {r2, r3, r8}
    1a88:	010d0000 	mrseq	r0, (UNDEF: 13)
    1a8c:	00000838 	andeq	r0, r0, r8, lsr r8
    1a90:	1019010e 	andsne	r0, r9, lr, lsl #2
    1a94:	010f0000 	mrseq	r0, CPSR
    1a98:	00000f37 	andeq	r0, r0, r7, lsr pc
    1a9c:	10660119 	rsbne	r0, r6, r9, lsl r1
    1aa0:	011a0000 	tsteq	sl, r0
    1aa4:	000008b2 			@ <UNDEFINED> instruction: 0x000008b2
    1aa8:	0a6c011b 	beq	1b01f1c <shift+0x1b01f1c>
    1aac:	011c0000 	tsteq	ip, r0
    1ab0:	00000bc9 	andeq	r0, r0, r9, asr #23
    1ab4:	0bc6011d 	bleq	ff181f30 <__bss_end+0x7797eeec>
    1ab8:	011e0000 	tsteq	lr, r0
    1abc:	0000091b 	andeq	r0, r0, fp, lsl r9
    1ac0:	0d5b011f 	ldcleq	1, cr0, [fp, #-124]	@ 0xffffff84
    1ac4:	01200000 			@ <UNDEFINED> instruction: 0x01200000
    1ac8:	000011aa 	andeq	r1, r0, sl, lsr #3
    1acc:	0a260121 	beq	981f58 <shift+0x981f58>
    1ad0:	01220000 			@ <UNDEFINED> instruction: 0x01220000
    1ad4:	00000de5 	andeq	r0, r0, r5, ror #27
    1ad8:	0c5f0123 	mrrceq	1, 2, r0, pc, cr3	@ <UNPREDICTABLE>
    1adc:	01240000 			@ <UNDEFINED> instruction: 0x01240000
    1ae0:	00000dbe 			@ <UNDEFINED> instruction: 0x00000dbe
    1ae4:	07d00125 	ldrbeq	r0, [r0, r5, lsr #2]
    1ae8:	01260000 			@ <UNDEFINED> instruction: 0x01260000
    1aec:	00000c8d 	andeq	r0, r0, sp, lsl #25
    1af0:	11ef0127 	mvnne	r0, r7, lsr #2
    1af4:	01280000 			@ <UNDEFINED> instruction: 0x01280000
    1af8:	00000caf 	andeq	r0, r0, pc, lsr #25
    1afc:	08290129 	stmdaeq	r9!, {r0, r3, r5, r8}
    1b00:	012a0000 			@ <UNDEFINED> instruction: 0x012a0000
    1b04:	00000c0a 	andeq	r0, r0, sl, lsl #24
    1b08:	13ce012b 	bicne	r0, lr, #-1073741814	@ 0xc000000a
    1b0c:	012c0000 			@ <UNDEFINED> instruction: 0x012c0000
    1b10:	00000f2d 	andeq	r0, r0, sp, lsr #30
    1b14:	12ee012d 	rscne	r0, lr, #1073741835	@ 0x4000000b
    1b18:	012e0000 			@ <UNDEFINED> instruction: 0x012e0000
    1b1c:	00000ffa 	strdeq	r0, [r0], -sl
    1b20:	1153012f 	cmpne	r3, pc, lsr #2
    1b24:	01300000 	teqeq	r0, r0
    1b28:	00000896 	muleq	r0, r6, r8
    1b2c:	0cc80131 	stcleq	1, cr0, [r8], {49}	@ 0x31
    1b30:	01320000 	teqeq	r2, r0
    1b34:	00001341 	andeq	r1, r0, r1, asr #6
    1b38:	12d40133 	sbcsne	r0, r4, #-1073741812	@ 0xc000000c
    1b3c:	01340000 	teqeq	r4, r0
    1b40:	00001176 	andeq	r1, r0, r6, ror r1
    1b44:	09d10135 	ldmibeq	r1, {r0, r2, r4, r5, r8}^
    1b48:	01360000 	teqeq	r6, r0
    1b4c:	00000933 	andeq	r0, r0, r3, lsr r9
    1b50:	0ed90137 	mrceq	1, 6, r0, cr9, cr7, {1}
    1b54:	01380000 	teqeq	r8, r0
    1b58:	0000104a 	andeq	r1, r0, sl, asr #32
    1b5c:	0c310139 	ldceq	1, cr0, [r1], #-228	@ 0xffffff1c
    1b60:	013a0000 	teqeq	sl, r0
    1b64:	00000b88 	andeq	r0, r0, r8, lsl #23
    1b68:	12f8013b 	rscsne	r0, r8, #-1073741810	@ 0xc000000e
    1b6c:	013c0000 	teqeq	ip, r0
    1b70:	00000dee 	andeq	r0, r0, lr, ror #27
    1b74:	0d44013d 	stcleq	1, cr0, [r4, #-244]	@ 0xffffff0c
    1b78:	013e0000 	teqeq	lr, r0
    1b7c:	00001147 	andeq	r1, r0, r7, asr #2
    1b80:	0fd4013f 	svceq	0x00d4013f
    1b84:	01400000 	mrseq	r0, (UNDEF: 64)
    1b88:	00000f16 	andeq	r0, r0, r6, lsl pc
    1b8c:	0a0f0141 	beq	3c2098 <shift+0x3c2098>
    1b90:	01420000 	mrseq	r0, (UNDEF: 66)
    1b94:	000011a0 	andeq	r1, r0, r0, lsr #3
    1b98:	0f890143 	svceq	0x00890143
    1b9c:	01440000 	mrseq	r0, (UNDEF: 68)
    1ba0:	00000a93 	muleq	r0, r3, sl
    1ba4:	09b70145 	ldmibeq	r7!, {r0, r2, r6, r8}
    1ba8:	01460000 	mrseq	r0, (UNDEF: 70)
    1bac:	000010c2 	andeq	r1, r0, r2, asr #1
    1bb0:	0bbb0147 	bleq	feec20d4 <__bss_end+0x776bf090>
    1bb4:	01480000 	mrseq	r0, (UNDEF: 72)
    1bb8:	00000dd5 	ldrdeq	r0, [r0], -r5
    1bbc:	081b0149 	ldmdaeq	fp, {r0, r3, r6, r8}
    1bc0:	014a0000 	mrseq	r0, (UNDEF: 74)
    1bc4:	000008db 	ldrdeq	r0, [r0], -fp
    1bc8:	0ef7014b 	cdpeq	1, 15, cr0, cr7, cr11, {2}
    1bcc:	014c0000 	mrseq	r0, (UNDEF: 76)
    1bd0:	00000968 	andeq	r0, r0, r8, ror #18
    1bd4:	0ebc014d 	cdpeq	1, 11, cr0, cr12, cr13, {2}
    1bd8:	014e0000 	mrseq	r0, (UNDEF: 78)
    1bdc:	000008ca 	andeq	r0, r0, sl, asr #17
    1be0:	111e014f 	tstne	lr, pc, asr #2
    1be4:	01500000 	cmpeq	r0, r0
    1be8:	00000ac2 	andeq	r0, r0, r2, asr #21
    1bec:	0a9d0151 	beq	fe742138 <__bss_end+0x76f3f0f4>
    1bf0:	01520000 	cmpeq	r2, r0
    1bf4:	00001362 	andeq	r1, r0, r2, ror #6
    1bf8:	095d0153 	ldmdbeq	sp, {r0, r1, r4, r6, r8}^
    1bfc:	01540000 	cmpeq	r4, r0
    1c00:	000011df 	ldrdeq	r1, [r0], -pc	@ <UNPREDICTABLE>
    1c04:	12770155 	rsbsne	r0, r7, #1073741845	@ 0x40000015
    1c08:	01560000 	cmpeq	r6, r0
    1c0c:	00001114 	andeq	r1, r0, r4, lsl r1
    1c10:	09ac0157 	stmibeq	ip!, {r0, r1, r2, r4, r6, r8}
    1c14:	01580000 	cmpeq	r8, r0
    1c18:	00001195 	muleq	r0, r5, r1
    1c1c:	138a0159 	orrne	r0, sl, #1073741846	@ 0x40000016
    1c20:	015a0000 	cmpeq	sl, r0
    1c24:	00000c15 	andeq	r0, r0, r5, lsl ip
    1c28:	1137015b 	teqne	r7, fp, asr r1
    1c2c:	015c0000 	cmpeq	ip, r0
    1c30:	000011cf 	andeq	r1, r0, pc, asr #3
    1c34:	09c1015d 	stmibeq	r1, {r0, r2, r3, r4, r6, r8}^
    1c38:	015e0000 	cmpeq	lr, r0
    1c3c:	00000ec9 	andeq	r0, r0, r9, asr #29
    1c40:	0fad015f 	svceq	0x00ad015f
    1c44:	01600000 	cmneq	r0, r0
    1c48:	000007e7 	andeq	r0, r0, r7, ror #15
    1c4c:	10290161 	eorne	r0, r9, r1, ror #2
    1c50:	01620000 	cmneq	r2, r0
    1c54:	0000120d 	andeq	r1, r0, sp, lsl #4
    1c58:	08e90163 	stmiaeq	r9!, {r0, r1, r5, r6, r8}^
    1c5c:	01640000 	cmneq	r4, r0
    1c60:	00000801 	andeq	r0, r0, r1, lsl #16
    1c64:	0e090165 	cdpeq	1, 0, cr0, cr9, cr5, {3}
    1c68:	01660000 	cmneq	r6, r0
    1c6c:	00000acf 	andeq	r0, r0, pc, asr #21
    1c70:	13ab0167 			@ <UNDEFINED> instruction: 0x13ab0167
    1c74:	01680000 	cmneq	r8, r0
    1c78:	00000d00 	andeq	r0, r0, r0, lsl #26
    1c7c:	0c960169 	ldceq	1, cr0, [r6], {105}	@ 0x69
    1c80:	016a0000 	cmneq	sl, r0
    1c84:	00000fe0 	andeq	r0, r0, r0, ror #31
    1c88:	09dd016b 	ldmibeq	sp, {r0, r1, r3, r5, r6, r8}^
    1c8c:	016c0000 	cmneq	ip, r0
    1c90:	0000094c 	andeq	r0, r0, ip, asr #18
    1c94:	0ee6016d 	cdpeq	1, 14, cr0, cr6, cr13, {3}
    1c98:	016e0000 	cmneq	lr, r0
    1c9c:	00000b59 	andeq	r0, r0, r9, asr fp
    1ca0:	11b3016f 			@ <UNDEFINED> instruction: 0x11b3016f
    1ca4:	01700000 	cmneq	r0, r0
    1ca8:	00000c7a 	andeq	r0, r0, sl, ror ip
    1cac:	0b930171 	bleq	fe4c2278 <__bss_end+0x76cbf234>
    1cb0:	01720000 	cmneq	r2, r0
    1cb4:	00001203 	andeq	r1, r0, r3, lsl #4
    1cb8:	0cd60173 	ldcleq	1, cr0, [r6], {115}	@ 0x73
    1cbc:	01740000 	cmneq	r4, r0
    1cc0:	00000c55 	andeq	r0, r0, r5, asr ip
    1cc4:	13c40175 	bicne	r0, r4, #1073741853	@ 0x4000001d
    1cc8:	01760000 	cmneq	r6, r0
    1ccc:	0000100b 	andeq	r1, r0, fp
    1cd0:	0b4b0177 	bleq	12c22b4 <shift+0x12c22b4>
    1cd4:	01780000 	cmneq	r8, r0
    1cd8:	00000d21 	andeq	r0, r0, r1, lsr #26
    1cdc:	0b140179 	bleq	5022c8 <shift+0x5022c8>
    1ce0:	017a0000 	cmneq	sl, r0
    1ce4:	00000a9e 	muleq	r0, lr, sl
    1ce8:	0d9e017b 	ldceq	1, cr0, [lr, #492]	@ 0x1ec
    1cec:	017c0000 	cmneq	ip, r0
    1cf0:	00000ce0 	andeq	r0, r0, r0, ror #25
    1cf4:	0c3c017d 	ldceq	1, cr0, [ip], #-500	@ 0xfffffe0c
    1cf8:	017e0000 	cmneq	lr, r0
    1cfc:	00000f74 	andeq	r0, r0, r4, ror pc
    1d00:	0e8a017f 	mcreq	1, 4, r0, cr10, cr15, {3}
    1d04:	01800000 	orreq	r0, r0, r0
    1d08:	00000b9c 	muleq	r0, ip, fp
    1d0c:	13030181 	tstne	r3, #1073741856	@ 0x40000020
    1d10:	01820000 	orreq	r0, r2, r0
    1d14:	00000c69 	andeq	r0, r0, r9, ror #24
    1d18:	10a20183 	adcne	r0, r2, r3, lsl #3
    1d1c:	01840000 	orreq	r0, r4, r0
    1d20:	0000093f 	andeq	r0, r0, pc, lsr r9
    1d24:	0e790185 	cdpeq	1, 7, cr0, cr9, cr5, {4}
    1d28:	01860000 	orreq	r0, r6, r0
    1d2c:	00000d75 	andeq	r0, r0, r5, ror sp
    1d30:	092a0187 	stmdbeq	sl!, {r0, r1, r2, r7, r8}
    1d34:	01880000 	orreq	r0, r8, r0
    1d38:	00001100 	andeq	r1, r0, r0, lsl #2
    1d3c:	0bec0189 	bleq	ffb02368 <__bss_end+0x782ff324>
    1d40:	018a0000 	orreq	r0, sl, r0
    1d44:	00001082 	andeq	r1, r0, r2, lsl #1
    1d48:	0b7d018b 	bleq	1f4237c <shift+0x1f4237c>
    1d4c:	018c0000 	orreq	r0, ip, r0
    1d50:	00000c00 	andeq	r0, r0, r0, lsl #24
    1d54:	07f7018d 	ldrbeq	r0, [r7, sp, lsl #3]!
    1d58:	018e0000 	orreq	r0, lr, r0
    1d5c:	0000136c 	andeq	r1, r0, ip, ror #6
    1d60:	0f4f018f 	svceq	0x004f018f
    1d64:	01900000 	orrseq	r0, r0, r0
    1d68:	00000e22 	andeq	r0, r0, r2, lsr #28
    1d6c:	0f600191 	svceq	0x00600191
    1d70:	01920000 	orrseq	r0, r2, r0
    1d74:	00000e3b 	andeq	r0, r0, fp, lsr lr
    1d78:	09a20193 	stmibeq	r2!, {r0, r1, r4, r7, r8}
    1d7c:	01940000 	orrseq	r0, r4, r0
    1d80:	0000118b 	andeq	r1, r0, fp, lsl #3
    1d84:	12490195 	subne	r0, r9, #1073741861	@ 0x40000025
    1d88:	01960000 	orrseq	r0, r6, r0
    1d8c:	00000b3b 	andeq	r0, r0, fp, lsr fp
    1d90:	0d390197 	ldceq	1, cr0, [r9, #-604]!	@ 0xfffffda4
    1d94:	01980000 	orrseq	r0, r8, r0
    1d98:	00000af3 	strdeq	r0, [r0], -r3
    1d9c:	139a0199 	orrsne	r0, sl, #1073741862	@ 0x40000026
    1da0:	019a0000 	orrseq	r0, sl, r0
    1da4:	00000f05 	andeq	r0, r0, r5, lsl #30
    1da8:	09f5019b 	ldmibeq	r5!, {r0, r1, r3, r4, r7, r8}^
    1dac:	019c0000 	orrseq	r0, ip, r0
    1db0:	000008a1 	andeq	r0, r0, r1, lsr #17
    1db4:	1165019d 			@ <UNDEFINED> instruction: 0x1165019d
    1db8:	019e0000 	orrseq	r0, lr, r0
    1dbc:	00000d67 	andeq	r0, r0, r7, ror #26
    1dc0:	be0d009f 	mcrlt	0, 0, r0, cr13, cr15, {4}
    1dc4:	0300000c 	tsteq	r0, #12
    1dc8:	008503c9 	addeq	r0, r5, r9, asr #7
    1dcc:	04190000 	ldreq	r0, [r9], #-0
    1dd0:	02070230 	andeq	r0, r7, #48, 4
    1dd4:	00078309 	andeq	r8, r7, r9, lsl #6
    1dd8:	0a301a00 	beq	c085e0 <shift+0xc085e0>
    1ddc:	09020000 	stmdbeq	r2, {}	@ <UNPREDICTABLE>
    1de0:	07831202 	streq	r1, [r3, r2, lsl #4]
    1de4:	02000000 	andeq	r0, r0, #0
    1de8:	000012e7 	andeq	r1, r0, r7, ror #5
    1dec:	006d020a 	rsbeq	r0, sp, sl, lsl #4
    1df0:	10000000 	andne	r0, r0, r0
    1df4:	0007df02 	andeq	sp, r7, r2, lsl #30
    1df8:	72020b00 	andvc	r0, r2, #0, 22
    1dfc:	04000000 	streq	r0, [r0], #-0
    1e00:	0d1a0210 	ldceq	2, cr0, [sl, #-64]	@ 0xffffffc0
    1e04:	020c0000 	andeq	r0, ip, #0
    1e08:	00000072 	andeq	r0, r0, r2, ror r0
    1e0c:	3a021008 	bcc	85e34 <shift+0x85e34>
    1e10:	0d00000a 	stceq	0, cr0, [r0, #-40]	@ 0xffffffd8
    1e14:	00079402 	andeq	r9, r7, r2, lsl #8
    1e18:	02100c00 	andseq	r0, r0, #0, 24
    1e1c:	000011c5 	andeq	r1, r0, r5, asr #3
    1e20:	07b4020e 	ldreq	r0, [r4, lr, lsl #4]!
    1e24:	10800000 	addne	r0, r0, r0
    1e28:	000ae902 	andeq	lr, sl, r2, lsl #18
    1e2c:	b9020f00 	stmdblt	r2, {r8, r9, sl, fp}
    1e30:	c0000007 	andgt	r0, r0, r7
    1e34:	0e450210 	mcreq	2, 2, r0, cr5, cr0, {0}
    1e38:	02100000 	andseq	r0, r0, #0
    1e3c:	000007b4 			@ <UNDEFINED> instruction: 0x000007b4
    1e40:	44021100 	strmi	r1, [r2], #-256	@ 0xffffff00
    1e44:	1100000a 	tstne	r0, sl
    1e48:	0007b902 	andeq	fp, r7, r2, lsl #18
    1e4c:	02114000 	andseq	r4, r1, #0
    1e50:	000010f4 	strdeq	r1, [r0], -r4
    1e54:	07b40212 			@ <UNDEFINED> instruction: 0x07b40212
    1e58:	11800000 	orrne	r0, r0, r0
    1e5c:	000a4e02 	andeq	r4, sl, r2, lsl #28
    1e60:	b9021300 	stmdblt	r2, {r8, r9, ip}
    1e64:	c0000007 	andgt	r0, r0, r7
    1e68:	0f6a0211 	svceq	0x006a0211
    1e6c:	02140000 	andseq	r0, r4, #0
    1e70:	000007b4 			@ <UNDEFINED> instruction: 0x000007b4
    1e74:	58021200 	stmdapl	r2, {r9, ip}
    1e78:	1500000a 	strne	r0, [r0, #-10]
    1e7c:	0007b902 	andeq	fp, r7, r2, lsl #18
    1e80:	02124000 	andseq	r4, r2, #0
    1e84:	0000097e 	andeq	r0, r0, lr, ror r9
    1e88:	07b40216 			@ <UNDEFINED> instruction: 0x07b40216
    1e8c:	12800000 	addne	r0, r0, #0
    1e90:	000a6202 	andeq	r6, sl, r2, lsl #4
    1e94:	b9021700 	stmdblt	r2, {r8, r9, sl, ip}
    1e98:	c0000007 	andgt	r0, r0, r7
    1e9c:	12950212 	addsne	r0, r5, #536870913	@ 0x20000001
    1ea0:	02180000 	andseq	r0, r8, #0
    1ea4:	000007b4 			@ <UNDEFINED> instruction: 0x000007b4
    1ea8:	03021300 	tsteq	r2, #0, 6
    1eac:	1900000b 	stmdbne	r0, {r0, r1, r3}
    1eb0:	0007b902 	andeq	fp, r7, r2, lsl #18
    1eb4:	02134000 	andseq	r4, r3, #0
    1eb8:	00000b6a 	andeq	r0, r0, sl, ror #22
    1ebc:	07b4021a 			@ <UNDEFINED> instruction: 0x07b4021a
    1ec0:	13800000 	orrne	r0, r0, #0
    1ec4:	000a7f02 	andeq	r7, sl, r2, lsl #30
    1ec8:	b9021b00 	stmdblt	r2, {r8, r9, fp, ip}
    1ecc:	c0000007 	andgt	r0, r0, r7
    1ed0:	12ad0213 	adcne	r0, sp, #805306369	@ 0x30000001
    1ed4:	021c0000 	andseq	r0, ip, #0
    1ed8:	000007da 	ldrdeq	r0, [r0], -sl
    1edc:	89021400 	stmdbhi	r2, {sl, ip}
    1ee0:	1d00000a 	stcne	0, cr0, [r0, #-40]	@ 0xffffffd8
    1ee4:	0007df02 	andeq	sp, r7, r2, lsl #30
    1ee8:	02160000 	andseq	r0, r6, #0
    1eec:	00000d4f 	andeq	r0, r0, pc, asr #26
    1ef0:	07da021e 			@ <UNDEFINED> instruction: 0x07da021e
    1ef4:	18000000 	stmdane	r0, {}	@ <UNPREDICTABLE>
    1ef8:	00108c02 	andseq	r8, r0, r2, lsl #24
    1efc:	df021f00 	svcle	0x00021f00
    1f00:	00000007 	andeq	r0, r0, r7
    1f04:	0fbd021a 	svceq	0x00bd021a
    1f08:	02200000 	eoreq	r0, r0, #0
    1f0c:	000007ff 	strdeq	r0, [r0], -pc	@ <UNPREDICTABLE>
    1f10:	97021c00 	strls	r1, [r2, -r0, lsl #24]
    1f14:	21000010 	tstcs	r0, r0, lsl r0
    1f18:	00080402 	andeq	r0, r8, r2, lsl #8
    1f1c:	021c8000 	andseq	r8, ip, #0
    1f20:	00000976 	andeq	r0, r0, r6, ror r9
    1f24:	00720222 	rsbseq	r0, r2, r2, lsr #4
    1f28:	1d000000 	stcne	0, cr0, [r0, #-0]
    1f2c:	00104202 	andseq	r4, r0, r2, lsl #4
    1f30:	29022300 	stmdbcs	r2, {r8, r9, sp}
    1f34:	04000008 	streq	r0, [r0], #-8
    1f38:	130d021d 	tstne	sp, #-805306367	@ 0xd0000001
    1f3c:	02240000 	eoreq	r0, r4, #0
    1f40:	0000082e 	andeq	r0, r0, lr, lsr #16
    1f44:	34021d40 	strcc	r1, [r2], #-3392	@ 0xfffff2c0
    1f48:	2500000b 	strcs	r0, [r0, #-11]
    1f4c:	00006d02 	andeq	r6, r0, r2, lsl #26
    1f50:	021f0000 	andseq	r0, pc, #0
    1f54:	000010ac 	andeq	r1, r0, ip, lsr #1
    1f58:	083e0226 	ldmdaeq	lr!, {r1, r2, r5, r9}
    1f5c:	1f040000 	svcne	0x00040000
    1f60:	000ab602 	andeq	fp, sl, r2, lsl #12
    1f64:	5e022700 	cdppl	7, 0, cr2, cr2, cr0, {0}
    1f68:	10000008 	andne	r0, r0, r8
    1f6c:	117f021f 	cmnne	pc, pc, lsl r2	@ <UNPREDICTABLE>
    1f70:	02280000 	eoreq	r0, r8, #0
    1f74:	0000085e 	andeq	r0, r0, lr, asr r8
    1f78:	b7021f20 	strlt	r1, [r2, -r0, lsr #30]
    1f7c:	29000010 	stmdbcs	r0, {r4}
    1f80:	00086302 	andeq	r6, r8, r2, lsl #6
    1f84:	021f3000 	andseq	r3, pc, #0
    1f88:	00000e59 	andeq	r0, r0, r9, asr lr
    1f8c:	0072022a 	rsbseq	r0, r2, sl, lsr #4
    1f90:	1fd00000 	svcne	0x00d00000
    1f94:	000e6102 	andeq	r6, lr, r2, lsl #2
    1f98:	72022b00 	andvc	r2, r2, #0, 22
    1f9c:	d4000000 	strle	r0, [r0], #-0
    1fa0:	0e69021f 	mcreq	2, 3, r0, cr9, cr15, {0}
    1fa4:	022c0000 	eoreq	r0, ip, #0
    1fa8:	00000072 	andeq	r0, r0, r2, ror r0
    1fac:	71021fd8 	ldrdvc	r1, [r2, -r8]
    1fb0:	2d00000e 	stccs	0, cr0, [r0, #-56]	@ 0xffffffc8
    1fb4:	00007202 	andeq	r7, r0, r2, lsl #4
    1fb8:	021fdc00 	andseq	sp, pc, #0, 24
    1fbc:	00000e33 	andeq	r0, r0, r3, lsr lr
    1fc0:	0072022e 	rsbseq	r0, r2, lr, lsr #4
    1fc4:	1fe00000 	svcne	0x00e00000
    1fc8:	00084802 	andeq	r4, r8, r2, lsl #16
    1fcc:	72022f00 	andvc	r2, r2, #0, 30
    1fd0:	e4000000 	str	r0, [r0], #-0
    1fd4:	0850021f 	ldmdaeq	r0, {r0, r1, r2, r3, r4, r9}^
    1fd8:	02300000 	eorseq	r0, r0, #0
    1fdc:	00000072 	andeq	r0, r0, r2, ror r0
    1fe0:	51021fe8 	smlattpl	r2, r8, pc, r1	@ <UNPREDICTABLE>
    1fe4:	3100000e 	tstcc	r0, lr
    1fe8:	00007202 	andeq	r7, r0, r2, lsl #4
    1fec:	021fec00 	andseq	lr, pc, #0, 24
    1ff0:	00000e9c 	muleq	r0, ip, lr
    1ff4:	00720232 	rsbseq	r0, r2, r2, lsr r2
    1ff8:	1ff00000 	svcne	0x00f00000	@ IMB
    1ffc:	000ea402 	andeq	sl, lr, r2, lsl #8
    2000:	72023300 	andvc	r3, r2, #0, 6
    2004:	f4000000 	vst4.8	{d0-d3}, [r0], r0
    2008:	0eac021f 	mcreq	2, 5, r0, cr12, cr15, {0}
    200c:	02340000 	eorseq	r0, r4, #0
    2010:	00000072 	andeq	r0, r0, r2, ror r0
    2014:	b4021ff8 	strlt	r1, [r2], #-4088	@ 0xfffff008
    2018:	3500000e 	strcc	r0, [r0, #-14]
    201c:	00007202 	andeq	r7, r0, r2, lsl #4
    2020:	021ffc00 	andseq	pc, pc, #0, 24
    2024:	00000b76 	andeq	r0, r0, r6, ror fp
    2028:	006d0237 	rsbeq	r0, sp, r7, lsr r2
    202c:	20000000 	andcs	r0, r0, r0
    2030:	00125d02 	andseq	r5, r2, r2, lsl #26
    2034:	6d023800 	stcvs	8, cr3, [r2, #-0]
    2038:	04000000 	streq	r0, [r0], #-0
    203c:	0c2b0220 	stceq	2, cr0, [fp], #-128	@ 0xffffff80
    2040:	02390000 	eorseq	r0, r9, #0
    2044:	0000006d 	andeq	r0, r0, sp, rrx
    2048:	58022008 	stmdapl	r2, {r3, sp}
    204c:	3a000008 	bcc	2074 <shift+0x2074>
    2050:	00007202 	andeq	r7, r0, r2, lsl #4
    2054:	02200c00 	eoreq	r0, r0, #0, 24
    2058:	000009ee 	andeq	r0, r0, lr, ror #19
    205c:	006d023b 	rsbeq	r0, sp, fp, lsr r2
    2060:	20100000 	andscs	r0, r0, r0
    2064:	000c2502 	andeq	r2, ip, r2, lsl #10
    2068:	72023c00 	andvc	r3, r2, #0, 24
    206c:	14000000 	strne	r0, [r0], #-0
    2070:	0c850220 	stceq	2, cr0, [r5], {32}
    2074:	023d0000 	eorseq	r0, sp, #0
    2078:	00000072 	andeq	r0, r0, r2, ror r0
    207c:	be022018 	mcrlt	0, 0, r2, cr2, cr8, {0}
    2080:	3e000011 	mcrcc	0, 0, r0, cr0, cr1, {0}
    2084:	00006d02 	andeq	r6, r0, r2, lsl #26
    2088:	02201c00 	eoreq	r1, r0, #0, 24
    208c:	00000b0d 	andeq	r0, r0, sp, lsl #22
    2090:	0072023f 	rsbseq	r0, r2, pc, lsr r2
    2094:	20200000 	eorcs	r0, r0, r0
    2098:	00112f02 	andseq	r2, r1, r2, lsl #30
    209c:	6d024000 	stcvs	0, cr4, [r2, #-0]
    20a0:	24000000 	strcs	r0, [r0], #-0
    20a4:	12540220 	subsne	r0, r4, #32, 4
    20a8:	02410000 	subeq	r0, r1, #0
    20ac:	00000072 	andeq	r0, r0, r2, ror r0
    20b0:	18022028 	stmdane	r2, {r3, r5, sp}
    20b4:	42000013 	andmi	r0, r0, #19
    20b8:	00087302 	andeq	r7, r8, r2, lsl #6
    20bc:	02202c00 	eoreq	r2, r0, #0, 24
    20c0:	00000fcd 	andeq	r0, r0, sp, asr #31
    20c4:	006d0243 	rsbeq	r0, sp, r3, asr #4
    20c8:	20d00000 	sbcscs	r0, r0, r0
    20cc:	0010cd02 	andseq	ip, r0, r2, lsl #26
    20d0:	3e024400 	cdpcc	4, 0, cr4, cr2, cr0, {0}
    20d4:	d4000008 	strle	r0, [r0], #-8
    20d8:	09940220 	ldmibeq	r4, {r5, r9}
    20dc:	02450000 	subeq	r0, r5, #0
    20e0:	0000006d 	andeq	r0, r0, sp, rrx
    20e4:	d80220e0 	stmdale	r2, {r5, r6, r7, sp}
    20e8:	46000010 			@ <UNDEFINED> instruction: 0x46000010
    20ec:	00088302 	andeq	r8, r8, r2, lsl #6
    20f0:	0220e400 	eoreq	lr, r0, #0, 8
    20f4:	00001233 	andeq	r1, r0, r3, lsr r2
    20f8:	00720247 	rsbseq	r0, r2, r7, asr #4
    20fc:	20fc0000 	rscscs	r0, ip, r0
    2100:	0010e302 	andseq	lr, r0, r2, lsl #6
    2104:	93024800 	tstls	r2, #0, 16
    2108:	00000008 	andeq	r0, r0, r8
    210c:	10ee0221 	rscne	r0, lr, r1, lsr #4
    2110:	02490000 	subeq	r0, r9, #0
    2114:	0000006d 	andeq	r0, r0, sp, rrx
    2118:	03003000 	tsteq	r0, #0
    211c:	00000061 	andeq	r0, r0, r1, rrx
    2120:	00000794 	muleq	r0, r4, r7
    2124:	0000770a 	andeq	r7, r0, sl, lsl #14
    2128:	0003ff00 	andeq	pc, r3, r0, lsl #30
    212c:	00006103 	andeq	r6, r0, r3, lsl #2
    2130:	0007a400 	andeq	sl, r7, r0, lsl #8
    2134:	00770400 	rsbseq	r0, r7, r0, lsl #8
    2138:	001c0000 	andseq	r0, ip, r0
    213c:	00006d03 	andeq	r6, r0, r3, lsl #26
    2140:	0007b400 	andeq	fp, r7, r0, lsl #8
    2144:	00770400 	rsbseq	r0, r7, r0, lsl #8
    2148:	000f0000 	andeq	r0, pc, r0
    214c:	0007a406 	andeq	sl, r7, r6, lsl #8
    2150:	00610300 	rsbeq	r0, r1, r0, lsl #6
    2154:	07c90000 	strbeq	r0, [r9, r0]
    2158:	77040000 	strvc	r0, [r4, -r0]
    215c:	0f000000 	svceq	0x00000000
    2160:	004e0300 	subeq	r0, lr, r0, lsl #6
    2164:	07da0000 	ldrbeq	r0, [sl, r0]
    2168:	770a0000 	strvc	r0, [sl, -r0]
    216c:	ff000000 			@ <UNDEFINED> instruction: 0xff000000
    2170:	c9060001 	stmdbgt	r6, {r0}
    2174:	03000007 	tsteq	r0, #7
    2178:	00000061 	andeq	r0, r0, r1, rrx
    217c:	000007ef 	andeq	r0, r0, pc, ror #15
    2180:	00007704 	andeq	r7, r0, r4, lsl #14
    2184:	03007f00 	tsteq	r0, #0, 30
    2188:	0000006d 	andeq	r0, r0, sp, rrx
    218c:	000007ff 	strdeq	r0, [r0], -pc	@ <UNPREDICTABLE>
    2190:	00007704 	andeq	r7, r0, r4, lsl #14
    2194:	06001f00 	streq	r1, [r0], -r0, lsl #30
    2198:	000007ef 	andeq	r0, r0, pc, ror #15
    219c:	00006103 	andeq	r6, r0, r3, lsl #2
    21a0:	00081400 	andeq	r1, r8, r0, lsl #8
    21a4:	00770400 	rsbseq	r0, r7, r0, lsl #8
    21a8:	001f0000 	andseq	r0, pc, r0
    21ac:	00007203 	andeq	r7, r0, r3, lsl #4
    21b0:	00082400 	andeq	r2, r8, r0, lsl #8
    21b4:	00770400 	rsbseq	r0, r7, r0, lsl #8
    21b8:	000e0000 	andeq	r0, lr, r0
    21bc:	0008140c 	andeq	r1, r8, ip, lsl #8
    21c0:	08240600 	stmdaeq	r4!, {r9, sl}
    21c4:	61030000 	mrsvs	r0, (UNDEF: 3)
    21c8:	3e000000 	cdpcc	0, 0, cr0, cr0, cr0, {0}
    21cc:	04000008 	streq	r0, [r0], #-8
    21d0:	00000077 	andeq	r0, r0, r7, ror r0
    21d4:	6103006f 	tstvs	r3, pc, rrx
    21d8:	4e000000 	cdpmi	0, 0, cr0, cr0, cr0, {0}
    21dc:	04000008 	streq	r0, [r0], #-8
    21e0:	00000077 	andeq	r0, r0, r7, ror r0
    21e4:	4e030002 	cdpmi	0, 0, cr0, cr3, cr2, {0}
    21e8:	5e000000 	cdppl	0, 0, cr0, cr0, cr0, {0}
    21ec:	04000008 	streq	r0, [r0], #-8
    21f0:	00000077 	andeq	r0, r0, r7, ror r0
    21f4:	4e06000f 	cdpmi	0, 0, cr0, cr6, cr15, {0}
    21f8:	03000008 	tsteq	r0, #8
    21fc:	00000061 	andeq	r0, r0, r1, rrx
    2200:	00000873 	andeq	r0, r0, r3, ror r8
    2204:	00007704 	andeq	r7, r0, r4, lsl #14
    2208:	03002700 	tsteq	r0, #0, 14
    220c:	00000061 	andeq	r0, r0, r1, rrx
    2210:	00000883 	andeq	r0, r0, r3, lsl #17
    2214:	00007704 	andeq	r7, r0, r4, lsl #14
    2218:	03002800 	tsteq	r0, #0, 16
    221c:	00000061 	andeq	r0, r0, r1, rrx
    2220:	00000893 	muleq	r0, r3, r8
    2224:	00007704 	andeq	r7, r0, r4, lsl #14
    2228:	03000500 	tsteq	r0, #0, 10
    222c:	00000061 	andeq	r0, r0, r1, rrx
    2230:	000008a4 	andeq	r0, r0, r4, lsr #17
    2234:	0000770a 	andeq	r7, r0, sl, lsl #14
    2238:	0003bf00 	andeq	fp, r3, r0, lsl #30
    223c:	0009020d 	andeq	r0, r9, sp, lsl #4
    2240:	024a0200 	subeq	r0, sl, #0, 4
    2244:	00000436 	andeq	r0, r0, r6, lsr r4
    2248:	000ba608 	andeq	sl, fp, r8, lsl #12
    224c:	10060400 	andne	r0, r6, r0, lsl #8
    2250:	000008bc 			@ <UNDEFINED> instruction: 0x000008bc
    2254:	0008c10e 	andeq	ip, r8, lr, lsl #2
    2258:	08d11b00 	ldmeq	r1, {r8, r9, fp, ip}^
    225c:	610f0000 	mrsvs	r0, CPSR
    2260:	0f000000 	svceq	0x00000000
    2264:	000008d1 	ldrdeq	r0, [r0], -r1
    2268:	1d041c00 	stcne	12, cr1, [r4, #-0]
    226c:	00001406 	andeq	r1, r0, r6, lsl #8
    2270:	10080408 	andne	r0, r8, r8, lsl #8
    2274:	000008f9 	strdeq	r0, [r0], -r9
    2278:	0013fb10 	andseq	pc, r3, r0, lsl fp	@ <UNPREDICTABLE>
    227c:	b01a0900 	andslt	r0, sl, r0, lsl #18
    2280:	00000008 	andeq	r0, r0, r8
    2284:	00148c10 	andseq	r8, r4, r0, lsl ip
    2288:	d10b0a00 	tstle	fp, r0, lsl #20
    228c:	04000008 	streq	r0, [r0], #-8
    2290:	14070800 	strne	r0, [r7], #-2048	@ 0xfffff800
    2294:	0b040000 	bleq	10229c <shift+0x10229c>
    2298:	0008d303 	andeq	sp, r8, r3, lsl #6
    229c:	08f90300 	ldmeq	r9!, {r8, r9}^
    22a0:	09150000 	ldmdbeq	r5, {}	@ <UNPREDICTABLE>
    22a4:	77040000 	strvc	r0, [r4, -r0]
    22a8:	9f000000 	svcls	0x00000000
    22ac:	14831e00 	strne	r1, [r3], #3584	@ 0xe00
    22b0:	04010000 	streq	r0, [r1], #-0
    22b4:	00090514 	andeq	r0, r9, r4, lsl r5
    22b8:	dc030500 	stcle	5, cr0, [r3], {-0}
    22bc:	1f87802a 	svcne	0x0087802a
    22c0:	00001449 	andeq	r1, r0, r9, asr #8
    22c4:	77150601 	ldrvc	r0, [r5, -r1, lsl #12]
    22c8:	05000000 	streq	r0, [r0, #-0]
    22cc:	802fdc03 	eorhi	sp, pc, r3, lsl #24
    22d0:	14391187 	ldrtne	r1, [r9], #-391	@ 0xfffffe79
    22d4:	10280000 	eorne	r0, r8, r0
    22d8:	1c87801f 	stcne	0, cr8, [r7], {31}
    22dc:	01000000 	mrseq	r0, (UNDEF: 0)
    22e0:	00096a9c 	muleq	r9, ip, sl
    22e4:	0fc50700 	svceq	0x00c50700
    22e8:	1f280000 	svcne	0x00280000
    22ec:	00000061 	andeq	r0, r0, r1, rrx
    22f0:	07749102 	ldrbeq	r9, [r4, -r2, lsl #2]!
    22f4:	0000142e 	andeq	r1, r0, lr, lsr #8
    22f8:	08d12e28 	ldmeq	r1, {r3, r5, r9, sl, fp, sp}^
    22fc:	91020000 	mrsls	r0, (UNDEF: 2)
    2300:	960b0070 			@ <UNDEFINED> instruction: 0x960b0070
    2304:	1d000014 	stcne	0, cr0, [r0, #-80]	@ 0xffffffb0
    2308:	87801e44 	strhi	r1, [r0, r4, asr #28]
    230c:	000000cc 	andeq	r0, r0, ip, asr #1
    2310:	099a9c01 	ldmibeq	sl, {r0, sl, fp, ip, pc}
    2314:	c5070000 	strgt	r0, [r7, #-0]
    2318:	1d00000f 	stcne	0, cr0, [r0, #-60]	@ 0xffffffc4
    231c:	00006121 	andeq	r6, r0, r1, lsr #2
    2320:	6c910200 	ldcvs	2, cr0, [r1], {0}
    2324:	71726912 	cmnvc	r2, r2, lsl r9
    2328:	00611f00 	rsbeq	r1, r1, r0, lsl #30
    232c:	91020000 	mrsls	r0, (UNDEF: 2)
    2330:	630b0074 	tstvs	fp, #116	@ 0x74
    2334:	15000014 	strne	r0, [r0, #-20]	@ 0xffffffec
    2338:	87801de8 	strhi	r1, [r0, r8, ror #27]
    233c:	0000005c 	andeq	r0, r0, ip, asr r0
    2340:	09c49c01 	stmibeq	r4, {r0, sl, fp, ip, pc}^
    2344:	f4200000 	vld4.8	{d0-d3}, [r0], r0
    2348:	3c87801d 	stccc	0, cr8, [r7], {29}
    234c:	12000000 	andne	r0, r0, #0
    2350:	34170069 	ldrcc	r0, [r7], #-105	@ 0xffffff97
    2354:	02000000 	andeq	r0, r0, #0
    2358:	00007491 	muleq	r0, r1, r4
    235c:	00137611 	andseq	r7, r3, r1, lsl r6
    2360:	1d880f00 	stcne	15, cr0, [r8]
    2364:	00608780 	rsbeq	r8, r0, r0, lsl #15
    2368:	9c010000 	stcls	0, cr0, [r1], {-0}
    236c:	00000a04 	andeq	r0, r0, r4, lsl #20
    2370:	00143907 	andseq	r3, r4, r7, lsl #18
    2374:	b02f0f00 	eorlt	r0, pc, r0, lsl #30
    2378:	02000008 	andeq	r0, r0, #8
    237c:	69217491 	stmdbvs	r1!, {r0, r4, r7, sl, ip, sp, lr}
    2380:	01007172 	tsteq	r0, r2, ror r1
    2384:	042a4a0f 	strteq	r4, [sl], #-2575	@ 0xfffff5f1
    2388:	91020000 	mrsls	r0, (UNDEF: 2)
    238c:	14750770 	ldrbtne	r0, [r5], #-1904	@ 0xfffff890
    2390:	550f0000 	strpl	r0, [pc, #-0]	@ 2398 <shift+0x2398>
    2394:	000008d1 	ldrdeq	r0, [r0], -r1
    2398:	006c9102 	rsbeq	r9, ip, r2, lsl #2
    239c:	0015000b 	andseq	r0, r5, fp
    23a0:	1c900800 	ldcne	8, cr0, [r0], {0}
    23a4:	00f88780 	rscseq	r8, r8, r0, lsl #15
    23a8:	9c010000 	stcls	0, cr0, [r1], {-0}
    23ac:	00000a87 	andeq	r0, r0, r7, lsl #21
    23b0:	000a8722 	andeq	r8, sl, r2, lsr #14
    23b4:	801c9c00 	andshi	r9, ip, r0, lsl #24
    23b8:	0000c487 	andeq	ip, r0, r7, lsl #9
    23bc:	050a0100 	streq	r0, [sl, #-256]	@ 0xffffff00
    23c0:	00000a6d 	andeq	r0, r0, sp, ror #20
    23c4:	000a9509 	andeq	r9, sl, r9, lsl #10
    23c8:	74910200 	ldrvc	r0, [r1], #512	@ 0x200
    23cc:	000a9f09 	andeq	r9, sl, r9, lsl #30
    23d0:	70910200 	addsvc	r0, r1, r0, lsl #4
    23d4:	000aab09 	andeq	sl, sl, r9, lsl #22
    23d8:	6c910200 	ldcvs	2, cr0, [r1], {0}
    23dc:	000abd23 	andeq	fp, sl, r3, lsr #26
    23e0:	801c9c00 	andshi	r9, ip, r0, lsl #24
    23e4:	00001087 	andeq	r1, r0, r7, lsl #1
    23e8:	02520200 	subseq	r0, r2, #0, 4
    23ec:	0acf2420 	beq	ff3cb474 <__bss_end+0x77bc8430>
    23f0:	1c9c0000 	ldcne	0, cr0, [ip], {0}
    23f4:	000c8780 	andeq	r8, ip, r0, lsl #15
    23f8:	d0090000 	andle	r0, r9, r0
    23fc:	0200000a 	andeq	r0, r0, #10
    2400:	00006891 	muleq	r0, r1, r8
    2404:	0ade2500 	beq	ff78b80c <__bss_end+0x77f887c8>
    2408:	1d6c0000 	stclne	0, cr0, [ip, #-0]
    240c:	000c8780 	andeq	r8, ip, r0, lsl #15
    2410:	0c010000 	stceq	0, cr0, [r1], {-0}
    2414:	0ae82605 	beq	ffa0bc30 <__bss_end+0x78208bec>
    2418:	91020000 	mrsls	r0, (UNDEF: 2)
    241c:	27000064 	strcs	r0, [r0, -r4, rrx]
    2420:	00001425 	andeq	r1, r0, r5, lsr #8
    2424:	23024e02 	tstcs	r2, #2, 28
    2428:	000ab803 	andeq	fp, sl, r3, lsl #16
    242c:	00691300 	rsbeq	r1, r9, r0, lsl #6
    2430:	610c0250 	tstvs	ip, r0, asr r2
    2434:	14000000 	strne	r0, [r0], #-0
    2438:	0000147b 	andeq	r1, r0, fp, ror r4
    243c:	610c0251 	tstvs	ip, r1, asr r2
    2440:	13000000 	tstne	r0, #0
    2444:	00636967 	rsbeq	r6, r3, r7, ror #18
    2448:	b80d0252 	stmdalt	sp, {r1, r4, r6, r9}
    244c:	0000000a 	andeq	r0, r0, sl
    2450:	0008a40e 	andeq	sl, r8, lr, lsl #8
    2454:	0fa22800 	svceq	0x00a22800
    2458:	ff020000 			@ <UNDEFINED> instruction: 0xff020000
    245c:	00612701 	rsbeq	r2, r1, r1, lsl #14
    2460:	de030000 	cdple	0, 0, cr0, cr3, cr0, {0}
    2464:	2900000a 	stmdbcs	r0, {r1, r3}
    2468:	0011fd14 	andseq	pc, r1, r4, lsl sp	@ <UNPREDICTABLE>
    246c:	0a020100 	beq	82874 <shift+0x82874>
    2470:	00000061 	andeq	r0, r0, r1, rrx
    2474:	1a2a0000 	bne	a8247c <shift+0xa8247c>
    2478:	02000014 	andeq	r0, r0, #20
    247c:	032301e6 			@ <UNDEFINED> instruction: 0x032301e6
    2480:	0014a82b 	andseq	sl, r4, fp, lsr #16
    2484:	01e60200 	mvneq	r0, r0, lsl #4
    2488:	00006137 	andeq	r6, r0, r7, lsr r1
    248c:	5c000000 	stcpl	0, cr0, [r0], {-0}
    2490:	0500000c 	streq	r0, [r0, #-12]
    2494:	63040100 	tstvs	r4, #0, 2
    2498:	13000009 	tstne	r0, #9
    249c:	0000002b 	andeq	r0, r0, fp, lsr #32
    24a0:	0014ad1d 	andseq	sl, r4, sp, lsl sp
    24a4:	00008900 	andeq	r8, r0, r0, lsl #18
    24a8:	801f2c00 	andshi	r2, pc, r0, lsl #24
    24ac:	0001ec87 	andeq	lr, r1, r7, lsl #25
    24b0:	00088900 	andeq	r8, r8, r0, lsl #18
    24b4:	06010700 	streq	r0, [r1], -r0, lsl #14
    24b8:	000000d7 	ldrdeq	r0, [r0], -r7
    24bc:	fa050207 	blx	142ce0 <shift+0x142ce0>
    24c0:	0b000001 	bleq	24cc <shift+0x24cc>
    24c4:	0000022a 	andeq	r0, r0, sl, lsr #4
    24c8:	40141f03 	andsmi	r1, r4, r3, lsl #30
    24cc:	14000000 	strne	r0, [r0], #-0
    24d0:	6e690504 	cdpvs	5, 6, cr0, cr9, cr4, {0}
    24d4:	08070074 	stmdaeq	r7, {r2, r4, r5, r6}
    24d8:	0001b505 	andeq	fp, r1, r5, lsl #10
    24dc:	01930b00 	orrseq	r0, r3, r0, lsl #22
    24e0:	22030000 	andcs	r0, r3, #0
    24e4:	00005f17 	andeq	r5, r0, r7, lsl pc
    24e8:	004e0800 	subeq	r0, lr, r0, lsl #16
    24ec:	01070000 	mrseq	r0, (UNDEF: 7)
    24f0:	0000d508 	andeq	sp, r0, r8, lsl #10
    24f4:	07020700 	streq	r0, [r2, -r0, lsl #14]
    24f8:	000000e3 	andeq	r0, r0, r3, ror #1
    24fc:	0002290b 	andeq	r2, r2, fp, lsl #18
    2500:	16240300 	strtne	r0, [r4], -r0, lsl #6
    2504:	00000083 	andeq	r0, r0, r3, lsl #1
    2508:	00006d08 	andeq	r6, r0, r8, lsl #26
    250c:	00791000 	rsbseq	r1, r9, r0
    2510:	04070000 	streq	r0, [r7], #-0
    2514:	00018607 	andeq	r8, r1, r7, lsl #12
    2518:	00830800 	addeq	r0, r3, r0, lsl #16
    251c:	08070000 	stmdaeq	r7, {}	@ <UNPREDICTABLE>
    2520:	00017c07 	andeq	r7, r1, r7, lsl #24
    2524:	03201500 			@ <UNDEFINED> instruction: 0x03201500
    2528:	080902dc 	stmdaeq	r9, {r2, r3, r4, r6, r7, r9}
    252c:	0c000001 	stceq	0, cr0, [r0], {1}
    2530:	dd005244 	stcle	2, cr5, [r0, #-272]	@ 0xfffffef0
    2534:	00007902 	andeq	r7, r0, r2, lsl #18
    2538:	a7090000 	strge	r0, [r9, -r0]
    253c:	03000000 	tsteq	r0, #0
    2540:	791102de 	ldmdbvc	r1, {r1, r2, r3, r4, r6, r7, r9}
    2544:	04000000 	streq	r0, [r0], #-0
    2548:	5253500c 	subspl	r5, r3, #12
    254c:	7e02df00 	cdpvc	15, 0, cr13, cr2, cr0, {0}
    2550:	08000000 	stmdaeq	r0, {}	@ <UNPREDICTABLE>
    2554:	00020e09 	andeq	r0, r2, r9, lsl #28
    2558:	02e00300 	rsceq	r0, r0, #0, 6
    255c:	00007911 	andeq	r7, r0, r1, lsl r9
    2560:	13090c00 	tstne	r9, #0, 24
    2564:	03000002 	tsteq	r0, #2
    2568:	791102e1 	ldmdbvc	r1, {r0, r5, r6, r7, r9}
    256c:	10000000 	andne	r0, r0, r0
    2570:	524d490c 	subpl	r4, sp, #12, 18	@ 0x30000
    2574:	7902e200 	stmdbvc	r2, {r9, sp, lr, pc}
    2578:	14000000 	strne	r0, [r0], #-0
    257c:	5253490c 	subspl	r4, r3, #12, 18	@ 0x30000
    2580:	7902e300 	stmdbvc	r2, {r8, r9, sp, lr, pc}
    2584:	18000000 	stmdane	r0, {}	@ <UNPREDICTABLE>
    2588:	00024409 	andeq	r4, r2, r9, lsl #8
    258c:	02e40300 	rsceq	r0, r4, #0, 6
    2590:	00007911 	andeq	r7, r0, r1, lsl r9
    2594:	0a001c00 	beq	959c <shift+0x959c>
    2598:	00000149 	andeq	r0, r0, r9, asr #2
    259c:	9602e503 	strls	lr, [r2], -r3, lsl #10
    25a0:	0e000000 	cdpeq	0, 0, cr0, cr0, cr0, {0}
    25a4:	00000006 	andeq	r0, r0, r6
    25a8:	00008307 	andeq	r8, r0, r7, lsl #6
    25ac:	31030500 	tstcc	r3, r0, lsl #10
    25b0:	01000001 	tsteq	r0, r1
    25b4:	000000f6 	strdeq	r0, [r0], -r6
    25b8:	02620100 	rsbeq	r0, r2, #0, 2
    25bc:	00010000 	andeq	r0, r1, r0
    25c0:	0001e50a 	andeq	lr, r1, sl, lsl #10
    25c4:	03090300 	tsteq	r9, #0, 6
    25c8:	00000114 	andeq	r0, r0, r4, lsl r1
    25cc:	00024d0e 	andeq	r4, r2, lr, lsl #26
    25d0:	00830700 	addeq	r0, r3, r0, lsl #14
    25d4:	030c0000 	tsteq	ip, #0
    25d8:	00000172 	andeq	r0, r0, r2, ror r1
    25dc:	00028601 	andeq	r8, r2, r1, lsl #12
    25e0:	32010000 	andcc	r0, r1, #0
    25e4:	01000002 	tsteq	r0, r2
    25e8:	0000c201 	andeq	ip, r0, r1, lsl #4
    25ec:	23010200 	tstcs	r1, #0, 4
    25f0:	03000001 	tsteq	r0, #1
    25f4:	00010e01 	andeq	r0, r1, r1, lsl #28
    25f8:	53010400 	tstpl	r1, #0, 8
    25fc:	05000001 	streq	r0, [r0, #-1]
    2600:	00ac0a00 	adceq	r0, ip, r0, lsl #20
    2604:	14030000 	strne	r0, [r3], #-0
    2608:	00013d03 	andeq	r3, r1, r3, lsl #26
    260c:	02181600 	andseq	r1, r8, #0, 12
    2610:	030c0000 	tsteq	ip, #0
    2614:	b7100317 			@ <UNDEFINED> instruction: 0xb7100317
    2618:	09000001 	stmdbeq	r0, {r0}
    261c:	00000010 	andeq	r0, r0, r0, lsl r0
    2620:	1b031903 	blne	c8a34 <shift+0xc8a34>
    2624:	00000131 	andeq	r0, r0, r1, lsr r1
    2628:	01700900 	cmneq	r0, r0, lsl #18
    262c:	1a030000 	bne	c2634 <shift+0xc2634>
    2630:	004e0d03 	subeq	r0, lr, r3, lsl #26
    2634:	09040000 	stmdbeq	r4, {}	@ <UNPREDICTABLE>
    2638:	000001c3 	andeq	r0, r0, r3, asr #3
    263c:	1b031b03 	blne	c9250 <shift+0xc9250>
    2640:	00000172 	andeq	r0, r0, r2, ror r1
    2644:	370a0008 	strcc	r0, [sl, -r8]
    2648:	03000001 	tsteq	r0, #1
    264c:	017e031c 	cmneq	lr, ip, lsl r3
    2650:	f20e0000 	vhadd.s8	d0, d14, d0
    2654:	0500000e 	streq	r0, [r0, #-14]
    2658:	00000040 	andeq	r0, r0, r0, asr #32
    265c:	0565032b 	strbeq	r0, [r5, #-811]!	@ 0xfffffcd5
    2660:	23170000 	tstcs	r7, #0
    2664:	80000013 	andhi	r0, r0, r3, lsl r0
    2668:	0bdd017f 	bleq	ff742c6c <__bss_end+0x77f3fc28>
    266c:	01000000 	mrseq	r0, (UNDEF: 0)
    2670:	00000b25 	andeq	r0, r0, r5, lsr #22
    2674:	12ba0101 	adcsne	r0, sl, #1073741824	@ 0x40000000
    2678:	01020000 	mrseq	r0, (UNDEF: 2)
    267c:	00000daf 	andeq	r0, r0, pc, lsr #27
    2680:	0cf10103 	ldcleq	1, cr0, [r1], #12
    2684:	01040000 	mrseq	r0, (UNDEF: 4)
    2688:	0000085e 	andeq	r0, r0, lr, asr r8
    268c:	10570105 	subsne	r0, r7, r5, lsl #2
    2690:	01060000 	mrseq	r0, (UNDEF: 6)
    2694:	00000f93 	muleq	r0, r3, pc	@ <UNPREDICTABLE>
    2698:	0aa70107 	beq	fe9c2abc <__bss_end+0x771bfa78>
    269c:	01080000 	mrseq	r0, (UNDEF: 8)
    26a0:	0000123a 	andeq	r1, r0, sl, lsr r2
    26a4:	13310109 	teqne	r1, #1073741826	@ 0x40000002
    26a8:	010a0000 	mrseq	r0, (UNDEF: 10)
    26ac:	00001285 	andeq	r1, r0, r5, lsl #5
    26b0:	0d8e010b 	stceq	1, cr0, [lr, #44]	@ 0x2c
    26b4:	010c0000 	mrseq	r0, (UNDEF: 12)
    26b8:	0000090b 	andeq	r0, r0, fp, lsl #18
    26bc:	0838010d 	ldmdaeq	r8!, {r0, r2, r3, r8}
    26c0:	010e0000 	mrseq	r0, (UNDEF: 14)
    26c4:	00001019 	andeq	r1, r0, r9, lsl r0
    26c8:	0f37010f 	svceq	0x0037010f
    26cc:	01190000 	tsteq	r9, r0
    26d0:	00001066 	andeq	r1, r0, r6, rrx
    26d4:	08b2011a 	ldmeq	r2!, {r1, r3, r4, r8}
    26d8:	011b0000 	tsteq	fp, r0
    26dc:	00000a6c 	andeq	r0, r0, ip, ror #20
    26e0:	0bc9011c 	bleq	ff242b58 <__bss_end+0x77a3fb14>
    26e4:	011d0000 	tsteq	sp, r0
    26e8:	00000bc6 	andeq	r0, r0, r6, asr #23
    26ec:	091b011e 	ldmdbeq	fp, {r1, r2, r3, r4, r8}
    26f0:	011f0000 	tsteq	pc, r0
    26f4:	00000d5b 	andeq	r0, r0, fp, asr sp
    26f8:	11aa0120 			@ <UNDEFINED> instruction: 0x11aa0120
    26fc:	01210000 			@ <UNDEFINED> instruction: 0x01210000
    2700:	00000a26 	andeq	r0, r0, r6, lsr #20
    2704:	0de50122 	stcleq	1, cr0, [r5, #136]!	@ 0x88
    2708:	01230000 			@ <UNDEFINED> instruction: 0x01230000
    270c:	00000c5f 	andeq	r0, r0, pc, asr ip
    2710:	0dbe0124 	ldceq	1, cr0, [lr, #144]!	@ 0x90
    2714:	01250000 			@ <UNDEFINED> instruction: 0x01250000
    2718:	000007d0 	ldrdeq	r0, [r0], -r0	@ <UNPREDICTABLE>
    271c:	0c8d0126 	stceq	1, cr0, [sp], {38}	@ 0x26
    2720:	01270000 			@ <UNDEFINED> instruction: 0x01270000
    2724:	000011ef 	andeq	r1, r0, pc, ror #3
    2728:	0caf0128 	stceq	1, cr0, [pc], #160	@ 27d0 <shift+0x27d0>
    272c:	01290000 			@ <UNDEFINED> instruction: 0x01290000
    2730:	00000829 	andeq	r0, r0, r9, lsr #16
    2734:	0c0a012a 	stceq	1, cr0, [sl], {42}	@ 0x2a
    2738:	012b0000 			@ <UNDEFINED> instruction: 0x012b0000
    273c:	000013ce 	andeq	r1, r0, lr, asr #7
    2740:	0f2d012c 	svceq	0x002d012c
    2744:	012d0000 			@ <UNDEFINED> instruction: 0x012d0000
    2748:	000012ee 	andeq	r1, r0, lr, ror #5
    274c:	0ffa012e 	svceq	0x00fa012e
    2750:	012f0000 			@ <UNDEFINED> instruction: 0x012f0000
    2754:	00001153 	andeq	r1, r0, r3, asr r1
    2758:	08960130 	ldmeq	r6, {r4, r5, r8}
    275c:	01310000 	teqeq	r1, r0
    2760:	00000cc8 	andeq	r0, r0, r8, asr #25
    2764:	13410132 	cmpne	r1, #-2147483636	@ 0x8000000c
    2768:	01330000 	teqeq	r3, r0
    276c:	000012d4 	ldrdeq	r1, [r0], -r4
    2770:	11760134 	cmnne	r6, r4, lsr r1
    2774:	01350000 	teqeq	r5, r0
    2778:	000009d1 	ldrdeq	r0, [r0], -r1
    277c:	09330136 	ldmdbeq	r3!, {r1, r2, r4, r5, r8}
    2780:	01370000 	teqeq	r7, r0
    2784:	00000ed9 	ldrdeq	r0, [r0], -r9
    2788:	104a0138 	subne	r0, sl, r8, lsr r1
    278c:	01390000 	teqeq	r9, r0
    2790:	00000c31 	andeq	r0, r0, r1, lsr ip
    2794:	0b88013a 	bleq	fe202c84 <__bss_end+0x769ffc40>
    2798:	013b0000 	teqeq	fp, r0
    279c:	000012f8 	strdeq	r1, [r0], -r8
    27a0:	0dee013c 	stcleq	1, cr0, [lr, #240]!	@ 0xf0
    27a4:	013d0000 	teqeq	sp, r0
    27a8:	00000d44 	andeq	r0, r0, r4, asr #26
    27ac:	1147013e 	cmpne	r7, lr, lsr r1
    27b0:	013f0000 	teqeq	pc, r0
    27b4:	00000fd4 	ldrdeq	r0, [r0], -r4
    27b8:	0f160140 	svceq	0x00160140
    27bc:	01410000 	mrseq	r0, (UNDEF: 65)
    27c0:	00000a0f 	andeq	r0, r0, pc, lsl #20
    27c4:	11a00142 	asrne	r0, r2, #2
    27c8:	01430000 	mrseq	r0, (UNDEF: 67)
    27cc:	00000f89 	andeq	r0, r0, r9, lsl #31
    27d0:	0a930144 	beq	fe4c2ce8 <__bss_end+0x76cbfca4>
    27d4:	01450000 	mrseq	r0, (UNDEF: 69)
    27d8:	000009b7 			@ <UNDEFINED> instruction: 0x000009b7
    27dc:	10c20146 	sbcne	r0, r2, r6, asr #2
    27e0:	01470000 	mrseq	r0, (UNDEF: 71)
    27e4:	00000bbb 			@ <UNDEFINED> instruction: 0x00000bbb
    27e8:	0dd50148 	ldcleq	1, cr0, [r5, #288]	@ 0x120
    27ec:	01490000 	mrseq	r0, (UNDEF: 73)
    27f0:	0000081b 	andeq	r0, r0, fp, lsl r8
    27f4:	08db014a 	ldmeq	fp, {r1, r3, r6, r8}^
    27f8:	014b0000 	mrseq	r0, (UNDEF: 75)
    27fc:	00000ef7 	strdeq	r0, [r0], -r7
    2800:	0968014c 	stmdbeq	r8!, {r2, r3, r6, r8}^
    2804:	014d0000 	mrseq	r0, (UNDEF: 77)
    2808:	00000ebc 			@ <UNDEFINED> instruction: 0x00000ebc
    280c:	08ca014e 	stmiaeq	sl, {r1, r2, r3, r6, r8}^
    2810:	014f0000 	mrseq	r0, SPSR
    2814:	0000111e 	andeq	r1, r0, lr, lsl r1
    2818:	0ac20150 	beq	ff082d60 <__bss_end+0x7787fd1c>
    281c:	01510000 	cmpeq	r1, r0
    2820:	00000a9d 	muleq	r0, sp, sl
    2824:	13620152 	cmnne	r2, #-2147483628	@ 0x80000014
    2828:	01530000 	cmpeq	r3, r0
    282c:	0000095d 	andeq	r0, r0, sp, asr r9
    2830:	11df0154 	bicsne	r0, pc, r4, asr r1	@ <UNPREDICTABLE>
    2834:	01550000 	cmpeq	r5, r0
    2838:	00001277 	andeq	r1, r0, r7, ror r2
    283c:	11140156 	tstne	r4, r6, asr r1
    2840:	01570000 	cmpeq	r7, r0
    2844:	000009ac 	andeq	r0, r0, ip, lsr #19
    2848:	11950158 	orrsne	r0, r5, r8, asr r1
    284c:	01590000 	cmpeq	r9, r0
    2850:	0000138a 	andeq	r1, r0, sl, lsl #7
    2854:	0c15015a 	ldceq	1, cr0, [r5], {90}	@ 0x5a
    2858:	015b0000 	cmpeq	fp, r0
    285c:	00001137 	andeq	r1, r0, r7, lsr r1
    2860:	11cf015c 	bicne	r0, pc, ip, asr r1	@ <UNPREDICTABLE>
    2864:	015d0000 	cmpeq	sp, r0
    2868:	000009c1 	andeq	r0, r0, r1, asr #19
    286c:	0ec9015e 	mcreq	1, 6, r0, cr9, cr14, {2}
    2870:	015f0000 	cmpeq	pc, r0
    2874:	00000fad 	andeq	r0, r0, sp, lsr #31
    2878:	07e70160 	strbeq	r0, [r7, r0, ror #2]!
    287c:	01610000 	cmneq	r1, r0
    2880:	00001029 	andeq	r1, r0, r9, lsr #32
    2884:	120d0162 	andne	r0, sp, #-2147483624	@ 0x80000018
    2888:	01630000 	cmneq	r3, r0
    288c:	000008e9 	andeq	r0, r0, r9, ror #17
    2890:	08010164 	stmdaeq	r1, {r2, r5, r6, r8}
    2894:	01650000 	cmneq	r5, r0
    2898:	00000e09 	andeq	r0, r0, r9, lsl #28
    289c:	0acf0166 	beq	ff3c2e3c <__bss_end+0x77bbfdf8>
    28a0:	01670000 	cmneq	r7, r0
    28a4:	000013ab 	andeq	r1, r0, fp, lsr #7
    28a8:	0d000168 	stceq	1, cr0, [r0, #-416]	@ 0xfffffe60
    28ac:	01690000 	cmneq	r9, r0
    28b0:	00000c96 	muleq	r0, r6, ip
    28b4:	0fe0016a 	svceq	0x00e0016a
    28b8:	016b0000 	cmneq	fp, r0
    28bc:	000009dd 	ldrdeq	r0, [r0], -sp
    28c0:	094c016c 	stmdbeq	ip, {r2, r3, r5, r6, r8}^
    28c4:	016d0000 	cmneq	sp, r0
    28c8:	00000ee6 	andeq	r0, r0, r6, ror #29
    28cc:	0b59016e 	bleq	1642e8c <shift+0x1642e8c>
    28d0:	016f0000 	cmneq	pc, r0
    28d4:	000011b3 			@ <UNDEFINED> instruction: 0x000011b3
    28d8:	0c7a0170 	ldcleq	1, cr0, [sl], #-448	@ 0xfffffe40
    28dc:	01710000 	cmneq	r1, r0
    28e0:	00000b93 	muleq	r0, r3, fp
    28e4:	12030172 	andne	r0, r3, #-2147483620	@ 0x8000001c
    28e8:	01730000 	cmneq	r3, r0
    28ec:	00000cd6 	ldrdeq	r0, [r0], -r6
    28f0:	0c550174 	mrrceq	1, 7, r0, r5, cr4
    28f4:	01750000 	cmneq	r5, r0
    28f8:	000013c4 	andeq	r1, r0, r4, asr #7
    28fc:	100b0176 	andne	r0, fp, r6, ror r1
    2900:	01770000 	cmneq	r7, r0
    2904:	00000b4b 	andeq	r0, r0, fp, asr #22
    2908:	0d210178 	stceq	1, cr0, [r1, #-480]!	@ 0xfffffe20
    290c:	01790000 	cmneq	r9, r0
    2910:	00000b14 	andeq	r0, r0, r4, lsl fp
    2914:	0a9e017a 	beq	fe782f04 <__bss_end+0x76f7fec0>
    2918:	017b0000 	cmneq	fp, r0
    291c:	00000d9e 	muleq	r0, lr, sp
    2920:	0ce0017c 	stcleq	1, cr0, [r0], #496	@ 0x1f0
    2924:	017d0000 	cmneq	sp, r0
    2928:	00000c3c 	andeq	r0, r0, ip, lsr ip
    292c:	0f74017e 	svceq	0x0074017e
    2930:	017f0000 	cmneq	pc, r0
    2934:	00000e8a 	andeq	r0, r0, sl, lsl #29
    2938:	0b9c0180 	bleq	fe702f40 <__bss_end+0x76effefc>
    293c:	01810000 	orreq	r0, r1, r0
    2940:	00001303 	andeq	r1, r0, r3, lsl #6
    2944:	0c690182 	stcleq	1, cr0, [r9], #-520	@ 0xfffffdf8
    2948:	01830000 	orreq	r0, r3, r0
    294c:	000010a2 	andeq	r1, r0, r2, lsr #1
    2950:	093f0184 	ldmdbeq	pc!, {r2, r7, r8}	@ <UNPREDICTABLE>
    2954:	01850000 	orreq	r0, r5, r0
    2958:	00000e79 	andeq	r0, r0, r9, ror lr
    295c:	0d750186 	ldcleq	1, cr0, [r5, #-536]!	@ 0xfffffde8
    2960:	01870000 	orreq	r0, r7, r0
    2964:	0000092a 	andeq	r0, r0, sl, lsr #18
    2968:	11000188 	smlabbne	r0, r8, r1, r0
    296c:	01890000 	orreq	r0, r9, r0
    2970:	00000bec 	andeq	r0, r0, ip, ror #23
    2974:	1082018a 	addne	r0, r2, sl, lsl #3
    2978:	018b0000 	orreq	r0, fp, r0
    297c:	00000b7d 	andeq	r0, r0, sp, ror fp
    2980:	0c00018c 	stceq	1, cr0, [r0], {140}	@ 0x8c
    2984:	018d0000 	orreq	r0, sp, r0
    2988:	000007f7 	strdeq	r0, [r0], -r7
    298c:	136c018e 	cmnne	ip, #-2147483613	@ 0x80000023
    2990:	018f0000 	orreq	r0, pc, r0
    2994:	00000f4f 	andeq	r0, r0, pc, asr #30
    2998:	0e220190 	mcreq	1, 1, r0, cr2, cr0, {4}
    299c:	01910000 	orrseq	r0, r1, r0
    29a0:	00000f60 	andeq	r0, r0, r0, ror #30
    29a4:	0e3b0192 	mrceq	1, 1, r0, cr11, cr2, {4}
    29a8:	01930000 	orrseq	r0, r3, r0
    29ac:	000009a2 	andeq	r0, r0, r2, lsr #19
    29b0:	118b0194 			@ <UNDEFINED> instruction: 0x118b0194
    29b4:	01950000 	orrseq	r0, r5, r0
    29b8:	00001249 	andeq	r1, r0, r9, asr #4
    29bc:	0b3b0196 	bleq	ec301c <shift+0xec301c>
    29c0:	01970000 	orrseq	r0, r7, r0
    29c4:	00000d39 	andeq	r0, r0, r9, lsr sp
    29c8:	0af30198 	beq	ffcc3030 <__bss_end+0x784bffec>
    29cc:	01990000 	orrseq	r0, r9, r0
    29d0:	0000139a 	muleq	r0, sl, r3
    29d4:	0f05019a 	svceq	0x0005019a
    29d8:	019b0000 	orrseq	r0, fp, r0
    29dc:	000009f5 	strdeq	r0, [r0], -r5
    29e0:	08a1019c 	stmiaeq	r1!, {r2, r3, r4, r7, r8}
    29e4:	019d0000 	orrseq	r0, sp, r0
    29e8:	00001165 	andeq	r1, r0, r5, ror #2
    29ec:	0d67019e 	stcleq	1, cr0, [r7, #-632]!	@ 0xfffffd88
    29f0:	009f0000 	addseq	r0, pc, r0
    29f4:	000cbe0a 	andeq	fp, ip, sl, lsl #28
    29f8:	03c90300 	biceq	r0, r9, #0, 6
    29fc:	000001c3 	andeq	r0, r0, r3, asr #3
    2a00:	02300418 	eorseq	r0, r0, #24, 8	@ 0x18000000
    2a04:	be090207 	cdplt	2, 0, cr0, cr9, cr7, {0}
    2a08:	09000008 	stmdbeq	r0, {r3}
    2a0c:	00000a30 	andeq	r0, r0, r0, lsr sl
    2a10:	12020902 	andne	r0, r2, #32768	@ 0x8000
    2a14:	000008be 			@ <UNDEFINED> instruction: 0x000008be
    2a18:	12e70200 	rscne	r0, r7, #0, 4
    2a1c:	020a0000 	andeq	r0, sl, #0
    2a20:	00000079 	andeq	r0, r0, r9, ror r0
    2a24:	df021000 	svcle	0x00021000
    2a28:	0b000007 	bleq	2a4c <shift+0x2a4c>
    2a2c:	00007e02 	andeq	r7, r0, r2, lsl #28
    2a30:	02100400 	andseq	r0, r0, #0, 8
    2a34:	00000d1a 	andeq	r0, r0, sl, lsl sp
    2a38:	007e020c 	rsbseq	r0, lr, ip, lsl #4
    2a3c:	10080000 	andne	r0, r8, r0
    2a40:	000a3a02 	andeq	r3, sl, r2, lsl #20
    2a44:	cf020d00 	svcgt	0x00020d00
    2a48:	0c000008 	stceq	0, cr0, [r0], {8}
    2a4c:	11c50210 	bicne	r0, r5, r0, lsl r2
    2a50:	020e0000 	andeq	r0, lr, #0
    2a54:	000008ef 	andeq	r0, r0, pc, ror #17
    2a58:	e9021080 	stmdb	r2, {r7, ip}
    2a5c:	0f00000a 	svceq	0x0000000a
    2a60:	0008f402 	andeq	pc, r8, r2, lsl #8
    2a64:	0210c000 	andseq	ip, r0, #0
    2a68:	00000e45 	andeq	r0, r0, r5, asr #28
    2a6c:	08ef0210 	stmiaeq	pc!, {r4, r9}^	@ <UNPREDICTABLE>
    2a70:	11000000 	mrsne	r0, (UNDEF: 0)
    2a74:	000a4402 	andeq	r4, sl, r2, lsl #8
    2a78:	f4021100 	vst4.8	{d1,d3,d5,d7}, [r2], r0
    2a7c:	40000008 	andmi	r0, r0, r8
    2a80:	10f40211 	rscsne	r0, r4, r1, lsl r2
    2a84:	02120000 	andseq	r0, r2, #0
    2a88:	000008ef 	andeq	r0, r0, pc, ror #17
    2a8c:	4e021180 	cdpmi	1, 0, cr1, cr2, cr0, {4}
    2a90:	1300000a 	tstne	r0, #10
    2a94:	0008f402 	andeq	pc, r8, r2, lsl #8
    2a98:	0211c000 	andseq	ip, r1, #0
    2a9c:	00000f6a 	andeq	r0, r0, sl, ror #30
    2aa0:	08ef0214 	stmiaeq	pc!, {r2, r4, r9}^	@ <UNPREDICTABLE>
    2aa4:	12000000 	andne	r0, r0, #0
    2aa8:	000a5802 	andeq	r5, sl, r2, lsl #16
    2aac:	f4021500 	vst3.8	{d1,d3,d5}, [r2], r0
    2ab0:	40000008 	andmi	r0, r0, r8
    2ab4:	097e0212 	ldmdbeq	lr!, {r1, r4, r9}^
    2ab8:	02160000 	andseq	r0, r6, #0
    2abc:	000008ef 	andeq	r0, r0, pc, ror #17
    2ac0:	62021280 	andvs	r1, r2, #128, 4
    2ac4:	1700000a 	strne	r0, [r0, -sl]
    2ac8:	0008f402 	andeq	pc, r8, r2, lsl #8
    2acc:	0212c000 	andseq	ip, r2, #0
    2ad0:	00001295 	muleq	r0, r5, r2
    2ad4:	08ef0218 	stmiaeq	pc!, {r3, r4, r9}^	@ <UNPREDICTABLE>
    2ad8:	13000000 	tstne	r0, #0
    2adc:	000b0302 	andeq	r0, fp, r2, lsl #6
    2ae0:	f4021900 	vst2.8	{d1,d3}, [r2], r0
    2ae4:	40000008 	andmi	r0, r0, r8
    2ae8:	0b6a0213 	bleq	1a8333c <shift+0x1a8333c>
    2aec:	021a0000 	andseq	r0, sl, #0
    2af0:	000008ef 	andeq	r0, r0, pc, ror #17
    2af4:	7f021380 	svcvc	0x00021380
    2af8:	1b00000a 	blne	2b28 <shift+0x2b28>
    2afc:	0008f402 	andeq	pc, r8, r2, lsl #8
    2b00:	0213c000 	andseq	ip, r3, #0
    2b04:	000012ad 	andeq	r1, r0, sp, lsr #5
    2b08:	0915021c 	ldmdbeq	r5, {r2, r3, r4, r9}
    2b0c:	14000000 	strne	r0, [r0], #-0
    2b10:	000a8902 	andeq	r8, sl, r2, lsl #18
    2b14:	1a021d00 	bne	89f1c <shift+0x89f1c>
    2b18:	00000009 	andeq	r0, r0, r9
    2b1c:	0d4f0216 	stcleq	2, cr0, [pc, #-88]	@ 2acc <shift+0x2acc>
    2b20:	021e0000 	andseq	r0, lr, #0
    2b24:	00000915 	andeq	r0, r0, r5, lsl r9
    2b28:	8c021800 	stchi	8, cr1, [r2], {-0}
    2b2c:	1f000010 	svcne	0x00000010
    2b30:	00091a02 	andeq	r1, r9, r2, lsl #20
    2b34:	021a0000 	andseq	r0, sl, #0
    2b38:	00000fbd 			@ <UNDEFINED> instruction: 0x00000fbd
    2b3c:	093a0220 	ldmdbeq	sl!, {r5, r9}
    2b40:	1c000000 	stcne	0, cr0, [r0], {-0}
    2b44:	00109702 	andseq	r9, r0, r2, lsl #14
    2b48:	3f022100 	svccc	0x00022100
    2b4c:	80000009 	andhi	r0, r0, r9
    2b50:	0976021c 	ldmdbeq	r6!, {r2, r3, r4, r9}^
    2b54:	02220000 	eoreq	r0, r2, #0
    2b58:	0000007e 	andeq	r0, r0, lr, ror r0
    2b5c:	42021d00 	andmi	r1, r2, #0, 26
    2b60:	23000010 	tstcs	r0, #16
    2b64:	00096402 	andeq	r6, r9, r2, lsl #8
    2b68:	021d0400 	andseq	r0, sp, #0, 8
    2b6c:	0000130d 	andeq	r1, r0, sp, lsl #6
    2b70:	09690224 	stmdbeq	r9!, {r2, r5, r9}^
    2b74:	1d400000 	stclne	0, cr0, [r0, #-0]
    2b78:	000b3402 	andeq	r3, fp, r2, lsl #8
    2b7c:	79022500 	stmdbvc	r2, {r8, sl, sp}
    2b80:	00000000 	andeq	r0, r0, r0
    2b84:	10ac021f 	adcne	r0, ip, pc, lsl r2
    2b88:	02260000 	eoreq	r0, r6, #0
    2b8c:	00000979 	andeq	r0, r0, r9, ror r9
    2b90:	b6021f04 	strlt	r1, [r2], -r4, lsl #30
    2b94:	2700000a 	strcs	r0, [r0, -sl]
    2b98:	00099902 	andeq	r9, r9, r2, lsl #18
    2b9c:	021f1000 	andseq	r1, pc, #0
    2ba0:	0000117f 	andeq	r1, r0, pc, ror r1
    2ba4:	09990228 	ldmibeq	r9, {r3, r5, r9}
    2ba8:	1f200000 	svcne	0x00200000
    2bac:	0010b702 	andseq	fp, r0, r2, lsl #14
    2bb0:	9e022900 			@ <UNDEFINED> instruction: 0x9e022900
    2bb4:	30000009 	andcc	r0, r0, r9
    2bb8:	0e59021f 	mrceq	2, 2, r0, cr9, cr15, {0}
    2bbc:	022a0000 	eoreq	r0, sl, #0
    2bc0:	0000007e 	andeq	r0, r0, lr, ror r0
    2bc4:	61021fd0 	ldrdvs	r1, [r2, -r0]
    2bc8:	2b00000e 	blcs	2c08 <shift+0x2c08>
    2bcc:	00007e02 	andeq	r7, r0, r2, lsl #28
    2bd0:	021fd400 	andseq	sp, pc, #0, 8
    2bd4:	00000e69 	andeq	r0, r0, r9, ror #28
    2bd8:	007e022c 	rsbseq	r0, lr, ip, lsr #4
    2bdc:	1fd80000 	svcne	0x00d80000
    2be0:	000e7102 	andeq	r7, lr, r2, lsl #2
    2be4:	7e022d00 	cdpvc	13, 0, cr2, cr2, cr0, {0}
    2be8:	dc000000 	stcle	0, cr0, [r0], {-0}
    2bec:	0e33021f 	mrceq	2, 1, r0, cr3, cr15, {0}
    2bf0:	022e0000 	eoreq	r0, lr, #0
    2bf4:	0000007e 	andeq	r0, r0, lr, ror r0
    2bf8:	48021fe0 	stmdami	r2, {r5, r6, r7, r8, r9, sl, fp, ip}
    2bfc:	2f000008 	svccs	0x00000008
    2c00:	00007e02 	andeq	r7, r0, r2, lsl #28
    2c04:	021fe400 	andseq	lr, pc, #0, 8
    2c08:	00000850 	andeq	r0, r0, r0, asr r8
    2c0c:	007e0230 	rsbseq	r0, lr, r0, lsr r2
    2c10:	1fe80000 	svcne	0x00e80000
    2c14:	000e5102 	andeq	r5, lr, r2, lsl #2
    2c18:	7e023100 	cdpvc	1, 0, cr3, cr2, cr0, {0}
    2c1c:	ec000000 	stc	0, cr0, [r0], {-0}
    2c20:	0e9c021f 	mrceq	2, 4, r0, cr12, cr15, {0}
    2c24:	02320000 	eorseq	r0, r2, #0
    2c28:	0000007e 	andeq	r0, r0, lr, ror r0
    2c2c:	a4021ff0 	strge	r1, [r2], #-4080	@ 0xfffff010
    2c30:	3300000e 	tstcc	r0, #14
    2c34:	00007e02 	andeq	r7, r0, r2, lsl #28
    2c38:	021ff400 	andseq	pc, pc, #0, 8
    2c3c:	00000eac 	andeq	r0, r0, ip, lsr #29
    2c40:	007e0234 	rsbseq	r0, lr, r4, lsr r2
    2c44:	1ff80000 	svcne	0x00f80000
    2c48:	000eb402 	andeq	fp, lr, r2, lsl #8
    2c4c:	7e023500 	cdpvc	5, 0, cr3, cr2, cr0, {0}
    2c50:	fc000000 	stc2	0, cr0, [r0], {-0}
    2c54:	0b76021f 	bleq	1d834d8 <shift+0x1d834d8>
    2c58:	02370000 	eorseq	r0, r7, #0
    2c5c:	00000079 	andeq	r0, r0, r9, ror r0
    2c60:	5d022000 	stcpl	0, cr2, [r2, #-0]
    2c64:	38000012 	stmdacc	r0, {r1, r4}
    2c68:	00007902 	andeq	r7, r0, r2, lsl #18
    2c6c:	02200400 	eoreq	r0, r0, #0, 8
    2c70:	00000c2b 	andeq	r0, r0, fp, lsr #24
    2c74:	00790239 	rsbseq	r0, r9, r9, lsr r2
    2c78:	20080000 	andcs	r0, r8, r0
    2c7c:	00085802 	andeq	r5, r8, r2, lsl #16
    2c80:	7e023a00 	vmlavc.f32	s6, s4, s0
    2c84:	0c000000 	stceq	0, cr0, [r0], {-0}
    2c88:	09ee0220 	stmibeq	lr!, {r5, r9}^
    2c8c:	023b0000 	eorseq	r0, fp, #0
    2c90:	00000079 	andeq	r0, r0, r9, ror r0
    2c94:	25022010 	strcs	r2, [r2, #-16]
    2c98:	3c00000c 	stccc	0, cr0, [r0], {12}
    2c9c:	00007e02 	andeq	r7, r0, r2, lsl #28
    2ca0:	02201400 	eoreq	r1, r0, #0, 8
    2ca4:	00000c85 	andeq	r0, r0, r5, lsl #25
    2ca8:	007e023d 	rsbseq	r0, lr, sp, lsr r2
    2cac:	20180000 	andscs	r0, r8, r0
    2cb0:	0011be02 	andseq	fp, r1, r2, lsl #28
    2cb4:	79023e00 	stmdbvc	r2, {r9, sl, fp, ip, sp}
    2cb8:	1c000000 	stcne	0, cr0, [r0], {-0}
    2cbc:	0b0d0220 	bleq	343544 <shift+0x343544>
    2cc0:	023f0000 	eorseq	r0, pc, #0
    2cc4:	0000007e 	andeq	r0, r0, lr, ror r0
    2cc8:	2f022020 	svccs	0x00022020
    2ccc:	40000011 	andmi	r0, r0, r1, lsl r0
    2cd0:	00007902 	andeq	r7, r0, r2, lsl #18
    2cd4:	02202400 	eoreq	r2, r0, #0, 8
    2cd8:	00001254 	andeq	r1, r0, r4, asr r2
    2cdc:	007e0241 	rsbseq	r0, lr, r1, asr #4
    2ce0:	20280000 	eorcs	r0, r8, r0
    2ce4:	00131802 	andseq	r1, r3, r2, lsl #16
    2ce8:	ae024200 	cdpge	2, 0, cr4, cr2, cr0, {0}
    2cec:	2c000009 	stccs	0, cr0, [r0], {9}
    2cf0:	0fcd0220 	svceq	0x00cd0220
    2cf4:	02430000 	subeq	r0, r3, #0
    2cf8:	00000079 	andeq	r0, r0, r9, ror r0
    2cfc:	cd0220d0 	stcgt	0, cr2, [r2, #-832]	@ 0xfffffcc0
    2d00:	44000010 	strmi	r0, [r0], #-16
    2d04:	00097902 	andeq	r7, r9, r2, lsl #18
    2d08:	0220d400 	eoreq	sp, r0, #0, 8
    2d0c:	00000994 	muleq	r0, r4, r9
    2d10:	00790245 	rsbseq	r0, r9, r5, asr #4
    2d14:	20e00000 	rsccs	r0, r0, r0
    2d18:	0010d802 	andseq	sp, r0, r2, lsl #16
    2d1c:	be024600 	cdplt	6, 0, cr4, cr2, cr0, {0}
    2d20:	e4000009 	str	r0, [r0], #-9
    2d24:	12330220 	eorsne	r0, r3, #32, 4
    2d28:	02470000 	subeq	r0, r7, #0
    2d2c:	0000007e 	andeq	r0, r0, lr, ror r0
    2d30:	e30220fc 	tst	r2, #252	@ 0xfc
    2d34:	48000010 	stmdami	r0, {r4}
    2d38:	0009ce02 	andeq	ip, r9, r2, lsl #28
    2d3c:	02210000 	eoreq	r0, r1, #0
    2d40:	000010ee 	andeq	r1, r0, lr, ror #1
    2d44:	00790249 	rsbseq	r0, r9, r9, asr #4
    2d48:	30000000 	andcc	r0, r0, r0
    2d4c:	006d0400 	rsbeq	r0, sp, r0, lsl #8
    2d50:	08cf0000 	stmiaeq	pc, {}^	@ <UNPREDICTABLE>
    2d54:	830f0000 	tsthi	pc, #0
    2d58:	ff000000 			@ <UNDEFINED> instruction: 0xff000000
    2d5c:	6d040003 	stcvs	0, cr0, [r4, #-12]
    2d60:	df000000 	svcle	0x00000000
    2d64:	05000008 	streq	r0, [r0, #-8]
    2d68:	00000083 	andeq	r0, r0, r3, lsl #1
    2d6c:	7904001c 	stmdbvc	r4, {r2, r3, r4}
    2d70:	ef000000 	svc	0x00000000
    2d74:	05000008 	streq	r0, [r0, #-8]
    2d78:	00000083 	andeq	r0, r0, r3, lsl #1
    2d7c:	df08000f 	svcle	0x0008000f
    2d80:	04000008 	streq	r0, [r0], #-8
    2d84:	0000006d 	andeq	r0, r0, sp, rrx
    2d88:	00000904 	andeq	r0, r0, r4, lsl #18
    2d8c:	00008305 	andeq	r8, r0, r5, lsl #6
    2d90:	04000f00 	streq	r0, [r0], #-3840	@ 0xfffff100
    2d94:	0000005a 	andeq	r0, r0, sl, asr r0
    2d98:	00000915 	andeq	r0, r0, r5, lsl r9
    2d9c:	0000830f 	andeq	r8, r0, pc, lsl #6
    2da0:	0001ff00 	andeq	pc, r1, r0, lsl #30
    2da4:	00090408 	andeq	r0, r9, r8, lsl #8
    2da8:	006d0400 	rsbeq	r0, sp, r0, lsl #8
    2dac:	092a0000 	stmdbeq	sl!, {}	@ <UNPREDICTABLE>
    2db0:	83050000 	tsthi	r5, #0
    2db4:	7f000000 	svcvc	0x00000000
    2db8:	00790400 	rsbseq	r0, r9, r0, lsl #8
    2dbc:	093a0000 	ldmdbeq	sl!, {}	@ <UNPREDICTABLE>
    2dc0:	83050000 	tsthi	r5, #0
    2dc4:	1f000000 	svcne	0x00000000
    2dc8:	092a0800 	stmdbeq	sl!, {fp}
    2dcc:	6d040000 	stcvs	0, cr0, [r4, #-0]
    2dd0:	4f000000 	svcmi	0x00000000
    2dd4:	05000009 	streq	r0, [r0, #-9]
    2dd8:	00000083 	andeq	r0, r0, r3, lsl #1
    2ddc:	7e04001f 	mcrvc	0, 0, r0, cr4, cr15, {0}
    2de0:	5f000000 	svcpl	0x00000000
    2de4:	05000009 	streq	r0, [r0, #-9]
    2de8:	00000083 	andeq	r0, r0, r3, lsl #1
    2dec:	4f10000e 	svcmi	0x0010000e
    2df0:	08000009 	stmdaeq	r0, {r0, r3}
    2df4:	0000095f 	andeq	r0, r0, pc, asr r9
    2df8:	00006d04 	andeq	r6, r0, r4, lsl #26
    2dfc:	00097900 	andeq	r7, r9, r0, lsl #18
    2e00:	00830500 	addeq	r0, r3, r0, lsl #10
    2e04:	006f0000 	rsbeq	r0, pc, r0
    2e08:	00006d04 	andeq	r6, r0, r4, lsl #26
    2e0c:	00098900 	andeq	r8, r9, r0, lsl #18
    2e10:	00830500 	addeq	r0, r3, r0, lsl #10
    2e14:	00020000 	andeq	r0, r2, r0
    2e18:	00005a04 	andeq	r5, r0, r4, lsl #20
    2e1c:	00099900 	andeq	r9, r9, r0, lsl #18
    2e20:	00830500 	addeq	r0, r3, r0, lsl #10
    2e24:	000f0000 	andeq	r0, pc, r0
    2e28:	00098908 	andeq	r8, r9, r8, lsl #18
    2e2c:	006d0400 	rsbeq	r0, sp, r0, lsl #8
    2e30:	09ae0000 	stmibeq	lr!, {}	@ <UNPREDICTABLE>
    2e34:	83050000 	tsthi	r5, #0
    2e38:	27000000 	strcs	r0, [r0, -r0]
    2e3c:	006d0400 	rsbeq	r0, sp, r0, lsl #8
    2e40:	09be0000 	ldmibeq	lr!, {}	@ <UNPREDICTABLE>
    2e44:	83050000 	tsthi	r5, #0
    2e48:	28000000 	stmdacs	r0, {}	@ <UNPREDICTABLE>
    2e4c:	006d0400 	rsbeq	r0, sp, r0, lsl #8
    2e50:	09ce0000 	stmibeq	lr, {}^	@ <UNPREDICTABLE>
    2e54:	83050000 	tsthi	r5, #0
    2e58:	05000000 	streq	r0, [r0, #-0]
    2e5c:	006d0400 	rsbeq	r0, sp, r0, lsl #8
    2e60:	09df0000 	ldmibeq	pc, {}^	@ <UNPREDICTABLE>
    2e64:	830f0000 	tsthi	pc, #0
    2e68:	bf000000 	svclt	0x00000000
    2e6c:	020a0003 	andeq	r0, sl, #3
    2e70:	02000009 	andeq	r0, r0, #9
    2e74:	0571024a 	ldrbeq	r0, [r1, #-586]!	@ 0xfffffdb6
    2e78:	a60b0000 	strge	r0, [fp], -r0
    2e7c:	0400000b 	streq	r0, [r0], #-11
    2e80:	09f71006 	ldmibeq	r7!, {r1, r2, ip}^
    2e84:	fc0d0000 	stc2	0, cr0, [sp], {-0}
    2e88:	19000009 	stmdbne	r0, {r0, r3}
    2e8c:	00000a0c 	andeq	r0, r0, ip, lsl #20
    2e90:	00006d03 	andeq	r6, r0, r3, lsl #26
    2e94:	0a0c0300 	beq	303a9c <shift+0x303a9c>
    2e98:	1a000000 	bne	2ea0 <shift+0x2ea0>
    2e9c:	14d21b04 	ldrbne	r1, [r2], #2820	@ 0xb04
    2ea0:	04070000 	streq	r0, [r7], #-0
    2ea4:	00000083 	andeq	r0, r0, r3, lsl #1
    2ea8:	2d060905 			@ <UNDEFINED> instruction: 0x2d060905
    2eac:	0100000a 	tsteq	r0, sl
    2eb0:	00001509 	andeq	r1, r0, r9, lsl #10
    2eb4:	14dc0100 	ldrbne	r0, [ip], #256	@ 0x100
    2eb8:	00010000 	andeq	r0, r1, r0
    2ebc:	de080107 	cdple	1, 0, cr0, cr8, cr7, {0}
    2ec0:	06000000 	streq	r0, [r0], -r0
    2ec4:	000001d1 	ldrdeq	r0, [r0], -r1
    2ec8:	0a4a2f06 	beq	128eae8 <shift+0x128eae8>
    2ecc:	4a030000 	bmi	c2ed4 <shift+0xc2ed4>
    2ed0:	0300000a 	tsteq	r0, #10
    2ed4:	0000006d 	andeq	r0, r0, sp, rrx
    2ed8:	01080d00 	tsteq	r8, r0, lsl #26
    2edc:	2a060000 	bcs	182ee4 <shift+0x182ee4>
    2ee0:	0700000d 	streq	r0, [r0, -sp]
    2ee4:	000a600f 	andeq	r6, sl, pc
    2ee8:	006d0300 	rsbeq	r0, sp, r0, lsl #6
    2eec:	1c000000 	stcne	0, cr0, [r0], {-0}
    2ef0:	000012a1 	andeq	r1, r0, r1, lsr #5
    2ef4:	6e060d07 	cdpvs	13, 0, cr0, cr6, cr7, {0}
    2ef8:	1d00000a 	stcne	0, cr0, [r0, #-40]	@ 0xffffffd8
    2efc:	12630600 	rsbne	r0, r3, #0, 12
    2f00:	12080000 	andne	r0, r8, #0
    2f04:	00000a7f 	andeq	r0, r0, pc, ror sl
    2f08:	000a7f03 	andeq	r7, sl, r3, lsl #30
    2f0c:	4e0d0000 	cdpmi	0, 0, cr0, cr13, cr0, {0}
    2f10:	06000000 	streq	r0, [r0], -r0
    2f14:	00000276 	andeq	r0, r0, r6, ror r2
    2f18:	0a9a2d06 	beq	fe68e338 <__bss_end+0x76e8b2f4>
    2f1c:	4a030000 	bmi	c2f24 <shift+0xc2f24>
    2f20:	0300000a 	tsteq	r0, #10
    2f24:	0000006d 	andeq	r0, r0, sp, rrx
    2f28:	13760600 	cmnne	r6, #0, 12
    2f2c:	0e040000 	cdpeq	0, 0, cr0, cr4, cr0, {0}
    2f30:	00000ab5 			@ <UNDEFINED> instruction: 0x00000ab5
    2f34:	0009eb03 	andeq	lr, r9, r3, lsl #22
    2f38:	05650300 	strbeq	r0, [r5, #-768]!	@ 0xfffffd00
    2f3c:	0c030000 	stceq	0, cr0, [r3], {-0}
    2f40:	0000000a 	andeq	r0, r0, sl
    2f44:	00020406 	andeq	r0, r2, r6, lsl #8
    2f48:	d0290600 	eorle	r0, r9, r0, lsl #12
    2f4c:	0300000a 	tsteq	r0, #10
    2f50:	000001b7 			@ <UNDEFINED> instruction: 0x000001b7
    2f54:	000a4a03 	andeq	r4, sl, r3, lsl #20
    2f58:	006d0300 	rsbeq	r0, sp, r0, lsl #6
    2f5c:	06000000 	streq	r0, [r0], -r0
    2f60:	0000001a 	andeq	r0, r0, sl, lsl r0
    2f64:	0ae62e06 	beq	ff98e784 <__bss_end+0x7818b740>
    2f68:	4a030000 	bmi	c2f70 <shift+0xc2f70>
    2f6c:	0300000a 	tsteq	r0, #10
    2f70:	0000006d 	andeq	r0, r0, sp, rrx
    2f74:	08c40600 	stmiaeq	r4, {r9, sl}^
    2f78:	07090000 	streq	r0, [r9, -r0]
    2f7c:	00000af7 	strdeq	r0, [r0], -r7
    2f80:	00008a03 	andeq	r8, r0, r3, lsl #20
    2f84:	d1060000 	mrsle	r0, (UNDEF: 6)
    2f88:	0a000002 	beq	2f98 <shift+0x2f98>
    2f8c:	000b210c 	andeq	r2, fp, ip, lsl #2
    2f90:	006d0300 	rsbeq	r0, sp, r0, lsl #6
    2f94:	6d030000 	stcvs	0, cr0, [r3, #-0]
    2f98:	03000000 	tsteq	r0, #0
    2f9c:	0000006d 	andeq	r0, r0, sp, rrx
    2fa0:	00006d03 	andeq	r6, r0, r3, lsl #26
    2fa4:	006d0300 	rsbeq	r0, sp, r0, lsl #6
    2fa8:	6d030000 	stcvs	0, cr0, [r3, #-0]
    2fac:	00000000 	andeq	r0, r0, r0
    2fb0:	00030906 	andeq	r0, r3, r6, lsl #18
    2fb4:	4b050a00 	blmi	1457bc <shift+0x1457bc>
    2fb8:	0300000b 	tsteq	r0, #11
    2fbc:	0000006d 	andeq	r0, r0, sp, rrx
    2fc0:	00006d03 	andeq	r6, r0, r3, lsl #26
    2fc4:	006d0300 	rsbeq	r0, sp, r0, lsl #6
    2fc8:	6d030000 	stcvs	0, cr0, [r3, #-0]
    2fcc:	03000000 	tsteq	r0, #0
    2fd0:	0000006d 	andeq	r0, r0, sp, rrx
    2fd4:	00006d03 	andeq	r6, r0, r3, lsl #26
    2fd8:	bb1e0000 	bllt	782fe0 <shift+0x782fe0>
    2fdc:	01000014 	tsteq	r0, r4, lsl r0
    2fe0:	20b40627 	adcscs	r0, r4, r7, lsr #12
    2fe4:	00648780 	rsbeq	r8, r4, r0, lsl #15
    2fe8:	9c010000 	stcls	0, cr0, [r1], {-0}
    2fec:	00000b7c 	andeq	r0, r0, ip, ror fp
    2ff0:	000fc511 	andeq	ip, pc, r1, lsl r5	@ <UNPREDICTABLE>
    2ff4:	006d2600 	rsbeq	r2, sp, r0, lsl #12
    2ff8:	91020000 	mrsls	r0, (UNDEF: 2)
    2ffc:	14751174 	ldrbtne	r1, [r5], #-372	@ 0xfffffe8c
    3000:	0c350000 	ldceq	0, cr0, [r5], #-0
    3004:	0200000a 	andeq	r0, r0, #10
    3008:	1f007091 	svcne	0x00007091
    300c:	000014f5 	strdeq	r1, [r0], -r5
    3010:	f0061901 			@ <UNDEFINED> instruction: 0xf0061901
    3014:	c487801f 	strgt	r8, [r7], #31
    3018:	01000000 	mrseq	r0, (UNDEF: 0)
    301c:	000beb9c 	muleq	fp, ip, fp
    3020:	02222000 	eoreq	r2, r2, #0
    3024:	1b010000 	blne	4302c <shift+0x4302c>
    3028:	0001b717 	andeq	fp, r1, r7, lsl r7
    302c:	6c910200 	ldcvs	2, cr0, [r1], {0}
    3030:	000c1321 	andeq	r1, ip, r1, lsr #6
    3034:	80203800 	eorhi	r3, r0, r0, lsl #16
    3038:	00004487 	andeq	r4, r0, r7, lsl #9
    303c:	05210100 	streq	r0, [r1, #-256]!	@ 0xffffff00
    3040:	000c2122 	andeq	r2, ip, r2, lsr #2
    3044:	60910200 	addsvs	r0, r1, r0, lsl #4
    3048:	000c2e12 	andeq	r2, ip, r2, lsl lr
    304c:	68910200 	ldmvs	r1, {r9}
    3050:	000c4123 	andeq	r4, ip, r3, lsr #2
    3054:	80203800 	eorhi	r3, r0, r0, lsl #16
    3058:	00001087 	andeq	r1, r0, r7, lsl #1
    305c:	026b0200 	rsbeq	r0, fp, #0, 4
    3060:	0c4f2420 	mcrreq	4, 2, r2, pc, cr0
    3064:	20380000 	eorscs	r0, r8, r0
    3068:	000c8780 	andeq	r8, ip, r0, lsl #15
    306c:	50120000 	andspl	r0, r2, r0
    3070:	0200000c 	andeq	r0, r0, #12
    3074:	00006491 	muleq	r0, r1, r4
    3078:	e8250000 	stmda	r5!, {}	@ <UNPREDICTABLE>
    307c:	01000014 	tsteq	r0, r4, lsl r0
    3080:	0040050c 	subeq	r0, r0, ip, lsl #10
    3084:	1f980000 	svcne	0x00980000
    3088:	00588780 	subseq	r8, r8, r0, lsl #15
    308c:	9c010000 	stcls	0, cr0, [r1], {-0}
    3090:	00151326 	andseq	r1, r5, r6, lsr #6
    3094:	06050100 	streq	r0, [r5], -r0, lsl #2
    3098:	87801f2c 	strhi	r1, [r0, ip, lsr #30]
    309c:	0000006c 	andeq	r0, r0, ip, rrx
    30a0:	69279c01 	stmdbvs	r7!, {r0, sl, fp, ip, pc}
    30a4:	02000012 	andeq	r0, r0, #18
    30a8:	03230269 			@ <UNDEFINED> instruction: 0x03230269
    30ac:	00000c3c 	andeq	r0, r0, ip, lsr ip
    30b0:	000ef228 	andeq	pc, lr, r8, lsr #4
    30b4:	02690200 	rsbeq	r0, r9, #0, 4
    30b8:	0005653b 	andeq	r6, r5, fp, lsr r5
    30bc:	69672900 	stmdbvs	r7!, {r8, fp, sp}^
    30c0:	6b020063 	blvs	83254 <shift+0x83254>
    30c4:	0c3c0d02 	ldceq	13, cr0, [ip], #-8
    30c8:	0d000000 	stceq	0, cr0, [r0, #-0]
    30cc:	000009df 	ldrdeq	r0, [r0], -pc	@ <UNPREDICTABLE>
    30d0:	000fa22a 	andeq	sl, pc, sl, lsr #4
    30d4:	01ff0200 	mvnseq	r0, r0, lsl #4
    30d8:	00006d27 	andeq	r6, r0, r7, lsr #26
    30dc:	2c2b0300 	stccs	3, cr0, [fp], #-0
    30e0:	000011fd 	strdeq	r1, [r0], -sp
    30e4:	0a020102 	beq	834f4 <shift+0x834f4>
    30e8:	0000006d 	andeq	r0, r0, sp, rrx
    30ec:	7a000000 	bvc	30f4 <shift+0x30f4>
    30f0:	05000001 	streq	r0, [r0, #-1]
    30f4:	ec040100 	stc	1, cr0, [r4], {-0}
    30f8:	0800000b 	stmdaeq	r0, {r0, r1, r3}
    30fc:	0000002b 	andeq	r0, r0, fp, lsr #32
    3100:	0015341d 	andseq	r3, r5, sp, lsl r4
    3104:	00008900 	andeq	r8, r0, r0, lsl #18
    3108:	80211800 	eorhi	r1, r1, r0, lsl #16
    310c:	00012c87 	andeq	r2, r1, r7, lsl #25
    3110:	0009cb00 	andeq	ip, r9, r0, lsl #22
    3114:	06010200 	streq	r0, [r1], -r0, lsl #4
    3118:	000000d7 	ldrdeq	r0, [r0], -r7
    311c:	fa050202 	blx	14392c <shift+0x14392c>
    3120:	09000001 	stmdbeq	r0, {r0}
    3124:	6e690504 	cdpvs	5, 6, cr0, cr9, cr4, {0}
    3128:	08020074 	stmdaeq	r2, {r2, r4, r5, r6}
    312c:	0001b505 	andeq	fp, r1, r5, lsl #10
    3130:	08010200 	stmdaeq	r1, {r9}
    3134:	000000d5 	ldrdeq	r0, [r0], -r5
    3138:	e3070202 	tst	r7, #536870912	@ 0x20000000
    313c:	0a000000 	beq	3144 <shift+0x3144>
    3140:	00000229 	andeq	r0, r0, r9, lsr #4
    3144:	66162402 	ldrvs	r2, [r6], -r2, lsl #8
    3148:	0b000000 	bleq	3150 <shift+0x3150>
    314c:	00000050 	andeq	r0, r0, r0, asr r0
    3150:	00005c0c 	andeq	r5, r0, ip, lsl #24
    3154:	07040200 	streq	r0, [r4, -r0, lsl #4]
    3158:	00000186 	andeq	r0, r0, r6, lsl #3
    315c:	7c070802 	stcvc	8, cr0, [r7], {2}
    3160:	0d000001 	stceq	0, cr0, [r0, #-4]
    3164:	02dc0220 	sbcseq	r0, ip, #32, 4
    3168:	0000de09 	andeq	sp, r0, r9, lsl #28
    316c:	52440300 	subpl	r0, r4, #0, 6
    3170:	5c02dd00 	stcpl	13, cr13, [r2], {-0}
    3174:	00000000 	andeq	r0, r0, r0
    3178:	0000a704 	andeq	sl, r0, r4, lsl #14
    317c:	5c02de00 	stcpl	14, cr13, [r2], {-0}
    3180:	04000000 	streq	r0, [r0], #-0
    3184:	52535003 	subspl	r5, r3, #3
    3188:	6102df00 	tstvs	r2, r0, lsl #30
    318c:	08000000 	stmdaeq	r0, {}	@ <UNPREDICTABLE>
    3190:	00020e04 	andeq	r0, r2, r4, lsl #28
    3194:	5c02e000 	stcpl	0, cr14, [r2], {-0}
    3198:	0c000000 	stceq	0, cr0, [r0], {-0}
    319c:	00021304 	andeq	r1, r2, r4, lsl #6
    31a0:	5c02e100 	stcpl	1, cr14, [r2], {-0}
    31a4:	10000000 	andne	r0, r0, r0
    31a8:	524d4903 	subpl	r4, sp, #49152	@ 0xc000
    31ac:	5c02e200 	stcpl	2, cr14, [r2], {-0}
    31b0:	14000000 	strne	r0, [r0], #-0
    31b4:	52534903 	subspl	r4, r3, #49152	@ 0xc000
    31b8:	5c02e300 	stcpl	3, cr14, [r2], {-0}
    31bc:	18000000 	stmdane	r0, {}	@ <UNPREDICTABLE>
    31c0:	00024404 	andeq	r4, r2, r4, lsl #8
    31c4:	5c02e400 	stcpl	4, cr14, [r2], {-0}
    31c8:	1c000000 	stcne	0, cr0, [r0], {-0}
    31cc:	01490e00 	cmpeq	r9, r0, lsl #28
    31d0:	e5020000 	str	r0, [r2, #-0]
    31d4:	00740302 	rsbseq	r0, r4, r2, lsl #6
    31d8:	d1050000 	mrsle	r0, (UNDEF: 5)
    31dc:	0c000002 	stceq	0, cr0, [r0], {2}
    31e0:	00000114 	andeq	r0, r0, r4, lsl r1
    31e4:	00005001 	andeq	r5, r0, r1
    31e8:	00500100 	subseq	r0, r0, r0, lsl #2
    31ec:	50010000 	andpl	r0, r1, r0
    31f0:	01000000 	mrseq	r0, (UNDEF: 0)
    31f4:	00000050 	andeq	r0, r0, r0, asr r0
    31f8:	00005001 	andeq	r5, r0, r1
    31fc:	00500100 	subseq	r0, r0, r0, lsl #2
    3200:	05000000 	streq	r0, [r0, #-0]
    3204:	00000309 	andeq	r0, r0, r9, lsl #6
    3208:	00013d05 	andeq	r3, r1, r5, lsl #26
    320c:	00500100 	subseq	r0, r0, r0, lsl #2
    3210:	50010000 	andpl	r0, r1, r0
    3214:	01000000 	mrseq	r0, (UNDEF: 0)
    3218:	00000050 	andeq	r0, r0, r0, asr r0
    321c:	00005001 	andeq	r5, r0, r1
    3220:	00500100 	subseq	r0, r0, r0, lsl #2
    3224:	50010000 	andpl	r0, r1, r0
    3228:	00000000 	andeq	r0, r0, r0
    322c:	0012c906 	andseq	ip, r2, r6, lsl #18
    3230:	22101500 	andscs	r1, r0, #0, 10
    3234:	00348780 	eorseq	r8, r4, r0, lsl #15
    3238:	9c010000 	stcls	0, cr0, [r1], {-0}
    323c:	00151c07 	andseq	r1, r5, r7, lsl #24
    3240:	21e01000 	mvncs	r1, r0
    3244:	00308780 	eorseq	r8, r0, r0, lsl #15
    3248:	9c010000 	stcls	0, cr0, [r1], {-0}
    324c:	00152d07 	andseq	r2, r5, r7, lsl #26
    3250:	21b00b00 	lslscs	r0, r0, #22
    3254:	00308780 	eorseq	r8, r0, r0, lsl #15
    3258:	9c010000 	stcls	0, cr0, [r1], {-0}
    325c:	00152406 	andseq	r2, r5, r6, lsl #8
    3260:	21180300 	tstcs	r8, r0, lsl #6
    3264:	00988780 	addseq	r8, r8, r0, lsl #15
    3268:	9c010000 	stcls	0, cr0, [r1], {-0}
    326c:	00031700 	andeq	r1, r3, r0, lsl #14
    3270:	01000500 	tsteq	r0, r0, lsl #10
    3274:	000ccb04 	andeq	ip, ip, r4, lsl #22
    3278:	002b0d00 	eoreq	r0, fp, r0, lsl #26
    327c:	8a1d0000 	bhi	743284 <shift+0x743284>
    3280:	89000015 	stmdbhi	r0, {r0, r2, r4}
    3284:	44000000 	strmi	r0, [r0], #-0
    3288:	60878022 	addvs	r8, r7, r2, lsr #32
    328c:	5b000003 	blpl	32a0 <shift+0x32a0>
    3290:	0300000a 	tsteq	r0, #10
    3294:	00d70601 	sbcseq	r0, r7, r1, lsl #12
    3298:	02030000 	andeq	r0, r3, #0
    329c:	0001fa05 	andeq	pc, r1, r5, lsl #20
    32a0:	05040e00 	streq	r0, [r4, #-3584]	@ 0xfffff200
    32a4:	00746e69 	rsbseq	r6, r4, r9, ror #28
    32a8:	b5050803 	strlt	r0, [r5, #-2051]	@ 0xfffff7fd
    32ac:	07000001 	streq	r0, [r0, -r1]
    32b0:	00000193 	muleq	r0, r3, r1
    32b4:	004d1722 	subeq	r1, sp, r2, lsr #14
    32b8:	01030000 	mrseq	r0, (UNDEF: 3)
    32bc:	0000d508 	andeq	sp, r0, r8, lsl #10
    32c0:	07020300 	streq	r0, [r2, -r0, lsl #6]
    32c4:	000000e3 	andeq	r0, r0, r3, ror #1
    32c8:	00022907 	andeq	r2, r2, r7, lsl #18
    32cc:	70162400 	andsvc	r2, r6, r0, lsl #8
    32d0:	08000000 	stmdaeq	r0, {}	@ <UNPREDICTABLE>
    32d4:	0000005b 	andeq	r0, r0, fp, asr r0
    32d8:	0000660f 	andeq	r6, r0, pc, lsl #12
    32dc:	07040300 	streq	r0, [r4, -r0, lsl #6]
    32e0:	00000186 	andeq	r0, r0, r6, lsl #3
    32e4:	00007008 	andeq	r7, r0, r8
    32e8:	07080300 	streq	r0, [r8, -r0, lsl #6]
    32ec:	0000017c 	andeq	r0, r0, ip, ror r1
    32f0:	4902bc10 	stmdbmi	r2, {r4, sl, fp, ip, sp, pc}
    32f4:	01860904 	orreq	r0, r6, r4, lsl #18
    32f8:	6b010000 	blvs	43300 <shift+0x43300>
    32fc:	4a000015 	bmi	3358 <shift+0x3358>
    3300:	006b1104 	rsbeq	r1, fp, r4, lsl #2
    3304:	01000000 	mrseq	r0, (UNDEF: 0)
    3308:	000004ff 	strdeq	r0, [r0], -pc	@ <UNPREDICTABLE>
    330c:	8610044b 	ldrhi	r0, [r0], -fp, asr #8
    3310:	04000001 	streq	r0, [r0], #-1
    3314:	0015bc01 	andseq	fp, r5, r1, lsl #24
    3318:	11044c00 	tstne	r4, r0, lsl #24
    331c:	00000066 	andeq	r0, r0, r6, rrx
    3320:	03b80140 			@ <UNDEFINED> instruction: 0x03b80140
    3324:	044d0000 	strbeq	r0, [sp], #-0
    3328:	00018610 	andeq	r8, r1, r0, lsl r6
    332c:	76014400 	strvc	r4, [r1], -r0, lsl #8
    3330:	4e000015 	mcrmi	0, 0, r0, cr0, cr5, {0}
    3334:	00661104 	rsbeq	r1, r6, r4, lsl #2
    3338:	01800000 	orreq	r0, r0, r0
    333c:	0000157b 	andeq	r1, r0, fp, ror r5
    3340:	6611044f 	ldrvs	r0, [r1], -pc, asr #8
    3344:	84000000 	strhi	r0, [r0], #-0
    3348:	00158001 	andseq	r8, r5, r1
    334c:	11045000 	mrsne	r5, (UNDEF: 4)
    3350:	00000066 	andeq	r0, r0, r6, rrx
    3354:	15850188 	strne	r0, [r5, #392]	@ 0x188
    3358:	04510000 	ldrbeq	r0, [r1], #-0
    335c:	00006611 	andeq	r6, r0, r1, lsl r6
    3360:	de018c00 	cdple	12, 0, cr8, cr1, cr0, {0}
    3364:	52000015 	andpl	r0, r0, #21
    3368:	00661104 	rsbeq	r1, r6, r4, lsl #2
    336c:	01900000 	orrseq	r0, r0, r0
    3370:	000015e3 	andeq	r1, r0, r3, ror #11
    3374:	66110453 			@ <UNDEFINED> instruction: 0x66110453
    3378:	94000000 	strls	r0, [r0], #-0
    337c:	00160001 	andseq	r0, r6, r1
    3380:	11045400 	tstne	r4, r0, lsl #8
    3384:	00000066 	andeq	r0, r0, r6, rrx
    3388:	15c10198 	strbne	r0, [r1, #408]	@ 0x198
    338c:	04550000 	ldrbeq	r0, [r5], #-0
    3390:	00006611 	andeq	r6, r0, r1, lsl r6
    3394:	d9019c00 	stmdble	r1, {sl, fp, ip, pc}
    3398:	56000015 			@ <UNDEFINED> instruction: 0x56000015
    339c:	00661104 	rsbeq	r1, r6, r4, lsl #2
    33a0:	01a00000 	moveq	r0, r0
    33a4:	000015a5 	andeq	r1, r0, r5, lsr #11
    33a8:	66110457 			@ <UNDEFINED> instruction: 0x66110457
    33ac:	a4000000 	strge	r0, [r0], #-0
    33b0:	0015d401 	andseq	sp, r5, r1, lsl #8
    33b4:	11045800 	tstne	r4, r0, lsl #16
    33b8:	00000066 	andeq	r0, r0, r6, rrx
    33bc:	156101a8 	strbne	r0, [r1, #-424]!	@ 0xfffffe58
    33c0:	04590000 	ldrbeq	r0, [r9], #-0
    33c4:	00006b11 	andeq	r6, r0, r1, lsl fp
    33c8:	f401ac00 			@ <UNDEFINED> instruction: 0xf401ac00
    33cc:	5a000015 	bpl	3428 <shift+0x3428>
    33d0:	00661104 	rsbeq	r1, r6, r4, lsl #2
    33d4:	11b00000 	movsne	r0, r0
    33d8:	00535455 	subseq	r5, r3, r5, asr r4
    33dc:	11045b02 	tstne	r4, r2, lsl #22
    33e0:	00000066 	andeq	r0, r0, r6, rrx
    33e4:	156601b4 	strbne	r0, [r6, #-436]!	@ 0xfffffe4c
    33e8:	045c0000 	ldrbeq	r0, [ip], #-0
    33ec:	00006611 	andeq	r6, r0, r1, lsl r6
    33f0:	1200b800 	andne	fp, r0, #0, 16
    33f4:	00000042 	andeq	r0, r0, r2, asr #32
    33f8:	00000196 	muleq	r0, r6, r1
    33fc:	00007013 	andeq	r7, r0, r3, lsl r0
    3400:	14003b00 	strne	r3, [r0], #-2816	@ 0xfffff500
    3404:	00001548 	andeq	r1, r0, r8, asr #10
    3408:	03045d02 	tsteq	r4, #2, 26	@ 0x80
    340c:	00000083 	andeq	r0, r0, r3, lsl #1
    3410:	de080103 	cdple	1, 0, cr0, cr8, cr3, {0}
    3414:	05000000 	streq	r0, [r0, #-0]
    3418:	000002d1 	ldrdeq	r0, [r0], -r1
    341c:	01d40c03 	bicseq	r0, r4, r3, lsl #24
    3420:	5b020000 	blpl	83428 <shift+0x83428>
    3424:	02000000 	andeq	r0, r0, #0
    3428:	0000005b 	andeq	r0, r0, fp, asr r0
    342c:	00005b02 	andeq	r5, r0, r2, lsl #22
    3430:	005b0200 	subseq	r0, fp, r0, lsl #4
    3434:	5b020000 	blpl	8343c <shift+0x8343c>
    3438:	02000000 	andeq	r0, r0, #0
    343c:	0000005b 	andeq	r0, r0, fp, asr r0
    3440:	03090500 	tsteq	r9, #0, 10
    3444:	05030000 	streq	r0, [r3, #-0]
    3448:	000001fe 	strdeq	r0, [r0], -lr
    344c:	00005b02 	andeq	r5, r0, r2, lsl #22
    3450:	005b0200 	subseq	r0, fp, r0, lsl #4
    3454:	5b020000 	blpl	8345c <shift+0x8345c>
    3458:	02000000 	andeq	r0, r0, #0
    345c:	0000005b 	andeq	r0, r0, fp, asr r0
    3460:	00005b02 	andeq	r5, r0, r2, lsl #22
    3464:	005b0200 	subseq	r0, fp, r0, lsl #4
    3468:	09000000 	stmdbeq	r0, {}	@ <UNPREDICTABLE>
    346c:	00000348 	andeq	r0, r0, r8, asr #6
    3470:	08c40508 	stmiaeq	r4, {r3, r8, sl}^
    3474:	07040000 	streq	r0, [r4, -r0]
    3478:	00000215 	andeq	r0, r0, r5, lsl r2
    347c:	00007702 	andeq	r7, r0, r2, lsl #14
    3480:	1a090000 	bne	243488 <shift+0x243488>
    3484:	07000003 	streq	r0, [r0, -r3]
    3488:	00154215 	andseq	r4, r5, r5, lsl r2
    348c:	06400100 	strbeq	r0, [r0], -r0, lsl #2
    3490:	8780258c 	strhi	r2, [r0, ip, lsl #11]
    3494:	00000018 	andeq	r0, r0, r8, lsl r0
    3498:	fa169c01 	blx	5aa4a4 <shift+0x5aa4a4>
    349c:	01000015 	tsteq	r0, r5, lsl r0
    34a0:	0042093b 	subeq	r0, r2, fp, lsr r9
    34a4:	254c0000 	strbcs	r0, [ip, #-0]
    34a8:	00408780 	subeq	r8, r0, r0, lsl #15
    34ac:	9c010000 	stcls	0, cr0, [r1], {-0}
    34b0:	00126317 	andseq	r6, r2, r7, lsl r3
    34b4:	06350100 	ldrteq	r0, [r5], -r0, lsl #2
    34b8:	878024fc 			@ <UNDEFINED> instruction: 0x878024fc
    34bc:	00000050 	andeq	r0, r0, r0, asr r0
    34c0:	02669c01 	rsbeq	r9, r6, #256	@ 0x100
    34c4:	730a0000 	tstvc	sl, #0
    34c8:	66153500 	ldrvs	r3, [r5], -r0, lsl #10
    34cc:	02000002 	andeq	r0, r0, #2
    34d0:	0b007491 	bleq	2071c <shift+0x2071c>
    34d4:	00000042 	andeq	r0, r0, r2, asr #32
    34d8:	00157004 	andseq	r7, r5, r4
    34dc:	24b03100 	ldrtcs	r3, [r0], #256	@ 0x100
    34e0:	004c8780 	subeq	r8, ip, r0, lsl #15
    34e4:	9c010000 	stcls	0, cr0, [r1], {-0}
    34e8:	0000028c 	andeq	r0, r0, ip, lsl #5
    34ec:	3100630a 	tstcc	r0, sl, lsl #6
    34f0:	00004214 	andeq	r4, r0, r4, lsl r2
    34f4:	77910200 	ldrvc	r0, [r1, r0, lsl #4]
    34f8:	15e80400 	strbne	r0, [r8, #1024]!	@ 0x400
    34fc:	7c2d0000 	stcvc	0, cr0, [sp], #-0
    3500:	34878024 	strcc	r8, [r7], #36	@ 0x24
    3504:	01000000 	mrseq	r0, (UNDEF: 0)
    3508:	0002af9c 	muleq	r2, ip, pc	@ <UNPREDICTABLE>
    350c:	15aa0600 	strne	r0, [sl, #1536]!	@ 0x600
    3510:	1d2d0000 	stcne	0, cr0, [sp, #-0]
    3514:	000002af 	andeq	r0, r0, pc, lsr #5
    3518:	00749102 	rsbseq	r9, r4, r2, lsl #2
    351c:	0001960b 	andeq	r9, r1, fp, lsl #12
    3520:	15af0400 	strne	r0, [pc, #1024]!	@ 3928 <shift+0x3928>
    3524:	48290000 	stmdami	r9!, {}	@ <UNPREDICTABLE>
    3528:	34878024 	strcc	r8, [r7], #36	@ 0x24
    352c:	01000000 	mrseq	r0, (UNDEF: 0)
    3530:	0002d79c 	muleq	r2, ip, r7
    3534:	15aa0600 	strne	r0, [sl, #1536]!	@ 0x600
    3538:	1e290000 	cdpne	0, 2, cr0, cr9, cr0, {0}
    353c:	000002af 	andeq	r0, r0, pc, lsr #5
    3540:	00749102 	rsbseq	r9, r4, r2, lsl #2
    3544:	0015c60c 	andseq	ip, r5, ip, lsl #12
    3548:	23882200 	orrcs	r2, r8, #0, 4
    354c:	00c08780 	sbceq	r8, r0, r0, lsl #15
    3550:	9c010000 	stcls	0, cr0, [r1], {-0}
    3554:	00155204 	andseq	r5, r5, r4, lsl #4
    3558:	23381d00 	teqcs	r8, #0, 26
    355c:	00508780 	subseq	r8, r0, r0, lsl #15
    3560:	9c010000 	stcls	0, cr0, [r1], {-0}
    3564:	0000030a 	andeq	r0, r0, sl, lsl #6
    3568:	0015aa06 	andseq	sl, r5, r6, lsl #20
    356c:	af201d00 	svcge	0x00201d00
    3570:	02000002 	andeq	r0, r0, #2
    3574:	0c007491 	stceq	4, cr7, [r0], {145}	@ 0x91
    3578:	0000159a 	muleq	r0, sl, r5
    357c:	80224404 	eorhi	r4, r2, r4, lsl #8
    3580:	0000f487 	andeq	pc, r0, r7, lsl #9
    3584:	009c0100 	addseq	r0, ip, r0, lsl #2
    3588:	000001c0 	andeq	r0, r0, r0, asr #3
    358c:	04010005 	streq	r0, [r1], #-5
    3590:	00000e47 	andeq	r0, r0, r7, asr #28
    3594:	00002b08 	andeq	r2, r0, r8, lsl #22
    3598:	163c1d00 	ldrtne	r1, [ip], -r0, lsl #26
    359c:	00890000 	addeq	r0, r9, r0
    35a0:	25a40000 	strcs	r0, [r4, #0]!
    35a4:	02908780 	addseq	r8, r0, #128, 14	@ 0x2000000
    35a8:	0bcf0000 	bleq	ff3c35b0 <__bss_end+0x77bc056c>
    35ac:	01010000 	mrseq	r0, (UNDEF: 1)
    35b0:	0000d706 	andeq	sp, r0, r6, lsl #14
    35b4:	05020100 	streq	r0, [r2, #-256]	@ 0xffffff00
    35b8:	000001fa 	strdeq	r0, [r0], -sl
    35bc:	00022a03 	andeq	r2, r2, r3, lsl #20
    35c0:	141f0200 	ldrne	r0, [pc], #-512	@ 35c8 <shift+0x35c8>
    35c4:	00000040 	andeq	r0, r0, r0, asr #32
    35c8:	69050409 	stmdbvs	r5, {r0, r3, sl}
    35cc:	0100746e 	tsteq	r0, lr, ror #8
    35d0:	01b50508 			@ <UNDEFINED> instruction: 0x01b50508
    35d4:	93030000 	tstls	r3, #0
    35d8:	02000001 	andeq	r0, r0, #1
    35dc:	005a1722 	subseq	r1, sl, r2, lsr #14
    35e0:	01010000 	mrseq	r0, (UNDEF: 1)
    35e4:	0000d508 	andeq	sp, r0, r8, lsl #10
    35e8:	07020100 	streq	r0, [r2, -r0, lsl #2]
    35ec:	000000e3 	andeq	r0, r0, r3, ror #1
    35f0:	00022903 	andeq	r2, r2, r3, lsl #18
    35f4:	16240200 	strtne	r0, [r4], -r0, lsl #4
    35f8:	00000074 	andeq	r0, r0, r4, ror r0
    35fc:	86070401 	strhi	r0, [r7], -r1, lsl #8
    3600:	01000001 	tsteq	r0, r1
    3604:	017c0708 	cmneq	ip, r8, lsl #14
    3608:	2f030000 	svccs	0x00030000
    360c:	03000016 	tsteq	r0, #22
    3610:	008e0f07 	addeq	r0, lr, r7, lsl #30
    3614:	93050000 	tstls	r5, #0
    3618:	01000000 	mrseq	r0, (UNDEF: 0)
    361c:	00de0801 	sbcseq	r0, lr, r1, lsl #16
    3620:	930a0000 	tstls	sl, #0
    3624:	0b000000 	bleq	362c <shift+0x362c>
    3628:	0000004e 	andeq	r0, r0, lr, asr #32
    362c:	000000af 	andeq	r0, r0, pc, lsr #1
    3630:	0000740c 	andeq	r7, r0, ip, lsl #8
    3634:	0d006300 	stceq	3, cr6, [r0, #-0]
    3638:	0000161a 	andeq	r1, r0, sl, lsl r6
    363c:	9f090201 	svcls	0x00090201
    3640:	05000000 	streq	r0, [r0, #-0]
    3644:	802fe003 	eorhi	lr, pc, r3
    3648:	15700e87 	ldrbne	r0, [r0, #-3719]!	@ 0xfffff179
    364c:	10040000 	andne	r0, r4, r0
    3650:	0000d306 	andeq	sp, r0, r6, lsl #6
    3654:	004e0f00 	subeq	r0, lr, r0, lsl #30
    3658:	10000000 	andne	r0, r0, r0
    365c:	00001653 	andeq	r1, r0, r3, asr r6
    3660:	ec061c01 	stc	12, cr1, [r6], {1}
    3664:	48878026 	stmmi	r7, {r1, r2, r5, pc}
    3668:	01000001 	tsteq	r0, r1
    366c:	00014a9c 	muleq	r1, ip, sl
    3670:	00730600 	rsbseq	r0, r3, r0, lsl #12
    3674:	014a1a1c 	cmpeq	sl, ip, lsl sl
    3678:	91020000 	mrsls	r0, (UNDEF: 2)
    367c:	4e021170 	mcrmi	1, 0, r1, cr2, cr0, {3}
    3680:	1d000016 	stcne	0, cr0, [r0, #-88]	@ 0xffffffa8
    3684:	0000820d 	andeq	r8, r0, sp, lsl #4
    3688:	58910200 	ldmpl	r1, {r9}
    368c:	20007004 	andcs	r7, r0, r4
    3690:	00008e0b 	andeq	r8, r0, fp, lsl #28
    3694:	5c910200 	ldcpl	2, cr0, [r1], {0}
    3698:	00000c12 	andeq	r0, r0, r2, lsl ip
    369c:	16050200 	strne	r0, [r5], -r0, lsl #4
    36a0:	15230000 	strne	r0, [r3, #-0]!
    36a4:	0000004e 	andeq	r0, r0, lr, asr #32
    36a8:	07579102 	ldrbeq	r9, [r7, -r2, lsl #2]
    36ac:	8780273c 			@ <UNDEFINED> instruction: 0x8780273c
    36b0:	00000068 	andeq	r0, r0, r8, rrx
    36b4:	67726104 	ldrbvs	r6, [r2, -r4, lsl #2]!
    36b8:	341d2600 	ldrcc	r2, [sp], #-1536	@ 0xfffffa00
    36bc:	02000000 	andeq	r0, r0, #0
    36c0:	62046491 	andvs	r6, r4, #-1862270976	@ 0x91000000
    36c4:	1e280070 	mcrne	0, 1, r0, cr8, cr0, {3}
    36c8:	0000014f 	andeq	r0, r0, pc, asr #2
    36cc:	00609102 	rsbeq	r9, r0, r2, lsl #2
    36d0:	9a050000 	bls	1436d8 <shift+0x1436d8>
    36d4:	05000000 	streq	r0, [r0, #-0]
    36d8:	0000004e 	andeq	r0, r0, lr, asr #32
    36dc:	00160f13 	andseq	r0, r6, r3, lsl pc
    36e0:	06040100 	streq	r0, [r4], -r0, lsl #2
    36e4:	878025a4 	strhi	r2, [r0, r4, lsr #11]
    36e8:	00000148 	andeq	r0, r0, r8, asr #2
    36ec:	69069c01 	stmdbvs	r6, {r0, sl, fp, ip, pc}
    36f0:	34190400 	ldrcc	r0, [r9], #-1024	@ 0xfffffc00
    36f4:	02000000 	andeq	r0, r0, #0
    36f8:	28025c91 	stmdacs	r2, {r0, r4, r7, sl, fp, ip, lr}
    36fc:	05000016 	streq	r0, [r0, #-22]	@ 0xffffffea
    3700:	00014f0e 	andeq	r4, r1, lr, lsl #30
    3704:	68910200 	ldmvs	r1, {r9}
    3708:	0015aa02 	andseq	sl, r5, r2, lsl #20
    370c:	680e0f00 	stmdavs	lr, {r8, r9, sl, fp}
    3710:	02000000 	andeq	r0, r0, #0
    3714:	37026c91 			@ <UNDEFINED> instruction: 0x37026c91
    3718:	10000016 	andne	r0, r0, r6, lsl r0
    371c:	00004e0d 	andeq	r4, r0, sp, lsl #28
    3720:	67910200 	ldrvs	r0, [r1, r0, lsl #4]
    3724:	80263407 	eorhi	r3, r6, r7, lsl #8
    3728:	00008c87 	andeq	r8, r0, r7, lsl #25
    372c:	160a0200 	strne	r0, [sl], -r0, lsl #4
    3730:	12120000 	andsne	r0, r2, #0
    3734:	00000068 	andeq	r0, r0, r8, rrx
    3738:	04709102 	ldrbteq	r9, [r0], #-258	@ 0xfffffefe
    373c:	00776f6c 	rsbseq	r6, r7, ip, ror #30
    3740:	00681213 	rsbeq	r1, r8, r3, lsl r2
    3744:	91020000 	mrsls	r0, (UNDEF: 2)
    3748:	00000074 	andeq	r0, r0, r4, ror r0
    374c:	0000003a 	andeq	r0, r0, sl, lsr r0
    3750:	04010005 	streq	r0, [r1], #-5
    3754:	00000f51 	andeq	r0, r0, r1, asr pc
    3758:	000d0d01 	andeq	r0, sp, r1, lsl #26
    375c:	80283400 	eorhi	r3, r8, r0, lsl #8
    3760:	5b048c87 	blpl	126984 <shift+0x126984>
    3764:	a0000016 	andge	r0, r0, r6, lsl r0
    3768:	e8000016 	stmda	r0, {r1, r2, r4}
    376c:	01000016 	tsteq	r0, r6, lsl r0
    3770:	16f40280 	ldrbtne	r0, [r4], r0, lsl #5
    3774:	343c0000 	ldrtcc	r0, [ip], #-0
    3778:	ec878028 	stc	0, cr8, [r7], {40}	@ 0x28
    377c:	16fe0203 	ldrbtne	r0, [lr], r3, lsl #4
    3780:	203c0000 	eorscs	r0, ip, r0
    3784:	2087802a 	addcs	r8, r7, sl, lsr #32
    3788:	00380003 	eorseq	r0, r8, r3
    378c:	00050000 	andeq	r0, r5, r0
    3790:	0f790401 	svceq	0x00790401
    3794:	74010000 	strvc	r0, [r1], #-0
    3798:	4000000d 	andmi	r0, r0, sp
    379c:	1087802a 	addne	r8, r7, sl, lsr #32
    37a0:	0000165b 	andeq	r1, r0, fp, asr r6
    37a4:	000016a0 	andeq	r1, r0, r0, lsr #13
    37a8:	000016e8 	andeq	r1, r0, r8, ror #13
    37ac:	0f028001 	svceq	0x00028001
    37b0:	3a000017 	bcc	3814 <shift+0x3814>
    37b4:	87802a40 	strhi	r2, [r0, r0, asr #20]
    37b8:	171d0210 			@ <UNDEFINED> instruction: 0x171d0210
    37bc:	403a0000 	eorsmi	r0, sl, r0
    37c0:	1087802a 	addne	r8, r7, sl, lsr #32
    37c4:	Address 0x37c4 is out of bounds.


Disassembly of section .debug_abbrev:

00000000 <.debug_abbrev>:
   0:	03002801 	tsteq	r0, #65536	@ 0x10000
   4:	000b1c0e 	andeq	r1, fp, lr, lsl #24
   8:	00240200 	eoreq	r0, r4, r0, lsl #4
   c:	0b3e0b0b 	bleq	f82c40 <shift+0xf82c40>
  10:	00000e03 	andeq	r0, r0, r3, lsl #28
  14:	03000d03 	tsteq	r0, #3, 26	@ 0xc0
  18:	02213a0e 	eoreq	r3, r1, #57344	@ 0xe000
  1c:	0b39053b 	bleq	e41510 <shift+0xe41510>
  20:	0b381349 	bleq	e04d4c <shift+0xe04d4c>
  24:	05040000 	streq	r0, [r4, #-0]
  28:	3a0e0300 	bcc	380c30 <shift+0x380c30>
  2c:	0b3b0121 	bleq	ec04b8 <shift+0xec04b8>
  30:	13490b39 	cmpne	r9, #58368	@ 0xe400
  34:	00001802 	andeq	r1, r0, r2, lsl #16
  38:	03000505 	tsteq	r0, #20971520	@ 0x1400000
  3c:	01213a08 			@ <UNDEFINED> instruction: 0x01213a08
  40:	0b390b3b 	bleq	e42d34 <shift+0xe42d34>
  44:	18021349 	stmdane	r2, {r0, r3, r6, r8, r9, ip}
  48:	0d060000 	stceq	0, cr0, [r6, #-0]
  4c:	3a080300 	bcc	200c54 <shift+0x200c54>
  50:	053b0221 	ldreq	r0, [fp, #-545]!	@ 0xfffffddf
  54:	49112139 	ldmdbmi	r1, {r0, r3, r4, r5, r8, sp}
  58:	000b3813 	andeq	r3, fp, r3, lsl r8
  5c:	00160700 	andseq	r0, r6, r0, lsl #14
  60:	213a0e03 	teqcs	sl, r3, lsl #28
  64:	39053b02 	stmdbcc	r5, {r1, r8, r9, fp, ip, sp}
  68:	13490321 	cmpne	r9, #-2080374784	@ 0x84000000
  6c:	2e080000 	cdpcs	0, 0, cr0, cr8, cr0, {0}
  70:	03193f01 	tsteq	r9, #1, 30
  74:	01213a0e 			@ <UNDEFINED> instruction: 0x01213a0e
  78:	21390b3b 	teqcs	r9, fp, lsr fp
  7c:	11192706 	tstne	r9, r6, lsl #14
  80:	40061201 	andmi	r1, r6, r1, lsl #4
  84:	01197a18 	tsteq	r9, r8, lsl sl
  88:	09000013 	stmdbeq	r0, {r0, r1, r4}
  8c:	0e030016 	mcreq	0, 0, r0, cr3, cr6, {0}
  90:	3b02213a 	blcc	88580 <shift+0x88580>
  94:	490b390b 	stmdbmi	fp, {r0, r1, r3, r8, fp, ip, sp}
  98:	0a000013 	beq	ec <shift+0xec>
  9c:	0e030104 	cdpeq	1, 0, cr0, cr3, cr4, {0}
  a0:	0b07213e 	bleq	1c85a0 <shift+0x1c85a0>
  a4:	13490421 	cmpne	r9, #553648128	@ 0x21000000
  a8:	3b02213a 	blcc	88598 <shift+0x88598>
  ac:	0e213905 			@ <UNDEFINED> instruction: 0x0e213905
  b0:	00001301 	andeq	r1, r0, r1, lsl #6
  b4:	2501110b 	strcs	r1, [r1, #-267]	@ 0xfffffef5
  b8:	030b130e 	tsteq	fp, #939524096	@ 0x38000000
  bc:	110e1b0e 	tstne	lr, lr, lsl #22
  c0:	10061201 	andne	r1, r6, r1, lsl #4
  c4:	0c000017 	stceq	0, cr0, [r0], {23}
  c8:	0b0b0024 	bleq	2c0160 <shift+0x2c0160>
  cc:	08030b3e 	stmdaeq	r3, {r1, r2, r3, r4, r5, r8, r9, fp}
  d0:	350d0000 	strcc	r0, [sp, #-0]
  d4:	00134900 	andseq	r4, r3, r0, lsl #18
  d8:	00260e00 	eoreq	r0, r6, r0, lsl #28
  dc:	00001349 	andeq	r1, r0, r9, asr #6
  e0:	0b01130f 	bleq	44d24 <shift+0x44d24>
  e4:	3b0b3a0b 	blcc	2ce918 <shift+0x2ce918>
  e8:	010b3905 	tsteq	fp, r5, lsl #18
  ec:	10000013 	andne	r0, r0, r3, lsl r0
  f0:	0e030113 	mcreq	1, 0, r0, cr3, cr3, {0}
  f4:	0b3a0b0b 	bleq	e82d28 <shift+0xe82d28>
  f8:	0b39053b 	bleq	e415ec <shift+0xe415ec>
  fc:	00001301 	andeq	r1, r0, r1, lsl #6
 100:	0b000f11 	bleq	3d4c <shift+0x3d4c>
 104:	0013490b 	andseq	r4, r3, fp, lsl #18
 108:	012e1200 			@ <UNDEFINED> instruction: 0x012e1200
 10c:	0e03193f 			@ <UNDEFINED> instruction: 0x0e03193f
 110:	0b3b0b3a 	bleq	ec2e00 <shift+0xec2e00>
 114:	19270b39 	stmdbne	r7!, {r0, r3, r4, r5, r8, r9, fp}
 118:	06120111 			@ <UNDEFINED> instruction: 0x06120111
 11c:	197c1840 	ldmdbne	ip!, {r6, fp, ip}^
 120:	34130000 	ldrcc	r0, [r3], #-0
 124:	3a0e0300 	bcc	380d2c <shift+0x380d2c>
 128:	390b3b0b 	stmdbcc	fp, {r0, r1, r3, r8, r9, fp, ip, sp}
 12c:	0213490b 	andseq	r4, r3, #180224	@ 0x2c000
 130:	00000018 	andeq	r0, r0, r8, lsl r0
 134:	03000501 	tsteq	r0, #4194304	@ 0x400000
 138:	01213a0e 			@ <UNDEFINED> instruction: 0x01213a0e
 13c:	0b390b3b 	bleq	e42e30 <shift+0xe42e30>
 140:	18021349 	stmdane	r2, {r0, r3, r6, r8, r9, ip}
 144:	24020000 	strcs	r0, [r2], #-0
 148:	3e0b0b00 	vmlacc.f64	d0, d11, d0
 14c:	000e030b 	andeq	r0, lr, fp, lsl #6
 150:	01110300 	tsteq	r1, r0, lsl #6
 154:	0b130e25 	bleq	4c39f0 <shift+0x4c39f0>
 158:	0e1b0e03 	cdpeq	14, 1, cr0, cr11, cr3, {0}
 15c:	06120111 			@ <UNDEFINED> instruction: 0x06120111
 160:	00001710 	andeq	r1, r0, r0, lsl r7
 164:	0b002404 	bleq	917c <shift+0x917c>
 168:	030b3e0b 	tsteq	fp, #11, 28	@ 0xb0
 16c:	05000008 	streq	r0, [r0, #-8]
 170:	0e030016 	mcreq	0, 0, r0, cr3, cr6, {0}
 174:	0b3b0b3a 	bleq	ec2e64 <shift+0xec2e64>
 178:	13490b39 	cmpne	r9, #58368	@ 0xe400
 17c:	2e060000 	cdpcs	0, 0, cr0, cr6, cr0, {0}
 180:	03193f01 	tsteq	r9, #1, 30
 184:	3b0b3a0e 	blcc	2ce9c4 <shift+0x2ce9c4>
 188:	270b390b 	strcs	r3, [fp, -fp, lsl #18]
 18c:	12011119 	andne	r1, r1, #1073741830	@ 0x40000006
 190:	7a184006 	bvc	6101b0 <shift+0x6101b0>
 194:	00130119 	andseq	r0, r3, r9, lsl r1
 198:	012e0700 			@ <UNDEFINED> instruction: 0x012e0700
 19c:	0e03193f 			@ <UNDEFINED> instruction: 0x0e03193f
 1a0:	0b3b0b3a 	bleq	ec2e90 <shift+0xec2e90>
 1a4:	19270b39 	stmdbne	r7!, {r0, r3, r4, r5, r8, r9, fp}
 1a8:	06120111 			@ <UNDEFINED> instruction: 0x06120111
 1ac:	197a1840 	ldmdbne	sl!, {r6, fp, ip}^
 1b0:	01000000 	mrseq	r0, (UNDEF: 0)
 1b4:	13490005 	cmpne	r9, #5
 1b8:	24020000 	strcs	r0, [r2], #-0
 1bc:	3e0b0b00 	vmlacc.f64	d0, d11, d0
 1c0:	000e030b 	andeq	r0, lr, fp, lsl #6
 1c4:	000d0300 	andeq	r0, sp, r0, lsl #6
 1c8:	213a0803 	teqcs	sl, r3, lsl #16
 1cc:	39053b02 	stmdbcc	r5, {r1, r8, r9, fp, ip, sp}
 1d0:	13491121 	cmpne	r9, #1073741832	@ 0x40000008
 1d4:	00000b38 	andeq	r0, r0, r8, lsr fp
 1d8:	03000d04 	tsteq	r0, #4, 26	@ 0x100
 1dc:	02213a0e 	eoreq	r3, r1, #57344	@ 0xe000
 1e0:	2139053b 	teqcs	r9, fp, lsr r5
 1e4:	38134911 	ldmdacc	r3, {r0, r4, r8, fp, lr}
 1e8:	0500000b 	streq	r0, [r0, #-11]
 1ec:	193f012e 	ldmdbne	pc!, {r1, r2, r3, r5, r8}	@ <UNPREDICTABLE>
 1f0:	213a0e03 	teqcs	sl, r3, lsl #28
 1f4:	390b3b03 	stmdbcc	fp, {r0, r1, r8, r9, fp, ip, sp}
 1f8:	19270621 	stmdbne	r7!, {r0, r5, r9, sl}
 1fc:	1301193c 	tstne	r1, #60, 18	@ 0xf0000
 200:	2e060000 	cdpcs	0, 0, cr0, cr6, cr0, {0}
 204:	03193f00 	tsteq	r9, #0, 30
 208:	01213a0e 			@ <UNDEFINED> instruction: 0x01213a0e
 20c:	21390b3b 	teqcs	r9, fp, lsr fp
 210:	11192706 	tstne	r9, r6, lsl #14
 214:	40061201 	andmi	r1, r6, r1, lsl #4
 218:	00197c18 	andseq	r7, r9, r8, lsl ip
 21c:	002e0700 	eoreq	r0, lr, r0, lsl #14
 220:	0e03193f 			@ <UNDEFINED> instruction: 0x0e03193f
 224:	3b01213a 	blcc	48714 <shift+0x48714>
 228:	0621390b 	strteq	r3, [r1], -fp, lsl #18
 22c:	01111927 	tsteq	r1, r7, lsr #18
 230:	18400612 	stmdane	r0, {r1, r4, r9, sl}^
 234:	0000197a 	andeq	r1, r0, sl, ror r9
 238:	25011108 	strcs	r1, [r1, #-264]	@ 0xfffffef8
 23c:	030b130e 	tsteq	fp, #939524096	@ 0x38000000
 240:	110e1b0e 	tstne	lr, lr, lsl #22
 244:	10061201 	andne	r1, r6, r1, lsl #4
 248:	09000017 	stmdbeq	r0, {r0, r1, r2, r4}
 24c:	0b0b0024 	bleq	2c02e4 <shift+0x2c02e4>
 250:	08030b3e 	stmdaeq	r3, {r1, r2, r3, r4, r5, r8, r9, fp}
 254:	160a0000 	strne	r0, [sl], -r0
 258:	3a0e0300 	bcc	380e60 <shift+0x380e60>
 25c:	390b3b0b 	stmdbcc	fp, {r0, r1, r3, r8, r9, fp, ip, sp}
 260:	0013490b 	andseq	r4, r3, fp, lsl #18
 264:	00350b00 	eorseq	r0, r5, r0, lsl #22
 268:	00001349 	andeq	r1, r0, r9, asr #6
 26c:	4900260c 	stmdbmi	r0, {r2, r3, r9, sl, sp}
 270:	0d000013 	stceq	0, cr0, [r0, #-76]	@ 0xffffffb4
 274:	0b0b0113 	bleq	2c06c8 <shift+0x2c06c8>
 278:	053b0b3a 	ldreq	r0, [fp, #-2874]!	@ 0xfffff4c6
 27c:	13010b39 	tstne	r1, #58368	@ 0xe400
 280:	160e0000 	strne	r0, [lr], -r0
 284:	3a0e0300 	bcc	380e8c <shift+0x380e8c>
 288:	39053b0b 	stmdbcc	r5, {r0, r1, r3, r8, r9, fp, ip, sp}
 28c:	0013490b 	andseq	r4, r3, fp, lsl #18
 290:	0d010000 	stceq	0, cr0, [r1, #-0]
 294:	3a0e0300 	bcc	380e9c <shift+0x380e9c>
 298:	0b3b0221 	bleq	ec0b24 <shift+0xec0b24>
 29c:	13490b39 	cmpne	r9, #58368	@ 0xe400
 2a0:	00000b38 	andeq	r0, r0, r8, lsr fp
 2a4:	03000d02 	tsteq	r0, #2, 26	@ 0x80
 2a8:	02213a0e 	eoreq	r3, r1, #57344	@ 0xe000
 2ac:	0b390b3b 	bleq	e42fa0 <shift+0xe42fa0>
 2b0:	05381349 	ldreq	r1, [r8, #-841]!	@ 0xfffffcb7
 2b4:	24030000 	strcs	r0, [r3], #-0
 2b8:	3e0b0b00 	vmlacc.f64	d0, d11, d0
 2bc:	000e030b 	andeq	r0, lr, fp, lsl #6
 2c0:	01010400 	tsteq	r1, r0, lsl #8
 2c4:	13011349 	tstne	r1, #603979777	@ 0x24000001
 2c8:	21050000 	mrscs	r0, (UNDEF: 5)
 2cc:	2f134900 	svccs	0x00134900
 2d0:	0600000b 	streq	r0, [r0], -fp
 2d4:	193f012e 	ldmdbne	pc!, {r1, r2, r3, r5, r8}	@ <UNPREDICTABLE>
 2d8:	213a0e03 	teqcs	sl, r3, lsl #28
 2dc:	390b3b01 	stmdbcc	fp, {r0, r8, r9, fp, ip, sp}
 2e0:	01110621 	tsteq	r1, r1, lsr #12
 2e4:	18400612 	stmdane	r0, {r1, r4, r9, sl}^
 2e8:	1301197a 	tstne	r1, #1998848	@ 0x1e8000
 2ec:	34070000 	strcc	r0, [r7], #-0
 2f0:	3a080300 	bcc	200ef8 <shift+0x200ef8>
 2f4:	0b3b0121 	bleq	ec0780 <shift+0xec0780>
 2f8:	13490b39 	cmpne	r9, #58368	@ 0xe400
 2fc:	00001802 	andeq	r1, r0, r2, lsl #16
 300:	03001608 	tsteq	r0, #8, 12	@ 0x800000
 304:	02213a0e 	eoreq	r3, r1, #57344	@ 0xe000
 308:	0b390b3b 	bleq	e42ffc <shift+0xe42ffc>
 30c:	00001349 	andeq	r1, r0, r9, asr #6
 310:	03003409 	tsteq	r0, #150994944	@ 0x9000000
 314:	01213a0e 			@ <UNDEFINED> instruction: 0x01213a0e
 318:	21390b3b 	teqcs	r9, fp, lsr fp
 31c:	0213490e 	andseq	r4, r3, #229376	@ 0x38000
 320:	0a000018 	beq	388 <shift+0x388>
 324:	193f012e 	ldmdbne	pc!, {r1, r2, r3, r5, r8}	@ <UNPREDICTABLE>
 328:	213a0e03 	teqcs	sl, r3, lsl #28
 32c:	390b3b01 	stmdbcc	fp, {r0, r8, r9, fp, ip, sp}
 330:	19270621 	stmdbne	r7!, {r0, r5, r9, sl}
 334:	06120111 			@ <UNDEFINED> instruction: 0x06120111
 338:	197a1840 	ldmdbne	sl!, {r6, fp, ip}^
 33c:	00001301 	andeq	r1, r0, r1, lsl #6
 340:	0300050b 	tsteq	r0, #46137344	@ 0x2c00000
 344:	01213a0e 			@ <UNDEFINED> instruction: 0x01213a0e
 348:	0b390b3b 	bleq	e4303c <shift+0xe4303c>
 34c:	18021349 	stmdane	r2, {r0, r3, r6, r8, r9, ip}
 350:	0d0c0000 	stceq	0, cr0, [ip, #-0]
 354:	3a080300 	bcc	200f5c <shift+0x200f5c>
 358:	0b3b0221 	bleq	ec0be4 <shift+0xec0be4>
 35c:	49112139 	ldmdbmi	r1, {r0, r3, r4, r5, r8, sp}
 360:	000b3813 	andeq	r3, fp, r3, lsl r8
 364:	00050d00 	andeq	r0, r5, r0, lsl #26
 368:	213a0803 	teqcs	sl, r3, lsl #16
 36c:	390b3b01 	stmdbcc	fp, {r0, r8, r9, fp, ip, sp}
 370:	0213490b 	andseq	r4, r3, #180224	@ 0x2c000
 374:	0e000018 	mcreq	0, 0, r0, cr0, cr8, {0}
 378:	0e250111 	mcreq	1, 1, r0, cr5, cr1, {0}
 37c:	0e030b13 	vmoveq.32	d3[0], r0
 380:	01110e1b 	tsteq	r1, fp, lsl lr
 384:	17100612 			@ <UNDEFINED> instruction: 0x17100612
 388:	240f0000 	strcs	r0, [pc], #-0	@ 390 <shift+0x390>
 38c:	3e0b0b00 	vmlacc.f64	d0, d11, d0
 390:	0008030b 	andeq	r0, r8, fp, lsl #6
 394:	00351000 	eorseq	r1, r5, r0
 398:	00001349 	andeq	r1, r0, r9, asr #6
 39c:	49002611 	stmdbmi	r0, {r0, r4, r9, sl, sp}
 3a0:	12000013 	andne	r0, r0, #19
 3a4:	0b0b0113 	bleq	2c07f8 <shift+0x2c07f8>
 3a8:	0b3b0b3a 	bleq	ec3098 <shift+0xec3098>
 3ac:	13010b39 	tstne	r1, #58368	@ 0xe400
 3b0:	13130000 	tstne	r3, #0
 3b4:	3a050b01 	bcc	142fc0 <shift+0x142fc0>
 3b8:	390b3b0b 	stmdbcc	fp, {r0, r1, r3, r8, r9, fp, ip, sp}
 3bc:	0013010b 	andseq	r0, r3, fp, lsl #2
 3c0:	002e1400 	eoreq	r1, lr, r0, lsl #8
 3c4:	0e03193f 			@ <UNDEFINED> instruction: 0x0e03193f
 3c8:	0b3b0b3a 	bleq	ec30b8 <shift+0xec30b8>
 3cc:	19270b39 	stmdbne	r7!, {r0, r3, r4, r5, r8, r9, fp}
 3d0:	06120111 			@ <UNDEFINED> instruction: 0x06120111
 3d4:	197c1840 	ldmdbne	ip!, {r6, fp, ip}^
 3d8:	0f150000 	svceq	0x00150000
 3dc:	490b0b00 	stmdbmi	fp, {r8, r9, fp}
 3e0:	16000013 			@ <UNDEFINED> instruction: 0x16000013
 3e4:	193f002e 	ldmdbne	pc!, {r1, r2, r3, r5}	@ <UNPREDICTABLE>
 3e8:	0b3a0e03 	bleq	e83bfc <shift+0xe83bfc>
 3ec:	0b390b3b 	bleq	e430e0 <shift+0xe430e0>
 3f0:	01111927 	tsteq	r1, r7, lsr #18
 3f4:	18400612 	stmdane	r0, {r1, r4, r9, sl}^
 3f8:	0000197a 	andeq	r1, r0, sl, ror r9
 3fc:	00280100 	eoreq	r0, r8, r0, lsl #2
 400:	0b1c0e03 	bleq	703c14 <shift+0x703c14>
 404:	0d020000 	stceq	0, cr0, [r2, #-0]
 408:	3a0e0300 	bcc	381010 <shift+0x381010>
 40c:	053b0221 	ldreq	r0, [fp, #-545]!	@ 0xfffffddf
 410:	49122139 	ldmdbmi	r2, {r0, r3, r4, r5, r8, sp}
 414:	00053813 	andeq	r3, r5, r3, lsl r8
 418:	01010300 	mrseq	r0, SP_irq
 41c:	13011349 	tstne	r1, #603979777	@ 0x24000001
 420:	21040000 	mrscs	r0, (UNDEF: 4)
 424:	2f134900 	svccs	0x00134900
 428:	0500000b 	streq	r0, [r0, #-11]
 42c:	0e030005 	cdpeq	0, 0, cr0, cr3, cr5, {0}
 430:	3b01213a 	blcc	48920 <shift+0x48920>
 434:	490b390b 	stmdbmi	fp, {r0, r1, r3, r8, fp, ip, sp}
 438:	00180213 	andseq	r0, r8, r3, lsl r2
 43c:	00240600 	eoreq	r0, r4, r0, lsl #12
 440:	0b3e0b0b 	bleq	f83074 <shift+0xf83074>
 444:	00000e03 	andeq	r0, r0, r3, lsl #28
 448:	49003507 	stmdbmi	r0, {r0, r1, r2, r8, sl, ip, sp}
 44c:	08000013 	stmdaeq	r0, {r0, r1, r4}
 450:	0803000d 	stmdaeq	r3, {r0, r2, r3}
 454:	3b03213a 	blcc	c8944 <shift+0xc8944>
 458:	11213905 			@ <UNDEFINED> instruction: 0x11213905
 45c:	0b381349 	bleq	e05188 <shift+0xe05188>
 460:	05090000 	streq	r0, [r9, #-0]
 464:	00134900 	andseq	r4, r3, r0, lsl #18
 468:	000d0a00 	andeq	r0, sp, r0, lsl #20
 46c:	0b3a0e03 	bleq	e83c80 <shift+0xe83c80>
 470:	0b39053b 	bleq	e41964 <shift+0xe41964>
 474:	0b381349 	bleq	e051a0 <shift+0xe051a0>
 478:	160b0000 	strne	r0, [fp], -r0
 47c:	3a0e0300 	bcc	381084 <shift+0x381084>
 480:	390b3b0b 	stmdbcc	fp, {r0, r1, r3, r8, r9, fp, ip, sp}
 484:	0013490b 	andseq	r4, r3, fp, lsl #18
 488:	00160c00 	andseq	r0, r6, r0, lsl #24
 48c:	0b3a0e03 	bleq	e83ca0 <shift+0xe83ca0>
 490:	2139053b 	teqcs	r9, fp, lsr r5
 494:	00134903 	andseq	r4, r3, r3, lsl #18
 498:	012e0d00 			@ <UNDEFINED> instruction: 0x012e0d00
 49c:	0e03193f 			@ <UNDEFINED> instruction: 0x0e03193f
 4a0:	3b01213a 	blcc	48990 <shift+0x48990>
 4a4:	0621390b 	strteq	r3, [r1], -fp, lsl #18
 4a8:	01111927 	tsteq	r1, r7, lsr #18
 4ac:	18400612 	stmdane	r0, {r1, r4, r9, sl}^
 4b0:	1301197c 	tstne	r1, #124, 18	@ 0x1f0000
 4b4:	340e0000 	strcc	r0, [lr], #-0
 4b8:	02133100 	andseq	r3, r3, #0, 2
 4bc:	0f000018 	svceq	0x00000018
 4c0:	13490021 	cmpne	r9, #33	@ 0x21
 4c4:	0000052f 	andeq	r0, r0, pc, lsr #10
 4c8:	0b000f10 	bleq	4110 <shift+0x4110>
 4cc:	13490421 	cmpne	r9, #553648128	@ 0x21000000
 4d0:	2e110000 	cdpcs	0, 1, cr0, cr1, cr0, {0}
 4d4:	03193f01 	tsteq	r9, #1, 30
 4d8:	3b0b3a0e 	blcc	2ced18 <shift+0x2ced18>
 4dc:	0621390b 	strteq	r3, [r1], -fp, lsl #18
 4e0:	193c1927 	ldmdbne	ip!, {r0, r1, r2, r5, r8, fp, ip}
 4e4:	00001301 	andeq	r1, r0, r1, lsl #6
 4e8:	3f002e12 	svccc	0x00002e12
 4ec:	3a0e0319 	bcc	381158 <shift+0x381158>
 4f0:	390b3b0b 	stmdbcc	fp, {r0, r1, r3, r8, r9, fp, ip, sp}
 4f4:	19270621 	stmdbne	r7!, {r0, r5, r9, sl}
 4f8:	0000193c 	andeq	r1, r0, ip, lsr r9
 4fc:	3f012e13 	svccc	0x00012e13
 500:	3a0e0319 	bcc	38116c <shift+0x38116c>
 504:	0b3b0121 	bleq	ec0990 <shift+0xec0990>
 508:	27062139 	smladxcs	r6, r9, r1, r2
 50c:	12011119 	andne	r1, r1, #1073741830	@ 0x40000006
 510:	7a184006 	bvc	610530 <shift+0x610530>
 514:	00130119 	andseq	r0, r3, r9, lsl r1
 518:	00261400 	eoreq	r1, r6, r0, lsl #8
 51c:	00001349 	andeq	r1, r0, r9, asr #6
 520:	0b011315 	bleq	4517c <shift+0x4517c>
 524:	03213a0b 			@ <UNDEFINED> instruction: 0x03213a0b
 528:	2139053b 	teqcs	r9, fp, lsr r5
 52c:	00130109 	andseq	r0, r3, r9, lsl #2
 530:	002e1600 	eoreq	r1, lr, r0, lsl #12
 534:	0e03193f 			@ <UNDEFINED> instruction: 0x0e03193f
 538:	3b01213a 	blcc	48a28 <shift+0x48a28>
 53c:	0621390b 	strteq	r3, [r1], -fp, lsl #18
 540:	06120111 			@ <UNDEFINED> instruction: 0x06120111
 544:	197a1840 	ldmdbne	sl!, {r6, fp, ip}^
 548:	05170000 	ldreq	r0, [r7, #-0]
 54c:	3a080300 	bcc	201154 <shift+0x201154>
 550:	0b3b0121 	bleq	ec09dc <shift+0xec09dc>
 554:	49292139 	stmdbmi	r9!, {r0, r3, r4, r5, r8, sp}
 558:	00180213 	andseq	r0, r8, r3, lsl r2
 55c:	011d1800 	tsteq	sp, r0, lsl #16
 560:	01111331 	tsteq	r1, r1, lsr r3
 564:	21580612 	cmpcs	r8, r2, lsl r6
 568:	570b5901 	strpl	r5, [fp, -r1, lsl #18]
 56c:	00000521 	andeq	r0, r0, r1, lsr #10
 570:	31000519 	tstcc	r0, r9, lsl r5
 574:	00180213 	andseq	r0, r8, r3, lsl r2
 578:	011d1a00 	tsteq	sp, r0, lsl #20
 57c:	01111331 	tsteq	r1, r1, lsr r3
 580:	21580612 	cmpcs	r8, r2, lsl r6
 584:	eb215902 	bl	856994 <shift+0x856994>
 588:	20215704 	eorcs	r5, r1, r4, lsl #14
 58c:	0b1b0000 	bleq	6c0594 <shift+0x6c0594>
 590:	11133101 	tstne	r3, r1, lsl #2
 594:	00061201 	andeq	r1, r6, r1, lsl #4
 598:	01111c00 	tsteq	r1, r0, lsl #24
 59c:	0b130e25 	bleq	4c3e38 <shift+0x4c3e38>
 5a0:	0e1b0e03 	cdpeq	14, 1, cr0, cr11, cr3, {0}
 5a4:	06120111 			@ <UNDEFINED> instruction: 0x06120111
 5a8:	00001710 	andeq	r1, r0, r0, lsl r7
 5ac:	0b00241d 	bleq	9628 <shift+0x9628>
 5b0:	030b3e0b 	tsteq	fp, #11, 28	@ 0xb0
 5b4:	1e000008 	cdpne	0, 0, cr0, cr0, cr8, {0}
 5b8:	0e030104 	cdpeq	1, 0, cr0, cr3, cr4, {0}
 5bc:	0b0b0b3e 	bleq	2c32bc <shift+0x2c32bc>
 5c0:	0b3a1349 	bleq	e852ec <shift+0xe852ec>
 5c4:	0b39053b 	bleq	e41ab8 <shift+0xe41ab8>
 5c8:	00001301 	andeq	r1, r0, r1, lsl #6
 5cc:	0300281f 	tsteq	r0, #2031616	@ 0x1f0000
 5d0:	000d1c0e 	andeq	r1, sp, lr, lsl #24
 5d4:	01132000 	tsteq	r3, r0
 5d8:	0b3a050b 	bleq	e81a0c <shift+0xe81a0c>
 5dc:	0b39053b 	bleq	e41ad0 <shift+0xe41ad0>
 5e0:	00001301 	andeq	r1, r0, r1, lsl #6
 5e4:	27011521 	strcs	r1, [r1, -r1, lsr #10]
 5e8:	00130119 	andseq	r0, r3, r9, lsl r1
 5ec:	000f2200 	andeq	r2, pc, r0, lsl #4
 5f0:	00000b0b 	andeq	r0, r0, fp, lsl #22
 5f4:	11010b23 	tstne	r1, r3, lsr #22
 5f8:	00061201 	andeq	r1, r6, r1, lsl #4
 5fc:	00342400 	eorseq	r2, r4, r0, lsl #8
 600:	0b3a0e03 	bleq	e83e14 <shift+0xe83e14>
 604:	0b390b3b 	bleq	e432f8 <shift+0xe432f8>
 608:	18021349 	stmdane	r2, {r0, r3, r6, r8, r9, ip}
 60c:	2e250000 	cdpcs	0, 2, cr0, cr5, cr0, {0}
 610:	03193f00 	tsteq	r9, #0, 30
 614:	3b0b3a0e 	blcc	2cee54 <shift+0x2cee54>
 618:	490b390b 	stmdbmi	fp, {r0, r1, r3, r8, fp, ip, sp}
 61c:	12011113 	andne	r1, r1, #-1073741820	@ 0xc0000004
 620:	7c184006 	ldcvc	0, cr4, [r8], {6}
 624:	26000019 			@ <UNDEFINED> instruction: 0x26000019
 628:	0e03012e 	cdpeq	1, 0, cr0, cr3, cr14, {1}
 62c:	053b0b3a 	ldreq	r0, [fp, #-2874]!	@ 0xfffff4c6
 630:	19270b39 	stmdbne	r7!, {r0, r3, r4, r5, r8, r9, fp}
 634:	13010b20 	tstne	r1, #32, 22	@ 0x8000
 638:	05270000 	streq	r0, [r7, #-0]!
 63c:	3a0e0300 	bcc	381244 <shift+0x381244>
 640:	39053b0b 	stmdbcc	r5, {r0, r1, r3, r8, r9, fp, ip, sp}
 644:	0013490b 	andseq	r4, r3, fp, lsl #18
 648:	00342800 	eorseq	r2, r4, r0, lsl #16
 64c:	0b3a0803 	bleq	e82660 <shift+0xe82660>
 650:	0b39053b 	bleq	e41b44 <shift+0xe41b44>
 654:	00001349 	andeq	r1, r0, r9, asr #6
 658:	03012e29 	tsteq	r1, #656	@ 0x290
 65c:	3b0b3a0e 	blcc	2cee9c <shift+0x2cee9c>
 660:	270b3905 	strcs	r3, [fp, -r5, lsl #18]
 664:	20134919 	andscs	r4, r3, r9, lsl r9
 668:	2a00000b 	bcs	69c <shift+0x69c>
 66c:	0000010b 	andeq	r0, r0, fp, lsl #2
 670:	0300342b 	tsteq	r0, #721420288	@ 0x2b000000
 674:	3b0b3a0e 	blcc	2ceeb4 <shift+0x2ceeb4>
 678:	490b3905 	stmdbmi	fp, {r0, r2, r8, fp, ip, sp}
 67c:	00000013 	andeq	r0, r0, r3, lsl r0
 680:	0b002401 	bleq	968c <shift+0x968c>
 684:	030b3e0b 	tsteq	fp, #11, 28	@ 0xb0
 688:	0200000e 	andeq	r0, r0, #14
 68c:	08030005 	stmdaeq	r3, {r0, r2}
 690:	3b01213a 	blcc	48b80 <shift+0x48b80>
 694:	490b390b 	stmdbmi	fp, {r0, r1, r3, r8, fp, ip, sp}
 698:	00180213 	andseq	r0, r8, r3, lsl r2
 69c:	01110300 	tsteq	r1, r0, lsl #6
 6a0:	0b130e25 	bleq	4c3f3c <shift+0x4c3f3c>
 6a4:	0e1b0e03 	cdpeq	14, 1, cr0, cr11, cr3, {0}
 6a8:	06120111 			@ <UNDEFINED> instruction: 0x06120111
 6ac:	00001710 	andeq	r1, r0, r0, lsl r7
 6b0:	0b002404 	bleq	96c8 <shift+0x96c8>
 6b4:	030b3e0b 	tsteq	fp, #11, 28	@ 0xb0
 6b8:	05000008 	streq	r0, [r0, #-8]
 6bc:	13490035 	cmpne	r9, #53	@ 0x35
 6c0:	2e060000 	cdpcs	0, 0, cr0, cr6, cr0, {0}
 6c4:	03193f01 	tsteq	r9, #1, 30
 6c8:	3b0b3a0e 	blcc	2cef08 <shift+0x2cef08>
 6cc:	270b390b 	strcs	r3, [fp, -fp, lsl #18]
 6d0:	12011119 	andne	r1, r1, #1073741830	@ 0x40000006
 6d4:	7c184006 	ldcvc	0, cr4, [r8], {6}
 6d8:	00130119 	andseq	r0, r3, r9, lsl r1
 6dc:	012e0700 			@ <UNDEFINED> instruction: 0x012e0700
 6e0:	0e03193f 			@ <UNDEFINED> instruction: 0x0e03193f
 6e4:	0b3b0b3a 	bleq	ec33d4 <shift+0xec33d4>
 6e8:	19270b39 	stmdbne	r7!, {r0, r3, r4, r5, r8, r9, fp}
 6ec:	06120111 			@ <UNDEFINED> instruction: 0x06120111
 6f0:	197a1840 	ldmdbne	sl!, {r6, fp, ip}^
 6f4:	01000000 	mrseq	r0, (UNDEF: 0)
 6f8:	0e030028 	cdpeq	0, 0, cr0, cr3, cr8, {1}
 6fc:	00000b1c 	andeq	r0, r0, ip, lsl fp
 700:	03000d02 	tsteq	r0, #2, 26	@ 0x80
 704:	02213a0e 	eoreq	r3, r1, #57344	@ 0xe000
 708:	2139053b 	teqcs	r9, fp, lsr r5
 70c:	38134912 	ldmdacc	r3, {r1, r4, r8, fp, lr}
 710:	03000005 	tsteq	r0, #5
 714:	13490101 	cmpne	r9, #1073741824	@ 0x40000000
 718:	00001301 	andeq	r1, r0, r1, lsl #6
 71c:	49002104 	stmdbmi	r0, {r2, r8, sp}
 720:	000b2f13 	andeq	r2, fp, r3, lsl pc
 724:	00240500 	eoreq	r0, r4, r0, lsl #10
 728:	0b3e0b0b 	bleq	f8335c <shift+0xf8335c>
 72c:	00000e03 	andeq	r0, r0, r3, lsl #28
 730:	49003506 	stmdbmi	r0, {r1, r2, r8, sl, ip, sp}
 734:	07000013 	smladeq	r0, r3, r0, r0
 738:	0e030005 	cdpeq	0, 0, cr0, cr3, cr5, {0}
 73c:	3b01213a 	blcc	48c2c <shift+0x48c2c>
 740:	490b390b 	stmdbmi	fp, {r0, r1, r3, r8, fp, ip, sp}
 744:	00180213 	andseq	r0, r8, r3, lsl r2
 748:	00160800 	andseq	r0, r6, r0, lsl #16
 74c:	0b3a0e03 	bleq	e83f60 <shift+0xe83f60>
 750:	0b390b3b 	bleq	e43444 <shift+0xe43444>
 754:	00001349 	andeq	r1, r0, r9, asr #6
 758:	31003409 	tstcc	r0, r9, lsl #8
 75c:	00180213 	andseq	r0, r8, r3, lsl r2
 760:	00210a00 	eoreq	r0, r1, r0, lsl #20
 764:	052f1349 	streq	r1, [pc, #-841]!	@ 423 <shift+0x423>
 768:	2e0b0000 	cdpcs	0, 0, cr0, cr11, cr0, {0}
 76c:	03193f01 	tsteq	r9, #1, 30
 770:	01213a0e 			@ <UNDEFINED> instruction: 0x01213a0e
 774:	21390b3b 	teqcs	r9, fp, lsr fp
 778:	11192706 	tstne	r9, r6, lsl #14
 77c:	40061201 	andmi	r1, r6, r1, lsl #4
 780:	01197c18 	tsteq	r9, r8, lsl ip
 784:	0c000013 	stceq	0, cr0, [r0], {19}
 788:	13490026 	cmpne	r9, #38	@ 0x26
 78c:	160d0000 	strne	r0, [sp], -r0
 790:	3a0e0300 	bcc	381398 <shift+0x381398>
 794:	39053b0b 	stmdbcc	r5, {r0, r1, r3, r8, r9, fp, ip, sp}
 798:	13490321 	cmpne	r9, #-2080374784	@ 0x84000000
 79c:	0f0e0000 	svceq	0x000e0000
 7a0:	04210b00 	strteq	r0, [r1], #-2816	@ 0xfffff500
 7a4:	00001349 	andeq	r1, r0, r9, asr #6
 7a8:	4900050f 	stmdbmi	r0, {r0, r1, r2, r3, r8, sl}
 7ac:	10000013 	andne	r0, r0, r3, lsl r0
 7b0:	0e03000d 	cdpeq	0, 0, cr0, cr3, cr13, {0}
 7b4:	3b04213a 	blcc	108ca4 <shift+0x108ca4>
 7b8:	490b390b 	stmdbmi	fp, {r0, r1, r3, r8, fp, ip, sp}
 7bc:	000b3813 	andeq	r3, fp, r3, lsl r8
 7c0:	012e1100 			@ <UNDEFINED> instruction: 0x012e1100
 7c4:	0e03193f 			@ <UNDEFINED> instruction: 0x0e03193f
 7c8:	3b01213a 	blcc	48cb8 <shift+0x48cb8>
 7cc:	0621390b 	strteq	r3, [r1], -fp, lsl #18
 7d0:	01111927 	tsteq	r1, r7, lsr #18
 7d4:	18400612 	stmdane	r0, {r1, r4, r9, sl}^
 7d8:	1301197a 	tstne	r1, #1998848	@ 0x1e8000
 7dc:	34120000 	ldrcc	r0, [r2], #-0
 7e0:	3a080300 	bcc	2013e8 <shift+0x2013e8>
 7e4:	0b3b0121 	bleq	ec0c70 <shift+0xec0c70>
 7e8:	490e2139 	stmdbmi	lr, {r0, r3, r4, r5, r8, sp}
 7ec:	00180213 	andseq	r0, r8, r3, lsl r2
 7f0:	00341300 	eorseq	r1, r4, r0, lsl #6
 7f4:	213a0803 	teqcs	sl, r3, lsl #16
 7f8:	39053b02 	stmdbcc	r5, {r1, r8, r9, fp, ip, sp}
 7fc:	0013490b 	andseq	r4, r3, fp, lsl #18
 800:	00341400 	eorseq	r1, r4, r0, lsl #8
 804:	213a0e03 	teqcs	sl, r3, lsl #28
 808:	39053b02 	stmdbcc	r5, {r1, r8, r9, fp, ip, sp}
 80c:	0013490b 	andseq	r4, r3, fp, lsl #18
 810:	01111500 	tsteq	r1, r0, lsl #10
 814:	0b130e25 	bleq	4c40b0 <shift+0x4c40b0>
 818:	0e1b0e03 	cdpeq	14, 1, cr0, cr11, cr3, {0}
 81c:	06120111 			@ <UNDEFINED> instruction: 0x06120111
 820:	00001710 	andeq	r1, r0, r0, lsl r7
 824:	0b002416 	bleq	9884 <shift+0x9884>
 828:	030b3e0b 	tsteq	fp, #11, 28	@ 0xb0
 82c:	17000008 	strne	r0, [r0, -r8]
 830:	0e030104 	cdpeq	1, 0, cr0, cr3, cr4, {0}
 834:	0b0b0b3e 	bleq	2c3534 <shift+0x2c3534>
 838:	0b3a1349 	bleq	e85564 <shift+0xe85564>
 83c:	0b39053b 	bleq	e41d30 <shift+0xe41d30>
 840:	00001301 	andeq	r1, r0, r1, lsl #6
 844:	03002818 	tsteq	r0, #24, 16	@ 0x180000
 848:	000d1c0e 	andeq	r1, sp, lr, lsl #24
 84c:	01131900 	tsteq	r3, r0, lsl #18
 850:	0b3a050b 	bleq	e81c84 <shift+0xe81c84>
 854:	0b39053b 	bleq	e41d48 <shift+0xe41d48>
 858:	00001301 	andeq	r1, r0, r1, lsl #6
 85c:	03000d1a 	tsteq	r0, #1664	@ 0x680
 860:	3b0b3a0e 	blcc	2cf0a0 <shift+0x2cf0a0>
 864:	490b3905 	stmdbmi	fp, {r0, r2, r8, fp, ip, sp}
 868:	000b3813 	andeq	r3, fp, r3, lsl r8
 86c:	01151b00 	tsteq	r5, r0, lsl #22
 870:	13011927 	tstne	r1, #638976	@ 0x9c000
 874:	0f1c0000 	svceq	0x001c0000
 878:	000b0b00 	andeq	r0, fp, r0, lsl #22
 87c:	01131d00 	tsteq	r3, r0, lsl #26
 880:	0b0b0e03 	bleq	2c4094 <shift+0x2c4094>
 884:	0b3b0b3a 	bleq	ec3574 <shift+0xec3574>
 888:	13010b39 	tstne	r1, #58368	@ 0xe400
 88c:	341e0000 	ldrcc	r0, [lr], #-0
 890:	3a0e0300 	bcc	381498 <shift+0x381498>
 894:	390b3b0b 	stmdbcc	fp, {r0, r1, r3, r8, r9, fp, ip, sp}
 898:	3f13490b 	svccc	0x0013490b
 89c:	00180219 	andseq	r0, r8, r9, lsl r2
 8a0:	00341f00 	eorseq	r1, r4, r0, lsl #30
 8a4:	0b3a0e03 	bleq	e840b8 <shift+0xe840b8>
 8a8:	0b390b3b 	bleq	e4359c <shift+0xe4359c>
 8ac:	18021349 	stmdane	r2, {r0, r3, r6, r8, r9, ip}
 8b0:	0b200000 	bleq	8008b8 <shift+0x8008b8>
 8b4:	12011101 	andne	r1, r1, #1073741824	@ 0x40000000
 8b8:	21000006 	tstcs	r0, r6
 8bc:	08030005 	stmdaeq	r3, {r0, r2}
 8c0:	0b3b0b3a 	bleq	ec35b0 <shift+0xec35b0>
 8c4:	13490b39 	cmpne	r9, #58368	@ 0xe400
 8c8:	00001802 	andeq	r1, r0, r2, lsl #16
 8cc:	31011d22 	tstcc	r1, r2, lsr #26
 8d0:	12011113 	andne	r1, r1, #-1073741820	@ 0xc0000004
 8d4:	590b5806 	stmdbpl	fp, {r1, r2, fp, ip, lr}
 8d8:	010b570b 	tsteq	fp, fp, lsl #14
 8dc:	23000013 	tstcs	r0, #19
 8e0:	1331011d 	teqne	r1, #1073741831	@ 0x40000007
 8e4:	06120111 			@ <UNDEFINED> instruction: 0x06120111
 8e8:	05590b58 	ldrbeq	r0, [r9, #-2904]	@ 0xfffff4a8
 8ec:	00000b57 	andeq	r0, r0, r7, asr fp
 8f0:	31010b24 	tstcc	r1, r4, lsr #22
 8f4:	12011113 	andne	r1, r1, #-1073741820	@ 0xc0000004
 8f8:	25000006 	strcs	r0, [r0, #-6]
 8fc:	1331011d 	teqne	r1, #1073741831	@ 0x40000007
 900:	06120111 			@ <UNDEFINED> instruction: 0x06120111
 904:	0b590b58 	bleq	164366c <shift+0x164366c>
 908:	00000b57 	andeq	r0, r0, r7, asr fp
 90c:	31000526 	tstcc	r0, r6, lsr #10
 910:	00180213 	andseq	r0, r8, r3, lsl r2
 914:	012e2700 			@ <UNDEFINED> instruction: 0x012e2700
 918:	0b3a0e03 	bleq	e8412c <shift+0xe8412c>
 91c:	0b39053b 	bleq	e41e10 <shift+0xe41e10>
 920:	0b201927 	bleq	806dc4 <shift+0x806dc4>
 924:	00001301 	andeq	r1, r0, r1, lsl #6
 928:	03012e28 	tsteq	r1, #40, 28	@ 0x280
 92c:	3b0b3a0e 	blcc	2cf16c <shift+0x2cf16c>
 930:	270b3905 	strcs	r3, [fp, -r5, lsl #18]
 934:	20134919 	andscs	r4, r3, r9, lsl r9
 938:	0013010b 	andseq	r0, r3, fp, lsl #2
 93c:	010b2900 	tsteq	fp, r0, lsl #18
 940:	2e2a0000 	cdpcs	0, 2, cr0, cr10, cr0, {0}
 944:	3a0e0301 	bcc	381550 <shift+0x381550>
 948:	39053b0b 	stmdbcc	r5, {r0, r1, r3, r8, r9, fp, ip, sp}
 94c:	2019270b 	andscs	r2, r9, fp, lsl #14
 950:	2b00000b 	blcs	984 <shift+0x984>
 954:	0e030005 	cdpeq	0, 0, cr0, cr3, cr5, {0}
 958:	053b0b3a 	ldreq	r0, [fp, #-2874]!	@ 0xfffff4c6
 95c:	13490b39 	cmpne	r9, #58368	@ 0xe400
 960:	01000000 	mrseq	r0, (UNDEF: 0)
 964:	0e030028 	cdpeq	0, 0, cr0, cr3, cr8, {1}
 968:	00000b1c 	andeq	r0, r0, ip, lsl fp
 96c:	03000d02 	tsteq	r0, #2, 26	@ 0x80
 970:	02213a0e 	eoreq	r3, r1, #57344	@ 0xe000
 974:	2139053b 	teqcs	r9, fp, lsr r5
 978:	38134912 	ldmdacc	r3, {r1, r4, r8, fp, lr}
 97c:	03000005 	tsteq	r0, #5
 980:	13490005 	cmpne	r9, #5
 984:	01040000 	mrseq	r0, (UNDEF: 4)
 988:	01134901 	tsteq	r3, r1, lsl #18
 98c:	05000013 	streq	r0, [r0, #-19]	@ 0xffffffed
 990:	13490021 	cmpne	r9, #33	@ 0x21
 994:	00000b2f 	andeq	r0, r0, pc, lsr #22
 998:	3f012e06 	svccc	0x00012e06
 99c:	3a0e0319 	bcc	381608 <shift+0x381608>
 9a0:	390b3b0b 	stmdbcc	fp, {r0, r1, r3, r8, r9, fp, ip, sp}
 9a4:	19270621 	stmdbne	r7!, {r0, r5, r9, sl}
 9a8:	1301193c 	tstne	r1, #60, 18	@ 0xf0000
 9ac:	24070000 	strcs	r0, [r7], #-0
 9b0:	3e0b0b00 	vmlacc.f64	d0, d11, d0
 9b4:	000e030b 	andeq	r0, lr, fp, lsl #6
 9b8:	00350800 	eorseq	r0, r5, r0, lsl #16
 9bc:	00001349 	andeq	r1, r0, r9, asr #6
 9c0:	03000d09 	tsteq	r0, #576	@ 0x240
 9c4:	3b0b3a0e 	blcc	2cf204 <shift+0x2cf204>
 9c8:	490b3905 	stmdbmi	fp, {r0, r2, r8, fp, ip, sp}
 9cc:	000b3813 	andeq	r3, fp, r3, lsl r8
 9d0:	00160a00 	andseq	r0, r6, r0, lsl #20
 9d4:	0b3a0e03 	bleq	e841e8 <shift+0xe841e8>
 9d8:	2139053b 	teqcs	r9, fp, lsr r5
 9dc:	00134903 	andseq	r4, r3, r3, lsl #18
 9e0:	00160b00 	andseq	r0, r6, r0, lsl #22
 9e4:	0b3a0e03 	bleq	e841f8 <shift+0xe841f8>
 9e8:	0b390b3b 	bleq	e436dc <shift+0xe436dc>
 9ec:	00001349 	andeq	r1, r0, r9, asr #6
 9f0:	03000d0c 	tsteq	r0, #12, 26	@ 0x300
 9f4:	03213a08 			@ <UNDEFINED> instruction: 0x03213a08
 9f8:	2139053b 	teqcs	r9, fp, lsr r5
 9fc:	38134911 	ldmdacc	r3, {r0, r4, r8, fp, lr}
 a00:	0d00000b 	stceq	0, cr0, [r0, #-44]	@ 0xffffffd4
 a04:	210b000f 	tstcs	fp, pc
 a08:	00134904 	andseq	r4, r3, r4, lsl #18
 a0c:	01040e00 	tsteq	r4, r0, lsl #28
 a10:	0b3e0e03 	bleq	f84224 <shift+0xf84224>
 a14:	4904210b 	stmdbmi	r4, {r0, r1, r3, r8, sp}
 a18:	03213a13 			@ <UNDEFINED> instruction: 0x03213a13
 a1c:	2139053b 	teqcs	r9, fp, lsr r5
 a20:	0013010e 	andseq	r0, r3, lr, lsl #2
 a24:	00210f00 	eoreq	r0, r1, r0, lsl #30
 a28:	052f1349 	streq	r1, [pc, #-841]!	@ 6e7 <shift+0x6e7>
 a2c:	26100000 	ldrcs	r0, [r0], -r0
 a30:	00134900 	andseq	r4, r3, r0, lsl #18
 a34:	00051100 	andeq	r1, r5, r0, lsl #2
 a38:	213a0e03 	teqcs	sl, r3, lsl #28
 a3c:	27213b01 	strcs	r3, [r1, -r1, lsl #22]!
 a40:	13490b39 	cmpne	r9, #58368	@ 0xe400
 a44:	00001802 	andeq	r1, r0, r2, lsl #16
 a48:	31003412 	tstcc	r0, r2, lsl r4
 a4c:	00180213 	andseq	r0, r8, r3, lsl r2
 a50:	01111300 	tsteq	r1, r0, lsl #6
 a54:	0b130e25 	bleq	4c42f0 <shift+0x4c42f0>
 a58:	0e1b0e03 	cdpeq	14, 1, cr0, cr11, cr3, {0}
 a5c:	06120111 			@ <UNDEFINED> instruction: 0x06120111
 a60:	00001710 	andeq	r1, r0, r0, lsl r7
 a64:	0b002414 	bleq	9abc <shift+0x9abc>
 a68:	030b3e0b 	tsteq	fp, #11, 28	@ 0xb0
 a6c:	15000008 	strne	r0, [r0, #-8]
 a70:	0b0b0113 	bleq	2c0ec4 <shift+0x2c0ec4>
 a74:	053b0b3a 	ldreq	r0, [fp, #-2874]!	@ 0xfffff4c6
 a78:	13010b39 	tstne	r1, #58368	@ 0xe400
 a7c:	13160000 	tstne	r6, #0
 a80:	0b0e0301 	bleq	38168c <shift+0x38168c>
 a84:	3b0b3a0b 	blcc	2cf2b8 <shift+0x2cf2b8>
 a88:	010b3905 	tsteq	fp, r5, lsl #18
 a8c:	17000013 	smladne	r0, r3, r0, r0
 a90:	0e030028 	cdpeq	0, 0, cr0, cr3, cr8, {1}
 a94:	00000d1c 	andeq	r0, r0, ip, lsl sp
 a98:	0b011318 	bleq	45700 <shift+0x45700>
 a9c:	3b0b3a05 	blcc	2cf2b8 <shift+0x2cf2b8>
 aa0:	010b3905 	tsteq	fp, r5, lsl #18
 aa4:	19000013 	stmdbne	r0, {r0, r1, r4}
 aa8:	19270115 	stmdbne	r7!, {r0, r2, r4, r8}
 aac:	00001301 	andeq	r1, r0, r1, lsl #6
 ab0:	0b000f1a 	bleq	4720 <shift+0x4720>
 ab4:	1b00000b 	blne	ae8 <shift+0xae8>
 ab8:	0e030104 	cdpeq	1, 0, cr0, cr3, cr4, {0}
 abc:	0b0b0b3e 	bleq	2c37bc <shift+0x2c37bc>
 ac0:	0b3a1349 	bleq	e857ec <shift+0xe857ec>
 ac4:	0b390b3b 	bleq	e437b8 <shift+0xe437b8>
 ac8:	00001301 	andeq	r1, r0, r1, lsl #6
 acc:	3f012e1c 	svccc	0x00012e1c
 ad0:	3a0e0319 	bcc	38173c <shift+0x38173c>
 ad4:	390b3b0b 	stmdbcc	fp, {r0, r1, r3, r8, r9, fp, ip, sp}
 ad8:	01193c0b 	tsteq	r9, fp, lsl #24
 adc:	1d000013 	stcne	0, cr0, [r0, #-76]	@ 0xffffffb4
 ae0:	00000018 	andeq	r0, r0, r8, lsl r0
 ae4:	3f012e1e 	svccc	0x00012e1e
 ae8:	3a0e0319 	bcc	381754 <shift+0x381754>
 aec:	390b3b0b 	stmdbcc	fp, {r0, r1, r3, r8, r9, fp, ip, sp}
 af0:	1119270b 	tstne	r9, fp, lsl #14
 af4:	40061201 	andmi	r1, r6, r1, lsl #4
 af8:	01197c18 	tsteq	r9, r8, lsl ip
 afc:	1f000013 	svcne	0x00000013
 b00:	193f012e 	ldmdbne	pc!, {r1, r2, r3, r5, r8}	@ <UNPREDICTABLE>
 b04:	0b3a0e03 	bleq	e84318 <shift+0xe84318>
 b08:	0b390b3b 	bleq	e437fc <shift+0xe437fc>
 b0c:	06120111 			@ <UNDEFINED> instruction: 0x06120111
 b10:	197c1840 	ldmdbne	ip!, {r6, fp, ip}^
 b14:	00001301 	andeq	r1, r0, r1, lsl #6
 b18:	03003420 	tsteq	r0, #32, 8	@ 0x20000000
 b1c:	3b0b3a0e 	blcc	2cf35c <shift+0x2cf35c>
 b20:	490b390b 	stmdbmi	fp, {r0, r1, r3, r8, fp, ip, sp}
 b24:	00180213 	andseq	r0, r8, r3, lsl r2
 b28:	011d2100 	tsteq	sp, r0, lsl #2
 b2c:	01111331 	tsteq	r1, r1, lsr r3
 b30:	0b580612 	bleq	1602380 <shift+0x1602380>
 b34:	0b570b59 	bleq	15c38a0 <shift+0x15c38a0>
 b38:	05220000 	streq	r0, [r2, #-0]!
 b3c:	02133100 	andseq	r3, r3, #0, 2
 b40:	23000018 	tstcs	r0, #24
 b44:	1331011d 	teqne	r1, #1073741831	@ 0x40000007
 b48:	06120111 			@ <UNDEFINED> instruction: 0x06120111
 b4c:	05590b58 	ldrbeq	r0, [r9, #-2904]	@ 0xfffff4a8
 b50:	00000b57 	andeq	r0, r0, r7, asr fp
 b54:	31010b24 	tstcc	r1, r4, lsr #22
 b58:	12011113 	andne	r1, r1, #-1073741820	@ 0xc0000004
 b5c:	25000006 	strcs	r0, [r0, #-6]
 b60:	193f002e 	ldmdbne	pc!, {r1, r2, r3, r5}	@ <UNPREDICTABLE>
 b64:	0b3a0e03 	bleq	e84378 <shift+0xe84378>
 b68:	0b390b3b 	bleq	e4385c <shift+0xe4385c>
 b6c:	13491927 	cmpne	r9, #638976	@ 0x9c000
 b70:	06120111 			@ <UNDEFINED> instruction: 0x06120111
 b74:	197c1840 	ldmdbne	ip!, {r6, fp, ip}^
 b78:	2e260000 	cdpcs	0, 2, cr0, cr6, cr0, {0}
 b7c:	03193f00 	tsteq	r9, #0, 30
 b80:	3b0b3a0e 	blcc	2cf3c0 <shift+0x2cf3c0>
 b84:	270b390b 	strcs	r3, [fp, -fp, lsl #18]
 b88:	12011119 	andne	r1, r1, #1073741830	@ 0x40000006
 b8c:	7c184006 	ldcvc	0, cr4, [r8], {6}
 b90:	27000019 	smladcs	r0, r9, r0, r0
 b94:	0e03012e 	cdpeq	1, 0, cr0, cr3, cr14, {1}
 b98:	053b0b3a 	ldreq	r0, [fp, #-2874]!	@ 0xfffff4c6
 b9c:	19270b39 	stmdbne	r7!, {r0, r3, r4, r5, r8, r9, fp}
 ba0:	13010b20 	tstne	r1, #32, 22	@ 0x8000
 ba4:	05280000 	streq	r0, [r8, #-0]!
 ba8:	3a0e0300 	bcc	3817b0 <shift+0x3817b0>
 bac:	39053b0b 	stmdbcc	r5, {r0, r1, r3, r8, r9, fp, ip, sp}
 bb0:	0013490b 	andseq	r4, r3, fp, lsl #18
 bb4:	00342900 	eorseq	r2, r4, r0, lsl #18
 bb8:	0b3a0803 	bleq	e82bcc <shift+0xe82bcc>
 bbc:	0b39053b 	bleq	e420b0 <shift+0xe420b0>
 bc0:	00001349 	andeq	r1, r0, r9, asr #6
 bc4:	03012e2a 	tsteq	r1, #672	@ 0x2a0
 bc8:	3b0b3a0e 	blcc	2cf408 <shift+0x2cf408>
 bcc:	270b3905 	strcs	r3, [fp, -r5, lsl #18]
 bd0:	20134919 	andscs	r4, r3, r9, lsl r9
 bd4:	2b00000b 	blcs	c08 <shift+0xc08>
 bd8:	0000010b 	andeq	r0, r0, fp, lsl #2
 bdc:	0300342c 	tsteq	r0, #44, 8	@ 0x2c000000
 be0:	3b0b3a0e 	blcc	2cf420 <shift+0x2cf420>
 be4:	490b3905 	stmdbmi	fp, {r0, r2, r8, fp, ip, sp}
 be8:	00000013 	andeq	r0, r0, r3, lsl r0
 bec:	49000501 	stmdbmi	r0, {r0, r8, sl}
 bf0:	02000013 	andeq	r0, r0, #19
 bf4:	0b0b0024 	bleq	2c0c8c <shift+0x2c0c8c>
 bf8:	0e030b3e 	vmoveq.16	d3[0], r0
 bfc:	0d030000 	stceq	0, cr0, [r3, #-0]
 c00:	3a080300 	bcc	201808 <shift+0x201808>
 c04:	053b0221 	ldreq	r0, [fp, #-545]!	@ 0xfffffddf
 c08:	49112139 	ldmdbmi	r1, {r0, r3, r4, r5, r8, sp}
 c0c:	000b3813 	andeq	r3, fp, r3, lsl r8
 c10:	000d0400 	andeq	r0, sp, r0, lsl #8
 c14:	213a0e03 	teqcs	sl, r3, lsl #28
 c18:	39053b02 	stmdbcc	r5, {r1, r8, r9, fp, ip, sp}
 c1c:	13491121 	cmpne	r9, #1073741832	@ 0x40000008
 c20:	00000b38 	andeq	r0, r0, r8, lsr fp
 c24:	3f012e05 	svccc	0x00012e05
 c28:	3a0e0319 	bcc	381894 <shift+0x381894>
 c2c:	0b3b0321 	bleq	ec18b8 <shift+0xec18b8>
 c30:	27062139 	smladxcs	r6, r9, r1, r2
 c34:	01193c19 	tsteq	r9, r9, lsl ip
 c38:	06000013 			@ <UNDEFINED> instruction: 0x06000013
 c3c:	193f002e 	ldmdbne	pc!, {r1, r2, r3, r5}	@ <UNPREDICTABLE>
 c40:	213a0e03 	teqcs	sl, r3, lsl #28
 c44:	390b3b01 	stmdbcc	fp, {r0, r8, r9, fp, ip, sp}
 c48:	19270621 	stmdbne	r7!, {r0, r5, r9, sl}
 c4c:	06120111 			@ <UNDEFINED> instruction: 0x06120111
 c50:	197c1840 	ldmdbne	ip!, {r6, fp, ip}^
 c54:	2e070000 	cdpcs	0, 0, cr0, cr7, cr0, {0}
 c58:	03193f00 	tsteq	r9, #0, 30
 c5c:	01213a0e 			@ <UNDEFINED> instruction: 0x01213a0e
 c60:	21390b3b 	teqcs	r9, fp, lsr fp
 c64:	11192706 	tstne	r9, r6, lsl #14
 c68:	40061201 	andmi	r1, r6, r1, lsl #4
 c6c:	00197a18 	andseq	r7, r9, r8, lsl sl
 c70:	01110800 	tsteq	r1, r0, lsl #16
 c74:	0b130e25 	bleq	4c4510 <shift+0x4c4510>
 c78:	0e1b0e03 	cdpeq	14, 1, cr0, cr11, cr3, {0}
 c7c:	06120111 			@ <UNDEFINED> instruction: 0x06120111
 c80:	00001710 	andeq	r1, r0, r0, lsl r7
 c84:	0b002409 	bleq	9cb0 <shift+0x9cb0>
 c88:	030b3e0b 	tsteq	fp, #11, 28	@ 0xb0
 c8c:	0a000008 	beq	cb4 <shift+0xcb4>
 c90:	0e030016 	mcreq	0, 0, r0, cr3, cr6, {0}
 c94:	0b3b0b3a 	bleq	ec3984 <shift+0xec3984>
 c98:	13490b39 	cmpne	r9, #58368	@ 0xe400
 c9c:	350b0000 	strcc	r0, [fp, #-0]
 ca0:	00134900 	andseq	r4, r3, r0, lsl #18
 ca4:	00260c00 	eoreq	r0, r6, r0, lsl #24
 ca8:	00001349 	andeq	r1, r0, r9, asr #6
 cac:	0b01130d 	bleq	458e8 <shift+0x458e8>
 cb0:	3b0b3a0b 	blcc	2cf4e4 <shift+0x2cf4e4>
 cb4:	010b3905 	tsteq	fp, r5, lsl #18
 cb8:	0e000013 	mcreq	0, 0, r0, cr0, cr3, {0}
 cbc:	0e030016 	mcreq	0, 0, r0, cr3, cr6, {0}
 cc0:	053b0b3a 	ldreq	r0, [fp, #-2874]!	@ 0xfffff4c6
 cc4:	13490b39 	cmpne	r9, #58368	@ 0xe400
 cc8:	01000000 	mrseq	r0, (UNDEF: 0)
 ccc:	0e03000d 	cdpeq	0, 0, cr0, cr3, cr13, {0}
 cd0:	3b02213a 	blcc	891c0 <shift+0x891c0>
 cd4:	490b3905 	stmdbmi	fp, {r0, r2, r8, fp, ip, sp}
 cd8:	000b3813 	andeq	r3, fp, r3, lsl r8
 cdc:	00050200 	andeq	r0, r5, r0, lsl #4
 ce0:	00001349 	andeq	r1, r0, r9, asr #6
 ce4:	0b002403 	bleq	9cf8 <shift+0x9cf8>
 ce8:	030b3e0b 	tsteq	fp, #11, 28	@ 0xb0
 cec:	0400000e 	streq	r0, [r0], #-14
 cf0:	193f012e 	ldmdbne	pc!, {r1, r2, r3, r5, r8}	@ <UNPREDICTABLE>
 cf4:	213a0e03 	teqcs	sl, r3, lsl #28
 cf8:	390b3b01 	stmdbcc	fp, {r0, r8, r9, fp, ip, sp}
 cfc:	19270621 	stmdbne	r7!, {r0, r5, r9, sl}
 d00:	06120111 			@ <UNDEFINED> instruction: 0x06120111
 d04:	197a1840 	ldmdbne	sl!, {r6, fp, ip}^
 d08:	00001301 	andeq	r1, r0, r1, lsl #6
 d0c:	3f012e05 	svccc	0x00012e05
 d10:	3a0e0319 	bcc	38197c <shift+0x38197c>
 d14:	390b3b0b 	stmdbcc	fp, {r0, r1, r3, r8, r9, fp, ip, sp}
 d18:	19270621 	stmdbne	r7!, {r0, r5, r9, sl}
 d1c:	1301193c 	tstne	r1, #60, 18	@ 0xf0000
 d20:	05060000 	streq	r0, [r6, #-0]
 d24:	3a0e0300 	bcc	38192c <shift+0x38192c>
 d28:	0b3b0121 	bleq	ec11b4 <shift+0xec11b4>
 d2c:	13490b39 	cmpne	r9, #58368	@ 0xe400
 d30:	00001802 	andeq	r1, r0, r2, lsl #16
 d34:	03001607 	tsteq	r0, #7340032	@ 0x700000
 d38:	02213a0e 	eoreq	r3, r1, #57344	@ 0xe000
 d3c:	0b390b3b 	bleq	e43a30 <shift+0xe43a30>
 d40:	00001349 	andeq	r1, r0, r9, asr #6
 d44:	49003508 	stmdbmi	r0, {r3, r8, sl, ip, sp}
 d48:	09000013 	stmdbeq	r0, {r0, r1, r4}
 d4c:	193f002e 	ldmdbne	pc!, {r1, r2, r3, r5}	@ <UNPREDICTABLE>
 d50:	213a0e03 	teqcs	sl, r3, lsl #28
 d54:	390b3b05 	stmdbcc	fp, {r0, r2, r8, r9, fp, ip, sp}
 d58:	19270621 	stmdbne	r7!, {r0, r5, r9, sl}
 d5c:	0000193c 	andeq	r1, r0, ip, lsr r9
 d60:	0300050a 	tsteq	r0, #41943040	@ 0x2800000
 d64:	01213a08 			@ <UNDEFINED> instruction: 0x01213a08
 d68:	0b390b3b 	bleq	e43a5c <shift+0xe43a5c>
 d6c:	18021349 	stmdane	r2, {r0, r3, r6, r8, r9, ip}
 d70:	0f0b0000 	svceq	0x000b0000
 d74:	04210b00 	strteq	r0, [r1], #-2816	@ 0xfffff500
 d78:	00001349 	andeq	r1, r0, r9, asr #6
 d7c:	3f002e0c 	svccc	0x00002e0c
 d80:	3a0e0319 	bcc	3819ec <shift+0x3819ec>
 d84:	0b3b0121 	bleq	ec1210 <shift+0xec1210>
 d88:	11062139 	tstne	r6, r9, lsr r1
 d8c:	40061201 	andmi	r1, r6, r1, lsl #4
 d90:	00197c18 	andseq	r7, r9, r8, lsl ip
 d94:	01110d00 	tsteq	r1, r0, lsl #26
 d98:	0b130e25 	bleq	4c4634 <shift+0x4c4634>
 d9c:	0e1b0e03 	cdpeq	14, 1, cr0, cr11, cr3, {0}
 da0:	06120111 			@ <UNDEFINED> instruction: 0x06120111
 da4:	00001710 	andeq	r1, r0, r0, lsl r7
 da8:	0b00240e 	bleq	9de8 <shift+0x9de8>
 dac:	030b3e0b 	tsteq	fp, #11, 28	@ 0xb0
 db0:	0f000008 	svceq	0x00000008
 db4:	13490026 	cmpne	r9, #38	@ 0x26
 db8:	13100000 	tstne	r0, #0
 dbc:	3a0b0b01 	bcc	2c39c8 <shift+0x2c39c8>
 dc0:	39053b0b 	stmdbcc	r5, {r0, r1, r3, r8, r9, fp, ip, sp}
 dc4:	0013010b 	andseq	r0, r3, fp, lsl #2
 dc8:	000d1100 	andeq	r1, sp, r0, lsl #2
 dcc:	0b3a0803 	bleq	e82de0 <shift+0xe82de0>
 dd0:	0b39053b 	bleq	e422c4 <shift+0xe422c4>
 dd4:	0b381349 	bleq	e05b00 <shift+0xe05b00>
 dd8:	01120000 	tsteq	r2, r0
 ddc:	01134901 	tsteq	r3, r1, lsl #18
 de0:	13000013 	tstne	r0, #19
 de4:	13490021 	cmpne	r9, #33	@ 0x21
 de8:	00000b2f 	andeq	r0, r0, pc, lsr #22
 dec:	03001614 	tsteq	r0, #20, 12	@ 0x1400000
 df0:	3b0b3a0e 	blcc	2cf630 <shift+0x2cf630>
 df4:	490b3905 	stmdbmi	fp, {r0, r2, r8, fp, ip, sp}
 df8:	15000013 	strne	r0, [r0, #-19]	@ 0xffffffed
 dfc:	193f002e 	ldmdbne	pc!, {r1, r2, r3, r5}	@ <UNPREDICTABLE>
 e00:	0b3a0e03 	bleq	e84614 <shift+0xe84614>
 e04:	0b390b3b 	bleq	e43af8 <shift+0xe43af8>
 e08:	06120111 			@ <UNDEFINED> instruction: 0x06120111
 e0c:	197a1840 	ldmdbne	sl!, {r6, fp, ip}^
 e10:	2e160000 	cdpcs	0, 1, cr0, cr6, cr0, {0}
 e14:	03193f00 	tsteq	r9, #0, 30
 e18:	3b0b3a0e 	blcc	2cf658 <shift+0x2cf658>
 e1c:	490b390b 	stmdbmi	fp, {r0, r1, r3, r8, fp, ip, sp}
 e20:	12011113 	andne	r1, r1, #-1073741820	@ 0xc0000004
 e24:	7a184006 	bvc	610e44 <shift+0x610e44>
 e28:	17000019 	smladne	r0, r9, r0, r0
 e2c:	193f012e 	ldmdbne	pc!, {r1, r2, r3, r5, r8}	@ <UNPREDICTABLE>
 e30:	0b3a0e03 	bleq	e84644 <shift+0xe84644>
 e34:	0b390b3b 	bleq	e43b28 <shift+0xe43b28>
 e38:	01111927 	tsteq	r1, r7, lsr #18
 e3c:	18400612 	stmdane	r0, {r1, r4, r9, sl}^
 e40:	1301197c 	tstne	r1, #124, 18	@ 0x1f0000
 e44:	01000000 	mrseq	r0, (UNDEF: 0)
 e48:	0b0b0024 	bleq	2c0ee0 <shift+0x2c0ee0>
 e4c:	0e030b3e 	vmoveq.16	d3[0], r0
 e50:	34020000 	strcc	r0, [r2], #-0
 e54:	3a0e0300 	bcc	381a5c <shift+0x381a5c>
 e58:	0b3b0121 	bleq	ec12e4 <shift+0xec12e4>
 e5c:	13490b39 	cmpne	r9, #58368	@ 0xe400
 e60:	00001802 	andeq	r1, r0, r2, lsl #16
 e64:	03001603 	tsteq	r0, #3145728	@ 0x300000
 e68:	3b0b3a0e 	blcc	2cf6a8 <shift+0x2cf6a8>
 e6c:	490b390b 	stmdbmi	fp, {r0, r1, r3, r8, fp, ip, sp}
 e70:	04000013 	streq	r0, [r0], #-19	@ 0xffffffed
 e74:	08030034 	stmdaeq	r3, {r2, r4, r5}
 e78:	3b01213a 	blcc	49368 <shift+0x49368>
 e7c:	490b390b 	stmdbmi	fp, {r0, r1, r3, r8, fp, ip, sp}
 e80:	00180213 	andseq	r0, r8, r3, lsl r2
 e84:	000f0500 	andeq	r0, pc, r0, lsl #10
 e88:	4904210b 	stmdbmi	r4, {r0, r1, r3, r8, sp}
 e8c:	06000013 			@ <UNDEFINED> instruction: 0x06000013
 e90:	08030005 	stmdaeq	r3, {r0, r2}
 e94:	3b01213a 	blcc	49384 <shift+0x49384>
 e98:	490b390b 	stmdbmi	fp, {r0, r1, r3, r8, fp, ip, sp}
 e9c:	00180213 	andseq	r0, r8, r3, lsl r2
 ea0:	010b0700 	tsteq	fp, r0, lsl #14
 ea4:	06120111 			@ <UNDEFINED> instruction: 0x06120111
 ea8:	11080000 	mrsne	r0, (UNDEF: 8)
 eac:	130e2501 	tstne	lr, #4194304	@ 0x400000
 eb0:	1b0e030b 	blne	381ae4 <shift+0x381ae4>
 eb4:	1201110e 	andne	r1, r1, #-2147483645	@ 0x80000003
 eb8:	00171006 	andseq	r1, r7, r6
 ebc:	00240900 	eoreq	r0, r4, r0, lsl #18
 ec0:	0b3e0b0b 	bleq	f83af4 <shift+0xf83af4>
 ec4:	00000803 	andeq	r0, r0, r3, lsl #16
 ec8:	4900260a 	stmdbmi	r0, {r1, r3, r9, sl, sp}
 ecc:	0b000013 	bleq	f20 <shift+0xf20>
 ed0:	13490101 	cmpne	r9, #1073741824	@ 0x40000000
 ed4:	00001301 	andeq	r1, r0, r1, lsl #6
 ed8:	4900210c 	stmdbmi	r0, {r2, r3, r8, sp}
 edc:	000b2f13 	andeq	r2, fp, r3, lsl pc
 ee0:	00340d00 	eorseq	r0, r4, r0, lsl #26
 ee4:	0b3a0e03 	bleq	e846f8 <shift+0xe846f8>
 ee8:	0b390b3b 	bleq	e43bdc <shift+0xe43bdc>
 eec:	193f1349 	ldmdbne	pc!, {r0, r3, r6, r8, r9, ip}	@ <UNPREDICTABLE>
 ef0:	00001802 	andeq	r1, r0, r2, lsl #16
 ef4:	3f012e0e 	svccc	0x00012e0e
 ef8:	3a0e0319 	bcc	381b64 <shift+0x381b64>
 efc:	390b3b0b 	stmdbcc	fp, {r0, r1, r3, r8, r9, fp, ip, sp}
 f00:	3c19270b 	ldccc	7, cr2, [r9], {11}
 f04:	00130119 	andseq	r0, r3, r9, lsl r1
 f08:	00050f00 	andeq	r0, r5, r0, lsl #30
 f0c:	00001349 	andeq	r1, r0, r9, asr #6
 f10:	3f012e10 	svccc	0x00012e10
 f14:	3a0e0319 	bcc	381b80 <shift+0x381b80>
 f18:	390b3b0b 	stmdbcc	fp, {r0, r1, r3, r8, r9, fp, ip, sp}
 f1c:	1119270b 	tstne	r9, fp, lsl #14
 f20:	40061201 	andmi	r1, r6, r1, lsl #4
 f24:	01197c18 	tsteq	r9, r8, lsl ip
 f28:	11000013 	tstne	r0, r3, lsl r0
 f2c:	00000018 	andeq	r0, r0, r8, lsl r0
 f30:	55010b12 	strpl	r0, [r1, #-2834]	@ 0xfffff4ee
 f34:	13000017 	tstne	r0, #23
 f38:	193f012e 	ldmdbne	pc!, {r1, r2, r3, r5, r8}	@ <UNPREDICTABLE>
 f3c:	0b3a0e03 	bleq	e84750 <shift+0xe84750>
 f40:	0b390b3b 	bleq	e43c34 <shift+0xe43c34>
 f44:	01111927 	tsteq	r1, r7, lsr #18
 f48:	18400612 	stmdane	r0, {r1, r4, r9, sl}^
 f4c:	0000197c 	andeq	r1, r0, ip, ror r9
 f50:	01110100 	tsteq	r1, r0, lsl #2
 f54:	01111710 	tsteq	r1, r0, lsl r7
 f58:	0e030f12 	mcreq	15, 0, r0, cr3, cr2, {0}
 f5c:	0e250e1b 	mcreq	14, 1, r0, cr5, cr11, {0}
 f60:	00000513 	andeq	r0, r0, r3, lsl r5
 f64:	03002e02 	tsteq	r0, #2, 28
 f68:	49193f0e 	ldmdbmi	r9, {r1, r2, r3, r8, r9, sl, fp, ip, sp}
 f6c:	12011115 	andne	r1, r1, #1073741829	@ 0x40000005
 f70:	0300000f 	tsteq	r0, #15
 f74:	0000003b 	andeq	r0, r0, fp, lsr r0
 f78:	01110100 	tsteq	r1, r0, lsl #2
 f7c:	01111710 	tsteq	r1, r0, lsl r7
 f80:	0e030f12 	mcreq	15, 0, r0, cr3, cr2, {0}
 f84:	0e250e1b 	mcreq	14, 1, r0, cr5, cr11, {0}
 f88:	00000513 	andeq	r0, r0, r3, lsl r5
 f8c:	03002e02 	tsteq	r0, #2, 28
 f90:	1115490e 	tstne	r5, lr, lsl #18
 f94:	000f1201 	andeq	r1, pc, r1, lsl #4
 f98:	003b0300 	eorseq	r0, fp, r0, lsl #6
 f9c:	Address 0xf9c is out of bounds.


Disassembly of section .debug_aranges:

00000000 <.debug_aranges>:
   0:	0000001c 	andeq	r0, r0, ip, lsl r0
   4:	00000002 	andeq	r0, r0, r2
   8:	00040000 	andeq	r0, r4, r0
   c:	00000000 	andeq	r0, r0, r0
  10:	87800acc 	strhi	r0, [r0, ip, asr #21]
  14:	00000544 	andeq	r0, r0, r4, asr #10
	...
  20:	0000001c 	andeq	r0, r0, ip, lsl r0
  24:	02c30002 	sbceq	r0, r3, #2
  28:	00040000 	andeq	r0, r4, r0
  2c:	00000000 	andeq	r0, r0, r0
  30:	87801010 	usada8hi	r0, r0, r0, r1
  34:	000000ac 	andeq	r0, r0, ip, lsr #1
	...
  40:	0000001c 	andeq	r0, r0, ip, lsl r0
  44:	04000002 	streq	r0, [r0], #-2
  48:	00040000 	andeq	r0, r4, r0
  4c:	00000000 	andeq	r0, r0, r0
  50:	878010bc 			@ <UNDEFINED> instruction: 0x878010bc
  54:	0000012c 	andeq	r0, r0, ip, lsr #2
	...
  60:	0000001c 	andeq	r0, r0, ip, lsl r0
  64:	057e0002 	ldrbeq	r0, [lr, #-2]!
  68:	00040000 	andeq	r0, r4, r0
  6c:	00000000 	andeq	r0, r0, r0
  70:	878011e8 	strhi	r1, [r0, r8, ror #3]
  74:	000004a0 	andeq	r0, r0, r0, lsr #9
	...
  80:	0000001c 	andeq	r0, r0, ip, lsl r0
  84:	0c970002 	ldceq	0, cr0, [r7], {2}
  88:	00040000 	andeq	r0, r4, r0
  8c:	00000000 	andeq	r0, r0, r0
  90:	87801688 	strhi	r1, [r0, r8, lsl #13]
  94:	00000588 	andeq	r0, r0, r8, lsl #11
	...
  a0:	0000001c 	andeq	r0, r0, ip, lsl r0
  a4:	18f20002 	ldmne	r2!, {r1}^
  a8:	00040000 	andeq	r0, r4, r0
  ac:	00000000 	andeq	r0, r0, r0
  b0:	87801c10 	usada8hi	r0, r0, ip, r1
  b4:	00000080 	andeq	r0, r0, r0, lsl #1
	...
  c0:	0000001c 	andeq	r0, r0, ip, lsl r0
  c4:	19980002 	ldmibne	r8, {r1}
  c8:	00040000 	andeq	r0, r4, r0
  cc:	00000000 	andeq	r0, r0, r0
  d0:	87801c90 			@ <UNDEFINED> instruction: 0x87801c90
  d4:	0000029c 	muleq	r0, ip, r2
	...
  e0:	0000001c 	andeq	r0, r0, ip, lsl r0
  e4:	248f0002 	strcs	r0, [pc], #2	@ ec <shift+0xec>
  e8:	00040000 	andeq	r0, r4, r0
  ec:	00000000 	andeq	r0, r0, r0
  f0:	87801f2c 	strhi	r1, [r0, ip, lsr #30]
  f4:	000001ec 	andeq	r0, r0, ip, ror #3
	...
 100:	0000001c 	andeq	r0, r0, ip, lsl r0
 104:	30ef0002 	rsccc	r0, pc, r2
 108:	00040000 	andeq	r0, r4, r0
 10c:	00000000 	andeq	r0, r0, r0
 110:	87802118 	usada8hi	r0, r8, r1, r2
 114:	0000012c 	andeq	r0, r0, ip, lsr #2
	...
 120:	0000001c 	andeq	r0, r0, ip, lsl r0
 124:	326d0002 	rsbcc	r0, sp, #2
 128:	00040000 	andeq	r0, r4, r0
 12c:	00000000 	andeq	r0, r0, r0
 130:	87802244 	strhi	r2, [r0, r4, asr #4]
 134:	00000360 	andeq	r0, r0, r0, ror #6
	...
 140:	0000001c 	andeq	r0, r0, ip, lsl r0
 144:	35880002 	strcc	r0, [r8, #2]
 148:	00040000 	andeq	r0, r4, r0
 14c:	00000000 	andeq	r0, r0, r0
 150:	878025a4 	strhi	r2, [r0, r4, lsr #11]
 154:	00000290 	muleq	r0, r0, r2
	...
 160:	0000001c 	andeq	r0, r0, ip, lsl r0
 164:	374c0002 	strbcc	r0, [ip, -r2]
 168:	00040000 	andeq	r0, r4, r0
 16c:	00000000 	andeq	r0, r0, r0
 170:	87802834 			@ <UNDEFINED> instruction: 0x87802834
 174:	0000020c 	andeq	r0, r0, ip, lsl #4
	...
 180:	0000001c 	andeq	r0, r0, ip, lsl r0
 184:	378a0002 	strcc	r0, [sl, r2]
 188:	00040000 	andeq	r0, r4, r0
 18c:	00000000 	andeq	r0, r0, r0
 190:	87802a40 	strhi	r2, [r0, r0, asr #20]
 194:	00000010 	andeq	r0, r0, r0, lsl r0
	...

Disassembly of section .debug_line:

00000000 <.debug_line>:
   0:	000001e7 	andeq	r0, r0, r7, ror #3
   4:	002b0003 	eoreq	r0, fp, r3
   8:	01020000 	mrseq	r0, (UNDEF: 2)
   c:	000d0efb 	strdeq	r0, [sp], -fp
  10:	01010101 	tsteq	r1, r1, lsl #2
  14:	01000000 	mrseq	r0, (UNDEF: 0)
  18:	6c010000 	stcvs	0, cr0, [r1], {-0}
  1c:	00006269 	andeq	r6, r0, r9, ror #4
  20:	6f697067 	svcvs	0x00697067
  24:	0100632e 	tsteq	r0, lr, lsr #6
  28:	79740000 	ldmdbvc	r4!, {}^	@ <UNPREDICTABLE>
  2c:	682e6570 	stmdavs	lr!, {r4, r5, r6, r8, sl, sp, lr}
  30:	00000100 	andeq	r0, r0, r0, lsl #2
  34:	00480500 	subeq	r0, r8, r0, lsl #10
  38:	0acc0205 	beq	ff300854 <__bss_end+0x77afd810>
  3c:	05148780 	ldreq	r8, [r4, #-1920]	@ 0xfffff880
  40:	0705bb0e 	streq	fp, [r5, -lr, lsl #22]
  44:	4b0d052e 	blmi	341504 <shift+0x341504>
  48:	054a1a05 	strbeq	r1, [sl, #-2565]	@ 0xfffff5fb
  4c:	29056614 	stmdbcs	r5, {r2, r4, r9, sl, sp, lr}
  50:	2e090567 	cdpcs	5, 0, cr0, cr9, cr7, {3}
  54:	05a10d05 	streq	r0, [r1, #3333]!	@ 0xd05
  58:	17054a1b 	smladne	r5, fp, sl, r4
  5c:	2e140566 	cdpcs	5, 1, cr0, cr4, cr6, {3}
  60:	00682505 	rsbeq	r2, r8, r5, lsl #10
  64:	06010402 	streq	r0, [r1], -r2, lsl #8
  68:	04020066 	streq	r0, [r2], #-102	@ 0xffffff9a
  6c:	0e056602 	cdpeq	6, 0, cr6, cr5, cr2, {0}
  70:	04040200 	streq	r0, [r4], #-512	@ 0xfffffe00
  74:	07052e06 	streq	r2, [r5, -r6, lsl #28]
  78:	67160530 			@ <UNDEFINED> instruction: 0x67160530
  7c:	052e0905 	streq	r0, [lr, #-2309]!	@ 0xfffff6fb
  80:	2f05f415 	svccs	0x0005f415
  84:	4a25054a 	bmi	9415b4 <shift+0x9415b4>
  88:	054a1f05 	strbeq	r1, [sl, #-3845]	@ 0xfffff0fb
  8c:	15052e1c 	strne	r2, [r5, #-3612]	@ 0xfffff1e4
  90:	4a1c0567 	bmi	701634 <shift+0x701634>
  94:	054b1105 	strbeq	r1, [fp, #-261]	@ 0xfffffefb
  98:	2f053015 	svccs	0x00053015
  9c:	4a25054a 	bmi	9415cc <shift+0x9415cc>
  a0:	054a1f05 	strbeq	r1, [sl, #-3845]	@ 0xfffff0fb
  a4:	15052e1c 	strne	r2, [r5, #-3612]	@ 0xfffff1e4
  a8:	4a2f0567 	bmi	bc164c <shift+0xbc164c>
  ac:	054a2505 	strbeq	r2, [sl, #-1285]	@ 0xfffffafb
  b0:	11054a1c 	tstne	r5, ip, lsl sl
  b4:	30150567 	andscc	r0, r5, r7, ror #10
  b8:	054a2f05 	strbeq	r2, [sl, #-3845]	@ 0xfffff0fb
  bc:	1f054a25 	svcne	0x00054a25
  c0:	2e1c054a 	cdpcs	5, 1, cr0, cr12, cr10, {2}
  c4:	05671505 	strbeq	r1, [r7, #-1285]!	@ 0xfffffafb
  c8:	24054a2e 	strcs	r4, [r5], #-2606	@ 0xfffff5d2
  cc:	4a1c054a 	bmi	7015fc <shift+0x7015fc>
  d0:	05671105 	strbeq	r1, [r7, #-261]!	@ 0xfffffefb
  d4:	2f053015 	svccs	0x00053015
  d8:	4a25054a 	bmi	941608 <shift+0x941608>
  dc:	054a1f05 	strbeq	r1, [sl, #-3845]	@ 0xfffff0fb
  e0:	15052e1c 	strne	r2, [r5, #-3612]	@ 0xfffff1e4
  e4:	4a2e0567 	bmi	b81688 <shift+0xb81688>
  e8:	054a2405 	strbeq	r2, [sl, #-1029]	@ 0xfffffbfb
  ec:	11054a1c 	tstne	r5, ip, lsl sl
  f0:	30150567 	andscc	r0, r5, r7, ror #10
  f4:	054a2605 	strbeq	r2, [sl, #-1541]	@ 0xfffff9fb
  f8:	11056620 	tstne	r5, r0, lsr #12
  fc:	34160567 	ldrcc	r0, [r6], #-1383	@ 0xfffffa99
 100:	052e0905 	streq	r0, [lr, #-2309]!	@ 0xfffff6fb
 104:	2f05f415 	svccs	0x0005f415
 108:	4a25054a 	bmi	941638 <shift+0x941638>
 10c:	054a1f05 	strbeq	r1, [sl, #-3845]	@ 0xfffff0fb
 110:	15052e1c 	strne	r2, [r5, #-3612]	@ 0xfffff1e4
 114:	4a1c0567 	bmi	7016b8 <shift+0x7016b8>
 118:	054b1105 	strbeq	r1, [fp, #-261]	@ 0xfffffefb
 11c:	2f053015 	svccs	0x00053015
 120:	4a25054a 	bmi	941650 <shift+0x941650>
 124:	054a1f05 	strbeq	r1, [sl, #-3845]	@ 0xfffff0fb
 128:	15052e1c 	strne	r2, [r5, #-3612]	@ 0xfffff1e4
 12c:	4a2f0567 	bmi	bc16d0 <shift+0xbc16d0>
 130:	054a2505 	strbeq	r2, [sl, #-1285]	@ 0xfffffafb
 134:	11054a1c 	tstne	r5, ip, lsl sl
 138:	30150567 	andscc	r0, r5, r7, ror #10
 13c:	054a2f05 	strbeq	r2, [sl, #-3845]	@ 0xfffff0fb
 140:	1f054a25 	svcne	0x00054a25
 144:	2e1c054a 	cdpcs	5, 1, cr0, cr12, cr10, {2}
 148:	05671505 	strbeq	r1, [r7, #-1285]!	@ 0xfffffafb
 14c:	24054a2e 	strcs	r4, [r5], #-2606	@ 0xfffff5d2
 150:	4a1c054a 	bmi	701680 <shift+0x701680>
 154:	05671105 	strbeq	r1, [r7, #-261]!	@ 0xfffffefb
 158:	2f053015 	svccs	0x00053015
 15c:	4a25054a 	bmi	94168c <shift+0x94168c>
 160:	054a1f05 	strbeq	r1, [sl, #-3845]	@ 0xfffff0fb
 164:	15052e1c 	strne	r2, [r5, #-3612]	@ 0xfffff1e4
 168:	4a2e0567 	bmi	b8170c <shift+0xb8170c>
 16c:	054a2405 	strbeq	r2, [sl, #-1029]	@ 0xfffffbfb
 170:	11054a1c 	tstne	r5, ip, lsl sl
 174:	30150567 	andscc	r0, r5, r7, ror #10
 178:	054a2605 	strbeq	r2, [sl, #-1541]	@ 0xfffff9fb
 17c:	11056620 	tstne	r5, r0, lsr #12
 180:	2e690367 	cdpcs	3, 6, cr0, cr9, cr7, {3}
 184:	054a1903 	strbeq	r1, [sl, #-2307]	@ 0xfffff6fd
 188:	1105310a 	tstne	r5, sl, lsl #2
 18c:	4b01052e 	blmi	4164c <shift+0x4164c>
 190:	bb0d05bd 	bllt	34188c <shift+0x34188c>
 194:	054a1a05 	strbeq	r1, [sl, #-2565]	@ 0xfffff5fb
 198:	15056622 	strne	r6, [r5, #-1570]	@ 0xfffff9de
 19c:	2e070582 	cdpcs	5, 0, cr0, cr7, cr2, {4}
 1a0:	670d054b 	strvs	r0, [sp, -fp, asr #10]
 1a4:	054a1805 	strbeq	r1, [sl, #-2053]	@ 0xfffff7fb
 1a8:	0d056612 	stceq	6, cr6, [r5, #-72]	@ 0xffffffb8
 1ac:	4a190585 	bmi	6417c8 <shift+0x6417c8>
 1b0:	05661505 	strbeq	r1, [r6, #-1285]!	@ 0xfffffafb
 1b4:	28052e12 	stmdacs	r5, {r1, r4, r9, sl, fp, sp}
 1b8:	3501057d 	strcc	r0, [r1, #-1405]	@ 0xfffffa83
 1bc:	9f090569 	svcls	0x00090569
 1c0:	054a1505 	strbeq	r1, [sl, #-1285]	@ 0xfffffafb
 1c4:	0105660f 	tsteq	r5, pc, lsl #12
 1c8:	09058567 	stmdbeq	r5, {r0, r1, r2, r5, r6, r8, sl, pc}
 1cc:	4a16059f 	bmi	581850 <shift+0x581850>
 1d0:	05661205 	strbeq	r1, [r6, #-517]!	@ 0xfffffdfb
 1d4:	01052e0f 	tsteq	r5, pc, lsl #28
 1d8:	09058567 	stmdbeq	r5, {r0, r1, r2, r5, r6, r8, sl, pc}
 1dc:	4a15059f 	bmi	541860 <shift+0x541860>
 1e0:	05660f05 	strbeq	r0, [r6, #-3845]!	@ 0xfffff0fb
 1e4:	08026701 	stmdaeq	r2, {r0, r8, r9, sl, sp, lr}
 1e8:	6e010100 	cdpvs	1, 0, cr0, cr1, cr0, {0}
 1ec:	03000000 	tsteq	r0, #0
 1f0:	00002a00 	andeq	r2, r0, r0, lsl #20
 1f4:	fb010200 	blx	409fe <shift+0x409fe>
 1f8:	01000d0e 	tsteq	r0, lr, lsl #26
 1fc:	00010101 	andeq	r0, r1, r1, lsl #2
 200:	00010000 	andeq	r0, r1, r0
 204:	696c0100 	stmdbvs	ip!, {r8}^
 208:	70000062 	andvc	r0, r0, r2, rrx
 20c:	632e6e69 			@ <UNDEFINED> instruction: 0x632e6e69
 210:	00000100 	andeq	r0, r0, r0, lsl #2
 214:	65707974 	ldrbvs	r7, [r0, #-2420]!	@ 0xfffff68c
 218:	0100682e 	tsteq	r0, lr, lsr #16
 21c:	05000000 	streq	r0, [r0, #-0]
 220:	02050001 	andeq	r0, r5, #1
 224:	87801010 	usada8hi	r0, r0, r0, r1
 228:	05011d03 	streq	r1, [r1, #-3331]	@ 0xfffff2fd
 22c:	3305d809 	tstcc	r5, #589824	@ 0x90000
 230:	6507054a 	strvs	r0, [r7, #-1354]	@ 0xfffffab6
 234:	052f3105 	streq	r3, [pc, #-261]!	@ 137 <shift+0x137>
 238:	08052d29 	stmdaeq	r5, {r0, r3, r5, r8, sl, fp, sp}
 23c:	680b0531 	stmdavs	fp, {r0, r4, r5, r8, sl}
 240:	052e3105 	streq	r3, [lr, #-261]!	@ 0xfffffefb
 244:	01054a2f 	tsteq	r5, pc, lsr #20
 248:	82180330 	andshi	r0, r8, #48, 6	@ 0xc0000000
 24c:	05d70805 	ldrbeq	r0, [r7, #2053]	@ 0x805
 250:	3005680b 	andcc	r6, r5, fp, lsl #16
 254:	4c01052e 	stcmi	5, cr0, [r1], {46}	@ 0x2e
 258:	01000802 	tsteq	r0, r2, lsl #16
 25c:	00008e01 	andeq	r8, r0, r1, lsl #28
 260:	3d000300 	stccc	3, cr0, [r0, #-0]
 264:	02000000 	andeq	r0, r0, #0
 268:	0d0efb01 	vstreq	d15, [lr, #-4]
 26c:	01010100 	mrseq	r0, (UNDEF: 17)
 270:	00000001 	andeq	r0, r0, r1
 274:	01000001 	tsteq	r0, r1
 278:	2f707362 	svccs	0x00707362
 27c:	70656562 	rsbvc	r6, r5, r2, ror #10
 280:	62696c00 	rsbvs	r6, r9, #0, 24
 284:	65620000 	strbvs	r0, [r2, #-0]!
 288:	632e7065 			@ <UNDEFINED> instruction: 0x632e7065
 28c:	00000100 	andeq	r0, r0, r0, lsl #2
 290:	65707974 	ldrbvs	r7, [r0, #-2420]!	@ 0xfffff68c
 294:	0200682e 	andeq	r6, r0, #3014656	@ 0x2e0000
 298:	69700000 	ldmdbvs	r0!, {}^	@ <UNPREDICTABLE>
 29c:	00682e6e 	rsbeq	r2, r8, lr, ror #28
 2a0:	00000002 	andeq	r0, r0, r2
 2a4:	05000105 	streq	r0, [r0, #-261]	@ 0xfffffefb
 2a8:	8010bc02 	andshi	fp, r0, r2, lsl #24
 2ac:	05051587 	streq	r1, [r5, #-1415]	@ 0xfffffa79
 2b0:	05210867 	streq	r0, [r1, #-2151]!	@ 0xfffff799
 2b4:	0521080a 	streq	r0, [r1, #-2058]!	@ 0xfffff7f6
 2b8:	0a056611 	beq	159b04 <shift+0x159b04>
 2bc:	660f054b 	strvs	r0, [pc], -fp, asr #10
 2c0:	d94b0105 	stmdble	fp, {r0, r2, r8}^
 2c4:	054b0a05 	strbeq	r0, [fp, #-2565]	@ 0xfffff5fb
 2c8:	0105660f 	tsteq	r5, pc, lsl #12
 2cc:	0a05a14b 	beq	168800 <shift+0x168800>
 2d0:	660f054b 	strvs	r0, [pc], -fp, asr #10
 2d4:	a14b0105 	cmpge	fp, r5, lsl #2
 2d8:	054b0805 	strbeq	r0, [fp, #-2053]	@ 0xfffff7fb
 2dc:	09056607 	stmdbeq	r5, {r0, r1, r2, r9, sl, sp, lr}
 2e0:	3101054b 	tstcc	r1, fp, asr #10
 2e4:	052d0905 	streq	r0, [sp, #-2309]!	@ 0xfffff6fb
 2e8:	06022f01 	streq	r2, [r2], -r1, lsl #30
 2ec:	9b010100 	blls	406f4 <shift+0x406f4>
 2f0:	03000001 	tsteq	r0, #1
 2f4:	00003600 	andeq	r3, r0, r0, lsl #12
 2f8:	fb010200 	blx	40b02 <shift+0x40b02>
 2fc:	01000d0e 	tsteq	r0, lr, lsl #26
 300:	00010101 	andeq	r0, r1, r1, lsl #2
 304:	00010000 	andeq	r0, r1, r0
 308:	73620100 	cmnvc	r2, #0, 2
 30c:	6c632f70 	stclvs	15, cr2, [r3], #-448	@ 0xfffffe40
 310:	006b636f 	rsbeq	r6, fp, pc, ror #6
 314:	0062696c 	rsbeq	r6, r2, ip, ror #18
 318:	6f6c6300 	svcvs	0x006c6300
 31c:	632e6b63 			@ <UNDEFINED> instruction: 0x632e6b63
 320:	00000100 	andeq	r0, r0, r0, lsl #2
 324:	65707974 	ldrbvs	r7, [r0, #-2420]!	@ 0xfffff68c
 328:	0200682e 	andeq	r6, r0, #3014656	@ 0x2e0000
 32c:	05000000 	streq	r0, [r0, #-0]
 330:	02050001 	andeq	r0, r5, #1
 334:	878011e8 	strhi	r1, [r0, r8, ror #3]
 338:	4b080516 	blmi	201798 <shift+0x201798>
 33c:	052e1005 	streq	r1, [lr, #-5]!
 340:	10054b08 	andne	r4, r5, r8, lsl #22
 344:	4b08052e 	blmi	201804 <shift+0x201804>
 348:	052e1005 	streq	r1, [lr, #-5]!
 34c:	10054b08 	andne	r4, r5, r8, lsl #22
 350:	4b08052e 	blmi	201810 <shift+0x201810>
 354:	052e1005 	streq	r1, [lr, #-5]!
 358:	10054b08 	andne	r4, r5, r8, lsl #22
 35c:	4b08052e 	blmi	20181c <shift+0x20181c>
 360:	052e1005 	streq	r1, [lr, #-5]!
 364:	05a14b01 	streq	r4, [r1, #2817]!	@ 0xb01
 368:	08059f10 	stmdaeq	r5, {r4, r8, r9, sl, fp, ip, pc}
 36c:	2f057408 	svccs	0x00057408
 370:	4a0f054e 	bmi	3c18b0 <shift+0x3c18b0>
 374:	05670505 	strbeq	r0, [r7, #-1285]!	@ 0xfffffafb
 378:	10054a19 	andne	r4, r5, r9, lsl sl
 37c:	4a0a054a 	bmi	2818ac <shift+0x2818ac>
 380:	057f0905 	ldrbeq	r0, [pc, #-2309]!	@ fffffa83 <__bss_end+0x787fca3f>
 384:	05853201 	streq	r3, [r5, #513]	@ 0x201
 388:	08059f10 	stmdaeq	r5, {r4, r8, r9, sl, fp, ip, pc}
 38c:	2f057408 	svccs	0x00057408
 390:	4a0f054e 	bmi	3c18d0 <shift+0x3c18d0>
 394:	05670505 	strbeq	r0, [r7, #-1285]!	@ 0xfffffafb
 398:	11054a1a 	tstne	r5, sl, lsl sl
 39c:	4a0d054a 	bmi	3418cc <shift+0x3418cc>
 3a0:	052e0a05 	streq	r0, [lr, #-2565]!	@ 0xfffff5fb
 3a4:	01057f09 	tsteq	r5, r9, lsl #30
 3a8:	2b058532 	blcs	161878 <shift+0x161878>
 3ac:	4a0e0586 	bmi	3819cc <shift+0x3819cc>
 3b0:	05830b05 	streq	r0, [r3, #2821]	@ 0xb05
 3b4:	0e054e1e 	mcreq	14, 0, r4, cr5, cr14, {0}
 3b8:	5009052e 	andpl	r0, r9, lr, lsr #10
 3bc:	05670c05 	strbeq	r0, [r7, #-3077]!	@ 0xfffff3fb
 3c0:	0f054a09 	svceq	0x00054a09
 3c4:	2e190567 	cdpcs	5, 1, cr0, cr9, cr7, {3}
 3c8:	054b0805 	strbeq	r0, [fp, #-2053]	@ 0xfffff7fb
 3cc:	0a052e10 	beq	14bc14 <shift+0x14bc14>
 3d0:	000e054b 	andeq	r0, lr, fp, asr #10
 3d4:	2e010402 	cdpcs	4, 0, cr0, cr1, cr2, {0}
 3d8:	02001705 	andeq	r1, r0, #1310720	@ 0x140000
 3dc:	054a0104 	strbeq	r0, [sl, #-260]	@ 0xfffffefc
 3e0:	0402000b 	streq	r0, [r2], #-11
 3e4:	08052e01 	stmdaeq	r5, {r0, r9, sl, fp, sp}
 3e8:	660f054c 	strvs	r0, [pc], -ip, asr #10
 3ec:	054b0805 	strbeq	r0, [fp, #-2053]	@ 0xfffff7fb
 3f0:	0105660f 	tsteq	r5, pc, lsl #12
 3f4:	1e05d94b 			@ <UNDEFINED> instruction: 0x1e05d94b
 3f8:	2e0e0567 	cdpcs	5, 0, cr0, cr14, cr7, {3}
 3fc:	834b0905 	cmphi	fp, #81920	@ 0x14000
 400:	05830f05 	streq	r0, [r3, #3845]	@ 0xf05
 404:	01052e19 	tsteq	r5, r9, lsl lr
 408:	1e05d94b 			@ <UNDEFINED> instruction: 0x1e05d94b
 40c:	2e0e0567 	cdpcs	5, 0, cr0, cr14, cr7, {3}
 410:	834b0905 	cmphi	fp, #81920	@ 0x14000
 414:	05830f05 	streq	r0, [r3, #3845]	@ 0xf05
 418:	01052e19 	tsteq	r5, r9, lsl lr
 41c:	1b05d94b 	blne	176950 <shift+0x176950>
 420:	2e0e0567 	cdpcs	5, 0, cr0, cr14, cr7, {3}
 424:	674b0d05 	strbvs	r0, [fp, -r5, lsl #26]
 428:	05670805 	strbeq	r0, [r7, #-2053]!	@ 0xfffff7fb
 42c:	12052e10 	andne	r2, r5, #16, 28	@ 0x100
 430:	2e0d054c 	cdpcs	5, 0, cr0, cr13, cr12, {2}
 434:	0567684b 	strbeq	r6, [r7, #-2123]!	@ 0xfffff7b5
 438:	10056708 	andne	r6, r5, r8, lsl #14
 43c:	4b0a052e 	blmi	2818fc <shift+0x2818fc>
 440:	02000e05 	andeq	r0, r0, #5, 28	@ 0x50
 444:	052e0104 	streq	r0, [lr, #-260]!	@ 0xfffffefc
 448:	04020017 	streq	r0, [r2], #-23	@ 0xffffffe9
 44c:	0b054a01 	bleq	152c58 <shift+0x152c58>
 450:	01040200 	mrseq	r0, R12_usr
 454:	4b01052e 	blmi	41914 <shift+0x41914>
 458:	671b05bd 			@ <UNDEFINED> instruction: 0x671b05bd
 45c:	052e0e05 	streq	r0, [lr, #-3589]!	@ 0xfffff1fb
 460:	05674b0d 	strbeq	r4, [r7, #-2829]!	@ 0xfffff4f3
 464:	10056708 	andne	r6, r5, r8, lsl #14
 468:	4b01052e 	blmi	41928 <shift+0x41928>
 46c:	671b05a1 	ldrvs	r0, [fp, -r1, lsr #11]
 470:	052e0e05 	streq	r0, [lr, #-3589]!	@ 0xfffff1fb
 474:	05674b0d 	strbeq	r4, [r7, #-2829]!	@ 0xfffff4f3
 478:	11056708 	tstne	r5, r8, lsl #14
 47c:	4b01052e 	blmi	4193c <shift+0x4193c>
 480:	4b0505a1 	blmi	141b0c <shift+0x141b0c>
 484:	01052f2f 	tsteq	r5, pc, lsr #30
 488:	0004022f 	andeq	r0, r4, pc, lsr #4
 48c:	028b0101 	addeq	r0, fp, #1073741824	@ 0x40000000
 490:	00030000 	andeq	r0, r3, r0
 494:	0000009d 	muleq	r0, sp, r0
 498:	0efb0102 	cdpeq	1, 15, cr0, cr11, cr2, {0}
 49c:	0101000d 	tsteq	r1, sp
 4a0:	00000101 	andeq	r0, r0, r1, lsl #2
 4a4:	00000100 	andeq	r0, r0, r0, lsl #2
 4a8:	70736201 	rsbsvc	r6, r3, r1, lsl #4
 4ac:	6970652f 	ldmdbvs	r0!, {r0, r1, r2, r3, r5, r8, sl, sp, lr}^
 4b0:	696c0074 	stmdbvs	ip!, {r2, r4, r5, r6}^
 4b4:	73620062 	cmnvc	r2, #98	@ 0x62
 4b8:	6e692f70 	mcrvs	15, 3, r2, cr9, cr0, {3}
 4bc:	73620074 	cmnvc	r2, #116	@ 0x74
 4c0:	61752f70 	cmnvs	r5, r0, ror pc
 4c4:	62007472 	andvs	r7, r0, #1912602624	@ 0x72000000
 4c8:	662f7073 			@ <UNDEFINED> instruction: 0x662f7073
 4cc:	00636e75 	rsbeq	r6, r3, r5, ror lr
 4d0:	2f707362 	svccs	0x00707362
 4d4:	70656562 	rsbvc	r6, r5, r2, ror #10
 4d8:	70736200 	rsbsvc	r6, r3, r0, lsl #4
 4dc:	64656c2f 	strbtvs	r6, [r5], #-3119	@ 0xfffff3d1
 4e0:	70650000 	rsbvc	r0, r5, r0
 4e4:	632e7469 			@ <UNDEFINED> instruction: 0x632e7469
 4e8:	00000100 	andeq	r0, r0, r0, lsl #2
 4ec:	65726f63 	ldrbvs	r6, [r2, #-3939]!	@ 0xfffff09d
 4f0:	2e37615f 	mrccs	1, 1, r6, cr7, cr15, {2}
 4f4:	00020068 	andeq	r0, r2, r8, rrx
 4f8:	70797400 	rsbsvc	r7, r9, r0, lsl #8
 4fc:	00682e65 	rsbeq	r2, r8, r5, ror #28
 500:	69000002 	stmdbvs	r0, {r1}
 504:	682e746e 	stmdavs	lr!, {r1, r2, r3, r5, r6, sl, ip, sp, lr}
 508:	00000300 	andeq	r0, r0, r0, lsl #6
 50c:	74726175 	ldrbtvc	r6, [r2], #-373	@ 0xfffffe8b
 510:	0400682e 	streq	r6, [r0], #-2094	@ 0xfffff7d2
 514:	65640000 	strbvs	r0, [r4, #-0]!
 518:	2e79616c 	cdpcs	1, 7, cr6, cr9, cr12, {3}
 51c:	00050068 	andeq	r0, r5, r8, rrx
 520:	65656200 	strbvs	r6, [r5, #-512]!	@ 0xfffffe00
 524:	00682e70 	rsbeq	r2, r8, r0, ror lr
 528:	6c000006 	stcvs	0, cr0, [r0], {6}
 52c:	682e6465 	stmdavs	lr!, {r0, r2, r5, r6, sl, sp, lr}
 530:	00000700 	andeq	r0, r0, r0, lsl #14
 534:	00010500 	andeq	r0, r1, r0, lsl #10
 538:	16880205 	strne	r0, [r8], r5, lsl #4
 53c:	09038780 	stmdbeq	r3, {r7, r8, r9, sl, pc}
 540:	9f070501 	svcls	0x00070501
 544:	05680a05 	strbeq	r0, [r8, #-2565]!	@ 0xfffff5fb
 548:	0a05660f 	beq	159d8c <shift+0x159d8c>
 54c:	4a12054b 	bmi	481a80 <shift+0x481a80>
 550:	05660a05 	strbeq	r0, [r6, #-2565]!	@ 0xfffff5fb
 554:	0a052e0f 	beq	14bd98 <shift+0x14bd98>
 558:	660f054b 	strvs	r0, [pc], -fp, asr #10
 55c:	054b0a05 	strbeq	r0, [fp, #-2565]	@ 0xfffff5fb
 560:	0a05660f 	beq	159da4 <shift+0x159da4>
 564:	660f054b 	strvs	r0, [pc], -fp, asr #10
 568:	054c0a05 	strbeq	r0, [ip, #-2565]	@ 0xfffff5fb
 56c:	0a052e0f 	beq	14bdb0 <shift+0x14bdb0>
 570:	2e11054b 	cdpcs	5, 1, cr0, cr1, cr11, {2}
 574:	0a050204 	beq	140d8c <shift+0x140d8c>
 578:	8203ed03 	andhi	lr, r3, #3, 26	@ 0xc0
 57c:	02002d05 	andeq	r2, r0, #320	@ 0x140
 580:	ea030104 	b	c0998 <shift+0xc0998>
 584:	0d058200 	stceq	2, cr8, [r5, #-0]
 588:	01040200 	mrseq	r0, R12_usr
 58c:	304a054a 	subcc	r0, sl, sl, asr #10
 590:	052e6305 	streq	r6, [lr, #-773]!	@ 0xfffffcfb
 594:	2e052e15 	mcrcs	14, 0, r2, cr5, cr5, {0}
 598:	2e45052e 	cdpcs	5, 4, cr0, cr5, cr14, {1}
 59c:	054a3405 	strbeq	r3, [sl, #-1029]	@ 0xfffffbfb
 5a0:	01046701 	tsteq	r4, r1, lsl #14
 5a4:	a9030505 	stmdbge	r3, {r0, r2, r8, sl}
 5a8:	0a052e7b 	beq	14bf9c <shift+0x14bf9c>
 5ac:	660f05bb 			@ <UNDEFINED> instruction: 0x660f05bb
 5b0:	73031605 	tstvc	r3, #5242880	@ 0x500000
 5b4:	03010566 	tsteq	r1, #427819008	@ 0x19800000
 5b8:	37052e0f 	strcc	r2, [r5, -pc, lsl #28]
 5bc:	9f0d0584 	svcls	0x000d0584
 5c0:	054a1205 	strbeq	r1, [sl, #-517]	@ 0xfffffdfb
 5c4:	09052e07 	stmdbeq	r5, {r0, r1, r2, r9, sl, fp, sp}
 5c8:	2f0e054b 	svccs	0x000e054b
 5cc:	05661305 	strbeq	r1, [r6, #-773]!	@ 0xfffffcfb
 5d0:	13054d01 	tstne	r5, #1, 26	@ 0x40
 5d4:	4b0a0584 	blmi	281bec <shift+0x281bec>
 5d8:	05660f05 	strbeq	r0, [r6, #-3845]!	@ 0xfffff0fb
 5dc:	0f054b0a 	svceq	0x00054b0a
 5e0:	4b01052e 	blmi	41aa0 <shift+0x41aa0>
 5e4:	05a02105 	streq	r2, [r0, #261]!	@ 0x105
 5e8:	0f05830a 	svceq	0x0005830a
 5ec:	4b0a0566 	blmi	281b8c <shift+0x281b8c>
 5f0:	052e0f05 	streq	r0, [lr, #-3845]!	@ 0xfffff0fb
 5f4:	0f054c0a 	svceq	0x00054c0a
 5f8:	2f0a0566 	svccs	0x000a0566
 5fc:	05660f05 	strbeq	r0, [r6, #-3845]!	@ 0xfffff0fb
 600:	0f054b0a 	svceq	0x00054b0a
 604:	4b0a0566 	blmi	281ba4 <shift+0x281ba4>
 608:	05660f05 	strbeq	r0, [r6, #-3845]!	@ 0xfffff0fb
 60c:	0f054c0a 	svceq	0x00054c0a
 610:	4b0a052e 	blmi	281ad0 <shift+0x281ad0>
 614:	052e1105 	streq	r1, [lr, #-261]!	@ 0xfffffefb
 618:	0f054c0a 	svceq	0x00054c0a
 61c:	4b010566 	blmi	41bbc <shift+0x41bbc>
 620:	9f0705a1 	svcls	0x000705a1
 624:	05680a05 	strbeq	r0, [r8, #-2565]!	@ 0xfffff5fb
 628:	0a05660f 	beq	159e6c <shift+0x159e6c>
 62c:	4a12054b 	bmi	481b60 <shift+0x481b60>
 630:	05660a05 	strbeq	r0, [r6, #-2565]!	@ 0xfffff5fb
 634:	0a052e0f 	beq	14be78 <shift+0x14be78>
 638:	660f054b 	strvs	r0, [pc], -fp, asr #10
 63c:	054b0a05 	strbeq	r0, [fp, #-2565]	@ 0xfffff5fb
 640:	0a05660f 	beq	159e84 <shift+0x159e84>
 644:	660f054b 	strvs	r0, [pc], -fp, asr #10
 648:	054c0a05 	strbeq	r0, [ip, #-2565]	@ 0xfffff5fb
 64c:	0a052e0f 	beq	14be90 <shift+0x14be90>
 650:	2e11054b 	cdpcs	5, 1, cr0, cr1, cr11, {2}
 654:	0a050204 	beq	140e6c <shift+0x140e6c>
 658:	8203be03 	andhi	fp, r3, #3, 28	@ 0x30
 65c:	02002d05 	andeq	r2, r0, #320	@ 0x140
 660:	ea030104 	b	c0a78 <shift+0xc0a78>
 664:	0d058200 	stceq	2, cr8, [r5, #-0]
 668:	01040200 	mrseq	r0, R12_usr
 66c:	304a054a 	subcc	r0, sl, sl, asr #10
 670:	052e6305 	streq	r6, [lr, #-773]!	@ 0xfffffcfb
 674:	2e052e15 	mcrcs	14, 0, r2, cr5, cr5, {0}
 678:	2e45052e 	cdpcs	5, 4, cr0, cr5, cr14, {1}
 67c:	054a3405 	strbeq	r3, [sl, #-1029]	@ 0xfffffbfb
 680:	01046701 	tsteq	r4, r1, lsl #14
 684:	d8030505 	stmdale	r3, {r0, r2, r8, sl}
 688:	16052e7b 			@ <UNDEFINED> instruction: 0x16052e7b
 68c:	05d67403 	ldrbeq	r7, [r6, #1027]	@ 0x403
 690:	2e0f0301 	cdpcs	3, 0, cr0, cr15, cr1, {0}
 694:	05841005 	streq	r1, [r4, #5]
 698:	4b2f4b05 	blmi	bd32b4 <shift+0xbd32b4>
 69c:	052f0105 	streq	r0, [pc, #-261]!	@ 59f <shift+0x59f>
 6a0:	0d056837 	stceq	8, cr6, [r5, #-220]	@ 0xffffff24
 6a4:	4a12059f 	bmi	481d28 <shift+0x481d28>
 6a8:	052e0705 	streq	r0, [lr, #-1797]!	@ 0xfffff8fb
 6ac:	0d054b09 	vstreq	d4, [r5, #-36]	@ 0xffffffdc
 6b0:	4b09052f 	blmi	241b74 <shift+0x241b74>
 6b4:	05830c05 	streq	r0, [r3, #3077]	@ 0xc05
 6b8:	0b054a22 	bleq	152f48 <shift+0x152f48>
 6bc:	4b0d052e 	blmi	341b7c <shift+0x341b7c>
 6c0:	054b2f83 	strbeq	r2, [fp, #-3971]	@ 0xfffff07d
 6c4:	1305300e 	tstne	r5, #14
 6c8:	4c010566 	stcmi	5, cr0, [r1], {102}	@ 0x66
 6cc:	05d81305 	ldrbeq	r1, [r8, #773]	@ 0x305
 6d0:	0f054b0a 	svceq	0x00054b0a
 6d4:	4c010566 	stcmi	5, cr0, [r1], {102}	@ 0x66
 6d8:	05a02105 	streq	r2, [r0, #261]!	@ 0x105
 6dc:	0f05830a 	svceq	0x0005830a
 6e0:	520a0566 	andpl	r0, sl, #427819008	@ 0x19800000
 6e4:	052e0f05 	streq	r0, [lr, #-3845]!	@ 0xfffff0fb
 6e8:	11054b0a 	tstne	r5, sl, lsl #22
 6ec:	4c0a052e 	stcmi	5, cr0, [sl], {46}	@ 0x2e
 6f0:	05660f05 	strbeq	r0, [r6, #-3845]!	@ 0xfffff0fb
 6f4:	27054b01 	strcs	r4, [r5, -r1, lsl #22]
 6f8:	830a05a0 	tsthi	sl, #160, 10	@ 0x28000000
 6fc:	05660f05 	strbeq	r0, [r6, #-3845]!	@ 0xfffff0fb
 700:	1a05520a 	bne	154f30 <shift+0x154f30>
 704:	080f052e 	stmdaeq	pc, {r1, r2, r3, r5, r8, sl}	@ <UNPREDICTABLE>
 708:	2f0a0520 	svccs	0x000a0520
 70c:	052e1105 	streq	r1, [lr, #-261]!	@ 0xfffffefb
 710:	0f054c0a 	svceq	0x00054c0a
 714:	4b010566 	blmi	41cb4 <shift+0x41cb4>
 718:	01000a02 	tsteq	r0, r2, lsl #20
 71c:	00006001 	andeq	r6, r0, r1
 720:	27000300 	strcs	r0, [r0, -r0, lsl #6]
 724:	02000000 	andeq	r0, r0, #0
 728:	0d0efb01 	vstreq	d15, [lr, #-4]
 72c:	01010100 	mrseq	r0, (UNDEF: 17)
 730:	00000001 	andeq	r0, r0, r1
 734:	01000001 	tsteq	r0, r1
 738:	2f707362 	svccs	0x00707362
 73c:	636e7566 	cmnvs	lr, #427819008	@ 0x19800000
 740:	65640000 	strbvs	r0, [r4, #-0]!
 744:	2e79616c 	cdpcs	1, 7, cr6, cr9, cr12, {3}
 748:	00010063 	andeq	r0, r1, r3, rrx
 74c:	01050000 	mrseq	r0, (UNDEF: 5)
 750:	10020500 	andne	r0, r2, r0, lsl #10
 754:	1587801c 	strne	r8, [r7, #28]
 758:	05830b05 	streq	r0, [r3, #2821]	@ 0xb05
 75c:	0402000d 	streq	r0, [r2], #-13
 760:	0c052e01 	stceq	14, cr2, [r5], {1}
 764:	01040200 	mrseq	r0, R12_usr
 768:	4e010566 	cdpmi	5, 0, cr0, cr1, cr6, {3}
 76c:	830b05a1 	tsthi	fp, #675282944	@ 0x28400000
 770:	05300905 	ldreq	r0, [r0, #-2309]!	@ 0xfffff6fb
 774:	0c05480d 	stceq	8, cr4, [r5], {13}
 778:	4e010566 	cdpmi	5, 0, cr0, cr1, cr6, {3}
 77c:	01000a02 	tsteq	r0, r2, lsl #20
 780:	00010401 	andeq	r0, r1, r1, lsl #8
 784:	48000300 	stmdami	r0, {r8, r9}
 788:	02000000 	andeq	r0, r0, #0
 78c:	0d0efb01 	vstreq	d15, [lr, #-4]
 790:	01010100 	mrseq	r0, (UNDEF: 17)
 794:	00000001 	andeq	r0, r0, r1
 798:	01000001 	tsteq	r0, r1
 79c:	2f707362 	svccs	0x00707362
 7a0:	00746e69 	rsbseq	r6, r4, r9, ror #28
 7a4:	0062696c 	rsbeq	r6, r2, ip, ror #18
 7a8:	746e6900 	strbtvc	r6, [lr], #-2304	@ 0xfffff700
 7ac:	0100632e 	tsteq	r0, lr, lsr #6
 7b0:	6f630000 	svcvs	0x00630000
 7b4:	615f6572 	cmpvs	pc, r2, ror r5	@ <UNPREDICTABLE>
 7b8:	00682e37 	rsbeq	r2, r8, r7, lsr lr
 7bc:	74000002 	strvc	r0, [r0], #-2
 7c0:	2e657079 	mcrcs	0, 3, r7, cr5, cr9, {3}
 7c4:	00020068 	andeq	r0, r2, r8, rrx
 7c8:	746e6900 	strbtvc	r6, [lr], #-2304	@ 0xfffff700
 7cc:	0100682e 	tsteq	r0, lr, lsr #16
 7d0:	05000000 	streq	r0, [r0, #-0]
 7d4:	02050001 	andeq	r0, r5, #1
 7d8:	87801c90 			@ <UNDEFINED> instruction: 0x87801c90
 7dc:	0502041a 	streq	r0, [r2, #-1050]	@ 0xfffffbe6
 7e0:	03f8030a 	mvnseq	r0, #671088640	@ 0x28000000
 7e4:	002d0566 	eoreq	r0, sp, r6, ror #10
 7e8:	03010402 	tsteq	r1, #33554432	@ 0x2000000
 7ec:	058200d1 	streq	r0, [r2, #209]	@ 0xd1
 7f0:	0402000d 	streq	r0, [r2], #-13
 7f4:	11054a01 	tstne	r5, r1, lsl #20
 7f8:	661b0530 			@ <UNDEFINED> instruction: 0x661b0530
 7fc:	052e0b05 	streq	r0, [lr, #-2821]!	@ 0xfffff4fb
 800:	03054f0a 	tsteq	r5, #10, 30	@ 0x28
 804:	2f19054a 	svccs	0x0019054a
 808:	02001d05 	andeq	r1, r0, #320	@ 0x140
 80c:	059d0304 	ldreq	r0, [sp, #772]	@ 0x304
 810:	04020011 	streq	r0, [r2], #-17	@ 0xffffffef
 814:	0e056601 	cdpeq	6, 0, cr6, cr5, cr1, {0}
 818:	0f05a186 	svceq	0x0005a186
 81c:	0105a1a1 	smlatbeq	r5, r1, r1, sl
 820:	0501049f 	streq	r0, [r1, #-1183]	@ 0xfffffb61
 824:	7ba40305 	blvc	fe901440 <__bss_end+0x770fe3fc>
 828:	0502042e 	streq	r0, [r2, #-1070]	@ 0xfffffbd2
 82c:	03dd0303 	bicseq	r0, sp, #201326592	@ 0xc000000
 830:	4b010566 	blmi	41dd0 <shift+0x41dd0>
 834:	a4030104 	strge	r0, [r3], #-260	@ 0xfffffefc
 838:	05852e7c 	streq	r2, [r5, #3708]	@ 0xe7c
 83c:	1d05bb1e 	vstrne	d11, [r5, #-120]	@ 0xffffff88
 840:	d701059f 			@ <UNDEFINED> instruction: 0xd701059f
 844:	670e05bd 			@ <UNDEFINED> instruction: 0x670e05bd
 848:	054a0505 	strbeq	r0, [sl, #-1285]	@ 0xfffffafb
 84c:	31053009 	tstcc	r5, r9
 850:	03040200 	tsteq	r4, #0, 4
 854:	001705b8 			@ <UNDEFINED> instruction: 0x001705b8
 858:	66010402 	strvs	r0, [r1], -r2, lsl #8
 85c:	a16a0105 	cmnge	sl, r5, lsl #2
 860:	05830e05 	streq	r0, [r3, #3589]	@ 0xe05
 864:	12058307 	andne	r8, r5, #469762048	@ 0x1c000000
 868:	01040200 	mrseq	r0, R12_usr
 86c:	67140566 	ldrvs	r0, [r4, -r6, ror #10]
 870:	05d71605 	ldrbeq	r1, [r7, #1541]	@ 0x605
 874:	14058209 	strne	r8, [r5], #-521	@ 0xfffffdf7
 878:	0a052108 	beq	148ca0 <shift+0x148ca0>
 87c:	2f0105f4 	svccs	0x000105f4
 880:	9f0a05f5 	svcls	0x000a05f5
 884:	01000402 	tsteq	r0, r2, lsl #8
 888:	00013e01 	andeq	r3, r1, r1, lsl #28
 88c:	a6000300 	strge	r0, [r0], -r0, lsl #6
 890:	02000000 	andeq	r0, r0, #0
 894:	0d0efb01 	vstreq	d15, [lr, #-4]
 898:	01010100 	mrseq	r0, (UNDEF: 17)
 89c:	00000001 	andeq	r0, r0, r1
 8a0:	01000001 	tsteq	r0, r1
 8a4:	2f707362 	svccs	0x00707362
 8a8:	0079656b 	rsbseq	r6, r9, fp, ror #10
 8ac:	0062696c 	rsbeq	r6, r2, ip, ror #18
 8b0:	2f707362 	svccs	0x00707362
 8b4:	00746e69 	rsbseq	r6, r4, r9, ror #28
 8b8:	2f707362 	svccs	0x00707362
 8bc:	74697065 	strbtvc	r7, [r9], #-101	@ 0xffffff9b
 8c0:	70736200 	rsbsvc	r6, r3, r0, lsl #4
 8c4:	7261752f 	rsbvc	r7, r1, #197132288	@ 0xbc00000
 8c8:	73620074 	cmnvc	r2, #116	@ 0x74
 8cc:	75662f70 	strbvc	r2, [r6, #-3952]!	@ 0xfffff090
 8d0:	0000636e 	andeq	r6, r0, lr, ror #6
 8d4:	2e79656b 	cdpcs	5, 7, cr6, cr9, cr11, {3}
 8d8:	00010063 	andeq	r0, r1, r3, rrx
 8dc:	726f6300 	rsbvc	r6, pc, #0, 6
 8e0:	37615f65 	strbcc	r5, [r1, -r5, ror #30]!
 8e4:	0200682e 	andeq	r6, r0, #3014656	@ 0x2e0000
 8e8:	79740000 	ldmdbvc	r4!, {}^	@ <UNPREDICTABLE>
 8ec:	682e6570 	stmdavs	lr!, {r4, r5, r6, r8, sl, sp, lr}
 8f0:	00000200 	andeq	r0, r0, r0, lsl #4
 8f4:	2e746e69 	cdpcs	14, 7, cr6, cr4, cr9, {3}
 8f8:	00030068 	andeq	r0, r3, r8, rrx
 8fc:	79656b00 	stmdbvc	r5!, {r8, r9, fp, sp, lr}^
 900:	0100682e 	tsteq	r0, lr, lsr #16
 904:	70670000 	rsbvc	r0, r7, r0
 908:	682e6f69 	stmdavs	lr!, {r0, r3, r5, r6, r8, r9, sl, fp, sp, lr}
 90c:	00000200 	andeq	r0, r0, r0, lsl #4
 910:	74697065 	strbtvc	r7, [r9], #-101	@ 0xffffff9b
 914:	0400682e 	streq	r6, [r0], #-2094	@ 0xfffff7d2
 918:	61750000 	cmnvs	r5, r0
 91c:	682e7472 	stmdavs	lr!, {r1, r4, r5, r6, sl, ip, sp, lr}
 920:	00000500 	andeq	r0, r0, r0, lsl #10
 924:	616c6564 	cmnvs	ip, r4, ror #10
 928:	00682e79 	rsbeq	r2, r8, r9, ror lr
 92c:	70000006 	andvc	r0, r0, r6
 930:	682e6e69 	stmdavs	lr!, {r0, r3, r5, r6, r9, sl, fp, sp, lr}
 934:	00000200 	andeq	r0, r0, r0, lsl #4
 938:	00010500 	andeq	r0, r1, r0, lsl #10
 93c:	1f2c0205 	svcne	0x002c0205
 940:	05178780 	ldreq	r8, [r7, #-1920]	@ 0xfffff880
 944:	21086705 	tstcs	r8, r5, lsl #14
 948:	22080105 	andcs	r0, r8, #1073741825	@ 0x40000001
 94c:	4b0905bd 	blmi	242048 <shift+0x242048>
 950:	054a1f05 	strbeq	r1, [sl, #-3845]	@ 0xfffff0fb
 954:	09052e08 	stmdbeq	r5, {r3, r9, sl, fp, sp}
 958:	4b0d054b 	blmi	341e8c <shift+0x341e8c>
 95c:	054a2305 	strbeq	r2, [sl, #-773]	@ 0xfffffcfb
 960:	14052e0c 	strne	r2, [r5], #-3596	@ 0xfffff1f4
 964:	10054c4b 	andne	r4, r5, fp, asr #24
 968:	2f01054d 	svccs	0x0001054d
 96c:	68160569 	ldmdavs	r6, {r0, r3, r5, r6, r8, sl}
 970:	054b1a05 	strbeq	r1, [fp, #-2565]	@ 0xfffff5fb
 974:	04674c05 	strbteq	r4, [r7], #-3077	@ 0xfffff3fb
 978:	030a0502 	tsteq	sl, #8388608	@ 0x800000
 97c:	05f203e1 	ldrbeq	r0, [r2, #993]!	@ 0x3e1
 980:	0402002d 	streq	r0, [r2], #-45	@ 0xffffffd3
 984:	00ea0301 	rsceq	r0, sl, r1, lsl #6
 988:	000d0582 	andeq	r0, sp, r2, lsl #11
 98c:	4a010402 	bmi	4199c <shift+0x4199c>
 990:	05304a05 	ldreq	r4, [r0, #-2565]!	@ 0xfffff5fb
 994:	15052e63 	strne	r2, [r5, #-3683]	@ 0xfffff19d
 998:	2e2e052e 	cdpcs	5, 2, cr0, cr14, cr14, {1}
 99c:	052e4505 	streq	r4, [lr, #-1285]!	@ 0xfffffafb
 9a0:	01054a34 	tsteq	r5, r4, lsr sl
 9a4:	05010467 	streq	r0, [r1, #-1127]	@ 0xfffffb99
 9a8:	7bb50305 	blvc	fed415c4 <__bss_end+0x7753e580>
 9ac:	0105bb2e 	tsteq	r5, lr, lsr #22
 9b0:	0805a167 	stmdaeq	r5, {r0, r1, r2, r5, r6, r8, sp, pc}
 9b4:	4a1e059f 	bmi	782038 <shift+0x782038>
 9b8:	052e0705 	streq	r0, [lr, #-1797]!	@ 0xfffff8fb
 9bc:	2f834b09 	svccs	0x00834b09
 9c0:	05510505 	ldrbeq	r0, [r1, #-1285]	@ 0xfffffafb
 9c4:	0a026701 	beq	9a5d0 <shift+0x9a5d0>
 9c8:	8c010100 	stchi	1, cr0, [r1], {-0}
 9cc:	03000000 	tsteq	r0, #0
 9d0:	00003b00 	andeq	r3, r0, r0, lsl #22
 9d4:	fb010200 	blx	411de <shift+0x411de>
 9d8:	01000d0e 	tsteq	r0, lr, lsl #26
 9dc:	00010101 	andeq	r0, r1, r1, lsl #2
 9e0:	00010000 	andeq	r0, r1, r0
 9e4:	73620100 	cmnvc	r2, #0, 2
 9e8:	656c2f70 	strbvs	r2, [ip, #-3952]!	@ 0xfffff090
 9ec:	696c0064 	stmdbvs	ip!, {r2, r5, r6}^
 9f0:	6c000062 	stcvs	0, cr0, [r0], {98}	@ 0x62
 9f4:	632e6465 			@ <UNDEFINED> instruction: 0x632e6465
 9f8:	00000100 	andeq	r0, r0, r0, lsl #2
 9fc:	65707974 	ldrbvs	r7, [r0, #-2420]!	@ 0xfffff68c
 a00:	0200682e 	andeq	r6, r0, #3014656	@ 0x2e0000
 a04:	69700000 	ldmdbvs	r0!, {}^	@ <UNPREDICTABLE>
 a08:	00682e6e 	rsbeq	r2, r8, lr, ror #28
 a0c:	00000002 	andeq	r0, r0, r2
 a10:	05000105 	streq	r0, [r0, #-261]	@ 0xfffffefb
 a14:	80211802 	eorhi	r1, r1, r2, lsl #16
 a18:	05051587 	streq	r1, [r5, #-1415]	@ 0xfffffa79
 a1c:	05210867 	streq	r0, [r1, #-2151]!	@ 0xfffff799
 a20:	0521080a 	streq	r0, [r1, #-2058]!	@ 0xfffff7f6
 a24:	0a056611 	beq	15a270 <shift+0x15a270>
 a28:	660f054b 	strvs	r0, [pc], -fp, asr #10
 a2c:	d94b0105 	stmdble	fp, {r0, r2, r8}^
 a30:	054b0a05 	strbeq	r0, [fp, #-2565]	@ 0xfffff5fb
 a34:	0105660f 	tsteq	r5, pc, lsl #12
 a38:	0a05a14b 	beq	168f6c <shift+0x168f6c>
 a3c:	660f054b 	strvs	r0, [pc], -fp, asr #10
 a40:	a14b0105 	cmpge	fp, r5, lsl #2
 a44:	054b0805 	strbeq	r0, [fp, #-2053]	@ 0xfffff7fb
 a48:	09056607 	stmdbeq	r5, {r0, r1, r2, r9, sl, sp, lr}
 a4c:	3101054b 	tstcc	r1, fp, asr #10
 a50:	052d0905 	streq	r0, [sp, #-2309]!	@ 0xfffff6fb
 a54:	06022f01 	streq	r2, [r2], -r1, lsl #30
 a58:	70010100 	andvc	r0, r1, r0, lsl #2
 a5c:	03000001 	tsteq	r0, #1
 a60:	00006400 	andeq	r6, r0, r0, lsl #8
 a64:	fb010200 	blx	4126e <shift+0x4126e>
 a68:	01000d0e 	tsteq	r0, lr, lsl #26
 a6c:	00010101 	andeq	r0, r1, r1, lsl #2
 a70:	00010000 	andeq	r0, r1, r0
 a74:	73620100 	cmnvc	r2, #0, 2
 a78:	61752f70 	cmnvs	r5, r0, ror pc
 a7c:	6c007472 	stcvs	4, cr7, [r0], {114}	@ 0x72
 a80:	62006269 	andvs	r6, r0, #-1879048186	@ 0x90000006
 a84:	662f7073 			@ <UNDEFINED> instruction: 0x662f7073
 a88:	00636e75 	rsbeq	r6, r3, r5, ror lr
 a8c:	2f707362 	svccs	0x00707362
 a90:	70656562 	rsbvc	r6, r5, r2, ror #10
 a94:	61750000 	cmnvs	r5, r0
 a98:	632e7472 			@ <UNDEFINED> instruction: 0x632e7472
 a9c:	00000100 	andeq	r0, r0, r0, lsl #2
 aa0:	65707974 	ldrbvs	r7, [r0, #-2420]!	@ 0xfffff68c
 aa4:	0200682e 	andeq	r6, r0, #3014656	@ 0x2e0000
 aa8:	69700000 	ldmdbvs	r0!, {}^	@ <UNPREDICTABLE>
 aac:	00682e6e 	rsbeq	r2, r8, lr, ror #28
 ab0:	64000002 	strvs	r0, [r0], #-2
 ab4:	79616c65 	stmdbvc	r1!, {r0, r2, r5, r6, sl, fp, sp, lr}^
 ab8:	0300682e 	tsteq	r0, #3014656	@ 0x2e0000
 abc:	65620000 	strbvs	r0, [r2, #-0]!
 ac0:	682e7065 	stmdavs	lr!, {r0, r2, r5, r6, ip, sp, lr}
 ac4:	00000400 	andeq	r0, r0, r0, lsl #8
 ac8:	00120500 	andseq	r0, r2, r0, lsl #10
 acc:	22440205 	subcs	r0, r4, #1342177280	@ 0x50000000
 ad0:	05158780 	ldreq	r8, [r5, #-1920]	@ 0xfffff880
 ad4:	4b304b05 	blmi	c136f0 <shift+0xc136f0>
 ad8:	054b2f4b 	strbeq	r2, [fp, #-3915]	@ 0xfffff0b5
 adc:	11052f0a 	tstne	r5, sl, lsl #30
 ae0:	4b0a052e 	blmi	281fa0 <shift+0x281fa0>
 ae4:	05661105 	strbeq	r1, [r6, #-261]!	@ 0xfffffefb
 ae8:	11054b0a 	tstne	r5, sl, lsl #22
 aec:	4b0a0566 	blmi	28208c <shift+0x28208c>
 af0:	05661105 	strbeq	r1, [r6, #-261]!	@ 0xfffffefb
 af4:	11054b0a 	tstne	r5, sl, lsl #22
 af8:	4b0a0566 	blmi	282098 <shift+0x282098>
 afc:	05661105 	strbeq	r1, [r6, #-261]!	@ 0xfffffefb
 b00:	11054b0a 	tstne	r5, sl, lsl #22
 b04:	4e0a0566 	cdpmi	5, 0, cr0, cr10, cr6, {3}
 b08:	05661105 	strbeq	r1, [r6, #-261]!	@ 0xfffffefb
 b0c:	11054b0a 	tstne	r5, sl, lsl #22
 b10:	4b0a052e 	blmi	281fd0 <shift+0x281fd0>
 b14:	052e1105 	streq	r1, [lr, #-261]!	@ 0xfffffefb
 b18:	01054b05 	tsteq	r5, r5, lsl #22
 b1c:	8425054c 	strthi	r0, [r5], #-1356	@ 0xfffffab4
 b20:	05830905 	streq	r0, [r3, #2309]	@ 0x905
 b24:	0a054a10 	beq	15336c <shift+0x15336c>
 b28:	00100567 	andseq	r0, r0, r7, ror #10
 b2c:	2e010402 	cdpcs	4, 0, cr0, cr1, cr2, {0}
 b30:	02001705 	andeq	r1, r0, #1310720	@ 0x140000
 b34:	054a0104 	strbeq	r0, [sl, #-260]	@ 0xfffffefc
 b38:	0402002e 	streq	r0, [r2], #-46	@ 0xffffffd2
 b3c:	01052e01 	tsteq	r5, r1, lsl #28
 b40:	a015054b 	andsge	r0, r5, fp, asr #10
 b44:	08670505 	stmdaeq	r7!, {r0, r2, r8, sl}^
 b48:	08210821 	stmdaeq	r1!, {r0, r5, fp}
 b4c:	08010521 	stmdaeq	r1, {r0, r5, r8, sl}
 b50:	08230521 	stmdaeq	r3!, {r0, r5, r8, sl}
 b54:	83090522 	tsthi	r9, #142606336	@ 0x8800000
 b58:	054a1005 	strbeq	r1, [sl, #-5]
 b5c:	22056701 	andcs	r6, r5, #262144	@ 0x40000
 b60:	83090584 	tsthi	r9, #132, 10	@ 0x21000000
 b64:	054a1005 	strbeq	r1, [sl, #-5]
 b68:	16056701 	strne	r6, [r5], -r1, lsl #14
 b6c:	9f0a0584 	svcls	0x000a0584
 b70:	02001105 	andeq	r1, r0, #1073741825	@ 0x40000001
 b74:	052e0104 	streq	r0, [lr, #-260]!	@ 0xfffffefc
 b78:	04020018 	streq	r0, [r2], #-24	@ 0xffffffe8
 b7c:	2f054a01 	svccs	0x00054a01
 b80:	01040200 	mrseq	r0, R12_usr
 b84:	4b0a052e 	blmi	282044 <shift+0x282044>
 b88:	052e1605 	streq	r1, [lr, #-1541]!	@ 0xfffff9fb
 b8c:	01052e11 	tsteq	r5, r1, lsl lr
 b90:	9f17052f 	svcls	0x0017052f
 b94:	05830a05 	streq	r0, [r3, #2565]	@ 0xa05
 b98:	0a052f09 	beq	14c7c4 <shift+0x14c7c4>
 b9c:	640b0583 	strvs	r0, [fp], #-1411	@ 0xfffffa7d
 ba0:	05860105 	streq	r0, [r6, #261]	@ 0x105
 ba4:	0a058310 	beq	1617ec <shift+0x1617ec>
 ba8:	0011054b 	andseq	r0, r1, fp, asr #10
 bac:	2e010402 	cdpcs	4, 0, cr0, cr1, cr2, {0}
 bb0:	02001805 	andeq	r1, r0, #327680	@ 0x50000
 bb4:	054a0104 	strbeq	r0, [sl, #-260]	@ 0xfffffefc
 bb8:	0402002e 	streq	r0, [r2], #-46	@ 0xffffffd2
 bbc:	11052e01 	tstne	r5, r1, lsl #28
 bc0:	6701054b 	strvs	r0, [r1, -fp, asr #10]
 bc4:	05a00d05 	streq	r0, [r0, #3333]!	@ 0xd05
 bc8:	08024a0e 	stmdaeq	r2, {r1, r2, r3, r9, fp, lr}
 bcc:	3a010100 	bcc	40fd4 <shift+0x40fd4>
 bd0:	03000001 	tsteq	r0, #1
 bd4:	00004c00 	andeq	r4, r0, r0, lsl #24
 bd8:	fb010200 	blx	413e2 <shift+0x413e2>
 bdc:	01000d0e 	tsteq	r0, lr, lsl #26
 be0:	00010101 	andeq	r0, r1, r1, lsl #2
 be4:	00010000 	andeq	r0, r1, r0
 be8:	73620100 	cmnvc	r2, #0, 2
 bec:	61752f70 	cmnvs	r5, r0, ror pc
 bf0:	6c007472 	stcvs	4, cr7, [r0], {114}	@ 0x72
 bf4:	00006269 	andeq	r6, r0, r9, ror #4
 bf8:	74726175 	ldrbtvc	r6, [r2], #-373	@ 0xfffffe8b
 bfc:	632e6f69 			@ <UNDEFINED> instruction: 0x632e6f69
 c00:	00000100 	andeq	r0, r0, r0, lsl #2
 c04:	65707974 	ldrbvs	r7, [r0, #-2420]!	@ 0xfffff68c
 c08:	0200682e 	andeq	r6, r0, #3014656	@ 0x2e0000
 c0c:	61750000 	cmnvs	r5, r0
 c10:	6f697472 	svcvs	0x00697472
 c14:	0100682e 	tsteq	r0, lr, lsr #16
 c18:	61750000 	cmnvs	r5, r0
 c1c:	682e7472 	stmdavs	lr!, {r1, r4, r5, r6, sl, ip, sp, lr}
 c20:	00000100 	andeq	r0, r0, r0, lsl #2
 c24:	001b0500 	andseq	r0, fp, r0, lsl #10
 c28:	25a40205 	strcs	r0, [r4, #517]!	@ 0x205
 c2c:	05158780 	ldreq	r8, [r5, #-1920]	@ 0xfffff880
 c30:	0705830e 	streq	r8, [r5, -lr, lsl #6]
 c34:	67110567 	ldrvs	r0, [r1, -r7, ror #10]
 c38:	05661505 	strbeq	r1, [r6, #-1285]!	@ 0xfffffafb
 c3c:	0c054b0b 			@ <UNDEFINED> instruction: 0x0c054b0b
 c40:	67110584 	ldrvs	r0, [r1, -r4, lsl #11]
 c44:	05661505 	strbeq	r1, [r6, #-1285]!	@ 0xfffffafb
 c48:	09054b11 	stmdbeq	r5, {r0, r4, r8, r9, fp, lr}
 c4c:	300e0567 	andcc	r0, lr, r7, ror #10
 c50:	054b0d05 	strbeq	r0, [fp, #-3333]	@ 0xfffff2fb
 c54:	1b054b0a 	blne	153884 <shift+0x153884>
 c58:	2e12052f 	cdpcs	5, 1, cr0, cr2, cr15, {1}
 c5c:	059f1a05 	ldreq	r1, [pc, #2565]	@ 1669 <shift+0x1669>
 c60:	0b052e12 	bleq	14c4b0 <shift+0x14c4b0>
 c64:	4b0e059f 	blmi	3822e8 <shift+0x3822e8>
 c68:	059f0b05 	ldreq	r0, [pc, #2821]	@ 1775 <shift+0x1775>
 c6c:	0402001c 	streq	r0, [r2], #-28	@ 0xffffffe4
 c70:	0b056601 	bleq	15a47c <shift+0x15a47c>
 c74:	0020054b 	eoreq	r0, r0, fp, asr #10
 c78:	66010402 	strvs	r0, [r1], -r2, lsl #8
 c7c:	02001a05 	andeq	r1, r0, #20480	@ 0x5000
 c80:	054a0104 	strbeq	r0, [sl, #-260]	@ 0xfffffefc
 c84:	04020020 	streq	r0, [r2], #-32	@ 0xffffffe0
 c88:	1e056601 	cdpne	6, 0, cr6, cr5, cr1, {0}
 c8c:	01040200 	mrseq	r0, R12_usr
 c90:	0310054a 	tsteq	r0, #310378496	@ 0x12800000
 c94:	0d052e7a 	stceq	14, cr2, [r5, #-488]	@ 0xfffffe18
 c98:	6701056e 	strvs	r0, [r1, -lr, ror #10]
 c9c:	05a02105 	streq	r2, [r0, #261]!	@ 0x105
 ca0:	0b058405 	bleq	161cbc <shift+0x161cbc>
 ca4:	4b0a054c 	blmi	2821dc <shift+0x2821dc>
 ca8:	052f0d05 	streq	r0, [pc, #-3333]!	@ ffffffab <__bss_end+0x787fcf67>
 cac:	20054a0b 	andcs	r4, r5, fp, lsl #20
 cb0:	4a15054b 	bmi	5421e4 <shift+0x5421e4>
 cb4:	054b0d05 	strbeq	r0, [fp, #-3333]	@ 0xfffff2fb
 cb8:	1d056823 	stcne	8, cr6, [r5, #-140]	@ 0xffffff74
 cbc:	67150566 	ldrvs	r0, [r5, -r6, ror #10]
 cc0:	054b1e05 	strbeq	r1, [fp, #-3589]	@ 0xfffff1fb
 cc4:	2a05671a 	bcs	15a934 <shift+0x15a934>
 cc8:	02040200 	andeq	r0, r4, #0, 4
 ccc:	0020052e 	eoreq	r0, r0, lr, lsr #10
 cd0:	66020402 	strvs	r0, [r2], -r2, lsl #8
 cd4:	02001b05 	andeq	r1, r0, #5120	@ 0x1400
 cd8:	05660104 	strbeq	r0, [r6, #-260]!	@ 0xfffffefc
 cdc:	15058316 	strne	r8, [r5, #-790]	@ 0xfffffcea
 ce0:	34120567 	ldrcc	r0, [r2], #-1383	@ 0xfffffa99
 ce4:	054a1005 	strbeq	r1, [sl, #-5]
 ce8:	0d054b16 	vstreq	d4, [r5, #-88]	@ 0xffffffa8
 cec:	67160566 	ldrvs	r0, [r6, -r6, ror #10]
 cf0:	05660d05 	strbeq	r0, [r6, #-3333]!	@ 0xfffff2fb
 cf4:	0e058417 	mcreq	4, 0, r8, cr5, cr7, {0}
 cf8:	03150566 	tsteq	r5, #427819008	@ 0x19800000
 cfc:	0b058279 	bleq	1616e8 <shift+0x1616e8>
 d00:	052e7303 	streq	r7, [lr, #-771]!	@ 0xfffffcfd
 d04:	82170301 	andshi	r0, r7, #67108864	@ 0x4000000
 d08:	01000e02 	tsteq	r0, r2, lsl #28
 d0c:	00006301 	andeq	r6, r0, r1, lsl #6
 d10:	04000500 	streq	r0, [r0], #-1280	@ 0xfffffb00
 d14:	00002e00 	andeq	r2, r0, r0, lsl #28
 d18:	01010200 	mrseq	r0, R9_usr
 d1c:	000d0efb 	strdeq	r0, [sp], -fp
 d20:	01010101 	tsteq	r1, r1, lsl #2
 d24:	01000000 	mrseq	r0, (UNDEF: 0)
 d28:	01010000 	mrseq	r0, (UNDEF: 1)
 d2c:	00021f01 	andeq	r1, r2, r1, lsl #30
 d30:	48000000 	stmdami	r0, {}	@ <UNPREDICTABLE>
 d34:	02000000 	andeq	r0, r0, #0
 d38:	0f021f01 	svceq	0x00021f01
 d3c:	00008102 	andeq	r8, r0, r2, lsl #2
 d40:	00810100 	addeq	r0, r1, r0, lsl #2
 d44:	00010000 	andeq	r0, r1, r0
 d48:	28340205 	ldmdacs	r4!, {r0, r2, r9}
 d4c:	cf038780 	svcgt	0x00038780
 d50:	2f300108 	svccs	0x00300108
 d54:	2f2f2f2f 	svccs	0x002f2f2f
 d58:	01d00230 	bicseq	r0, r0, r0, lsr r2
 d5c:	2f312f14 	svccs	0x00312f14
 d60:	2f4c302f 	svccs	0x004c302f
 d64:	661f0332 			@ <UNDEFINED> instruction: 0x661f0332
 d68:	2f2f2f2f 	svccs	0x002f2f2f
 d6c:	022f2f2f 	eoreq	r2, pc, #47, 30	@ 0xbc
 d70:	01010002 	tsteq	r1, r2
 d74:	0000004b 	andeq	r0, r0, fp, asr #32
 d78:	00040005 	andeq	r0, r4, r5
 d7c:	0000002e 	andeq	r0, r0, lr, lsr #32
 d80:	fb010102 	blx	41192 <shift+0x41192>
 d84:	01000d0e 	tsteq	r0, lr, lsl #26
 d88:	00010101 	andeq	r0, r1, r1, lsl #2
 d8c:	00010000 	andeq	r0, r1, r0
 d90:	01010100 	mrseq	r0, (UNDEF: 17)
 d94:	0000021f 	andeq	r0, r0, pc, lsl r2
 d98:	00480000 	subeq	r0, r8, r0
 d9c:	01020000 	mrseq	r0, (UNDEF: 2)
 da0:	020f021f 	andeq	r0, pc, #-268435455	@ 0xf0000001
 da4:	00000081 	andeq	r0, r0, r1, lsl #1
 da8:	00008101 	andeq	r8, r0, r1, lsl #2
 dac:	05000100 	streq	r0, [r0, #-256]	@ 0xffffff00
 db0:	802a4002 	eorhi	r4, sl, r2
 db4:	0bd00387 	bleq	ff401bd8 <__bss_end+0x77bfeb94>
 db8:	2e090301 	cdpcs	3, 0, cr0, cr9, cr1, {0}
 dbc:	02022f2f 	andeq	r2, r2, #47, 30	@ 0xbc
 dc0:	Address 0xdc0 is out of bounds.


Disassembly of section .debug_str:

00000000 <.debug_str>:
       0:	66696873 			@ <UNDEFINED> instruction: 0x66696873
       4:	675f0074 			@ <UNDEFINED> instruction: 0x675f0074
       8:	5f6f6970 	svcpl	0x006f6970
       c:	5f6e6970 	svcpl	0x006e6970
      10:	65726964 	ldrbvs	r6, [r2, #-2404]!	@ 0xfffff69c
      14:	6f697463 	svcvs	0x00697463
      18:	5047006e 	subpl	r0, r7, lr, rrx
      1c:	445f4f49 	ldrbmi	r4, [pc], #-3913	@ 24 <shift+0x24>
      20:	62617369 	rsbvs	r7, r1, #-1543503871	@ 0xa4000001
      24:	495f656c 	ldmdbmi	pc, {r2, r3, r5, r6, r8, sl, sp, lr}^	@ <UNPREDICTABLE>
      28:	4700746e 	strmi	r7, [r0, -lr, ror #8]
      2c:	4320554e 			@ <UNDEFINED> instruction: 0x4320554e
      30:	31203731 			@ <UNDEFINED> instruction: 0x31203731
      34:	2e322e34 	mrccs	14, 1, r2, cr2, cr4, {1}
      38:	30322031 	eorscc	r2, r2, r1, lsr r0
      3c:	32303532 	eorscc	r3, r0, #209715200	@ 0xc800000
      40:	2d203730 	stccs	7, cr3, [r0, #-192]!	@ 0xffffff40
      44:	6f6c666d 	svcvs	0x006c666d
      48:	612d7461 			@ <UNDEFINED> instruction: 0x612d7461
      4c:	683d6962 	ldmdavs	sp!, {r1, r5, r6, r8, fp, sp, lr}
      50:	20647261 	rsbcs	r7, r4, r1, ror #4
      54:	70666d2d 	rsbvc	r6, r6, sp, lsr #26
      58:	66763d75 			@ <UNDEFINED> instruction: 0x66763d75
      5c:	6d2d2070 	stcvs	0, cr2, [sp, #-448]!	@ 0xfffffe40
      60:	2d736c74 	ldclcs	12, cr6, [r3, #-464]!	@ 0xfffffe30
      64:	6c616964 			@ <UNDEFINED> instruction: 0x6c616964
      68:	3d746365 	ldclcc	3, cr6, [r4, #-404]!	@ 0xfffffe6c
      6c:	20756e67 	rsbscs	r6, r5, r7, ror #28
      70:	72616d2d 	rsbvc	r6, r1, #2880	@ 0xb40
      74:	6d2d206d 	stcvs	0, cr2, [sp, #-436]!	@ 0xfffffe4c
      78:	68637261 	stmdavs	r3!, {r0, r5, r6, r9, ip, sp, lr}^
      7c:	6d72613d 	ldclvs	1, cr6, [r2, #-244]!	@ 0xffffff0c
      80:	662b3676 			@ <UNDEFINED> instruction: 0x662b3676
      84:	672d2070 			@ <UNDEFINED> instruction: 0x672d2070
      88:	6f682f00 	svcvs	0x00682f00
      8c:	612f656d 			@ <UNDEFINED> instruction: 0x612f656d
      90:	62686372 	rsbvs	r6, r8, #-939524095	@ 0xc8000001
      94:	6c2f7265 	stcvs	2, cr7, [pc], #-404	@ ffffff08 <__bss_end+0x787fcec4>
      98:	6e726165 	cdpvs	1, 7, cr6, cr2, cr5, {3}
      9c:	4950472f 	ldmdbmi	r0, {r0, r1, r2, r3, r5, r8, r9, sl, lr}^
      a0:	41552f4f 	cmpmi	r5, pc, asr #30
      a4:	47005452 	smlsdmi	r0, r2, r4, r5
      a8:	00524944 	subseq	r4, r2, r4, asr #18
      ac:	6f697067 	svcvs	0x00697067
      b0:	746e695f 	strbtvc	r6, [lr], #-2399	@ 0xfffff6a1
      b4:	75727265 	ldrbvc	r7, [r2, #-613]!	@ 0xfffffd9b
      b8:	6d5f7470 	ldclvs	4, cr7, [pc, #-448]	@ ffffff00 <__bss_end+0x787fcebc>
      bc:	5f65646f 	svcpl	0x0065646f
      c0:	476b0074 			@ <UNDEFINED> instruction: 0x476b0074
      c4:	5f4f4950 	svcpl	0x004f4950
      c8:	48746e49 	ldmdami	r4!, {r0, r3, r6, r9, sl, fp, sp, lr}^
      cc:	4c686769 	stclmi	7, cr6, [r8], #-420	@ 0xfffffe5c
      d0:	6c657665 	stclvs	6, cr7, [r5], #-404	@ 0xfffffe6c
      d4:	736e7500 	cmnvc	lr, #0, 10
      d8:	656e6769 	strbvs	r6, [lr, #-1897]!	@ 0xfffff897
      dc:	68632064 	stmdavs	r3!, {r2, r5, r6, sp}^
      e0:	73007261 	tstvc	r0, #268435462	@ 0x10000006
      e4:	74726f68 	ldrbtvc	r6, [r2], #-3944	@ 0xfffff098
      e8:	736e7520 	cmnvc	lr, #32, 10	@ 0x8000000
      ec:	656e6769 	strbvs	r6, [lr, #-1897]!	@ 0xfffff897
      f0:	6e692064 	cdpvs	0, 6, cr2, cr9, cr4, {3}
      f4:	476b0074 			@ <UNDEFINED> instruction: 0x476b0074
      f8:	5f4f4950 	svcpl	0x004f4950
      fc:	69676944 	stmdbvs	r7!, {r2, r6, r8, fp, sp, lr}^
     100:	496c6174 	stmdbmi	ip!, {r2, r4, r5, r6, r8, sp, lr}^
     104:	7475706e 	ldrbtvc	r7, [r5], #-110	@ 0xffffff92
     108:	69706700 	ldmdbvs	r0!, {r8, r9, sl, sp, lr}^
     10c:	476b006f 	strbmi	r0, [fp, -pc, rrx]!
     110:	5f4f4950 	svcpl	0x004f4950
     114:	46746e49 	ldrbtmi	r6, [r4], -r9, asr #28
     118:	696c6c61 	stmdbvs	ip!, {r0, r5, r6, sl, fp, sp, lr}^
     11c:	6445676e 	strbvs	r6, [r5], #-1902	@ 0xfffff892
     120:	6b006567 	blvs	196c4 <shift+0x196c4>
     124:	4f495047 	svcmi	0x00495047
     128:	746e495f 	strbtvc	r4, [lr], #-2399	@ 0xfffff6a1
     12c:	69736952 	ldmdbvs	r3!, {r1, r4, r6, r8, fp, sp, lr}^
     130:	6445676e 	strbvs	r6, [r5], #-1902	@ 0xfffff892
     134:	67006567 	strvs	r6, [r0, -r7, ror #10]
     138:	5f6f6970 	svcpl	0x006f6970
     13c:	5f6e6970 	svcpl	0x006e6970
     140:	666e6f63 	strbtvs	r6, [lr], -r3, ror #30
     144:	745f6769 	ldrbvc	r6, [pc], #-1897	@ 14c <shift+0x14c>
     148:	49504700 	ldmdbmi	r0, {r8, r9, sl, lr}^
     14c:	79545f4f 	ldmdbvc	r4, {r0, r1, r2, r3, r6, r8, r9, sl, fp, ip, lr}^
     150:	6b006570 	blvs	19718 <shift+0x19718>
     154:	4f495047 	svcmi	0x00495047
     158:	746e495f 	strbtvc	r4, [lr], #-2399	@ 0xfffff6a1
     15c:	69736952 	ldmdbvs	r3!, {r1, r4, r6, r8, fp, sp, lr}^
     160:	724f676e 	subvc	r6, pc, #28835840	@ 0x1b80000
     164:	6c6c6146 	stclvs	1, cr6, [ip], #-280	@ 0xfffffee8
     168:	45676e69 	strbmi	r6, [r7, #-3689]!	@ 0xfffff197
     16c:	00656764 	rsbeq	r6, r5, r4, ror #14
     170:	7074756f 	rsbsvc	r7, r4, pc, ror #10
     174:	6f4c7475 	svcvs	0x004c7475
     178:	00636967 	rsbeq	r6, r3, r7, ror #18
     17c:	676e6f6c 	strbvs	r6, [lr, -ip, ror #30]!
     180:	6e6f6c20 	cdpvs	12, 6, cr6, cr15, cr0, {1}
     184:	6e752067 	cdpvs	0, 7, cr2, cr5, cr7, {3}
     188:	6e676973 			@ <UNDEFINED> instruction: 0x6e676973
     18c:	69206465 	stmdbvs	r0!, {r0, r2, r5, r6, sl, sp, lr}
     190:	7500746e 	strvc	r7, [r0, #-1134]	@ 0xfffffb92
     194:	38746e69 	ldmdacc	r4!, {r0, r3, r5, r6, r9, sl, fp, sp, lr}^
     198:	6c00745f 	stcvs	4, cr7, [r0], {95}	@ 0x5f
     19c:	672f6269 	strvs	r6, [pc, -r9, ror #4]!
     1a0:	2e6f6970 			@ <UNDEFINED> instruction: 0x2e6f6970
     1a4:	50470063 	subpl	r0, r7, r3, rrx
     1a8:	505f4f49 	subspl	r4, pc, r9, asr #30
     1ac:	575f6e69 	ldrbpl	r6, [pc, -r9, ror #28]
     1b0:	65746972 	ldrbvs	r6, [r4, #-2418]!	@ 0xfffff68e
     1b4:	6e6f6c00 	cdpvs	12, 6, cr6, cr15, cr0, {0}
     1b8:	6f6c2067 	svcvs	0x006c2067
     1bc:	6920676e 	stmdbvs	r0!, {r1, r2, r3, r5, r6, r8, r9, sl, sp, lr}
     1c0:	6900746e 	stmdbvs	r0, {r1, r2, r3, r5, r6, sl, ip, sp, lr}
     1c4:	7265746e 	rsbvc	r7, r5, #1845493760	@ 0x6e000000
     1c8:	74707572 	ldrbtvc	r7, [r0], #-1394	@ 0xfffffa8e
     1cc:	65646f4d 	strbvs	r6, [r4, #-3917]!	@ 0xfffff0b3
     1d0:	49504700 	ldmdbmi	r0, {r8, r9, sl, lr}^
     1d4:	6c435f4f 	mcrrvs	15, 4, r5, r3, cr15
     1d8:	5f726165 	svcpl	0x00726165
     1dc:	5f746e49 	svcpl	0x00746e49
     1e0:	67616c46 	strbvs	r6, [r1, -r6, asr #24]!
     1e4:	69706700 	ldmdbvs	r0!, {r8, r9, sl, sp, lr}^
     1e8:	69705f6f 	ldmdbvs	r0!, {r0, r1, r2, r3, r5, r6, r8, r9, sl, fp, ip, lr}^
     1ec:	69645f6e 	stmdbvs	r4!, {r1, r2, r3, r5, r6, r8, r9, sl, fp, ip, lr}^
     1f0:	74636572 	strbtvc	r6, [r3], #-1394	@ 0xfffffa8e
     1f4:	5f6e6f69 	svcpl	0x006e6f69
     1f8:	68730074 	ldmdavs	r3!, {r2, r4, r5, r6}^
     1fc:	2074726f 	rsbscs	r7, r4, pc, ror #4
     200:	00746e69 	rsbseq	r6, r4, r9, ror #28
     204:	4f495047 	svcmi	0x00495047
     208:	696e495f 	stmdbvs	lr!, {r0, r1, r2, r3, r4, r6, r8, fp, lr}^
     20c:	43490074 	cmpmi	r9, #116	@ 0x74
     210:	49003152 	stmdbmi	r0, {r1, r4, r6, r8, ip, sp}
     214:	00325243 	eorseq	r5, r2, r3, asr #4
     218:	6970675f 	ldmdbvs	r0!, {r0, r1, r2, r3, r4, r6, r8, r9, sl, sp, lr}^
     21c:	69705f6f 	ldmdbvs	r0!, {r0, r1, r2, r3, r5, r6, r8, r9, sl, fp, ip, lr}^
     220:	6f635f6e 	svcvs	0x00635f6e
     224:	6769666e 	strbvs	r6, [r9, -lr, ror #12]!
     228:	6e697500 	cdpvs	5, 6, cr7, cr9, cr0, {0}
     22c:	5f323374 	svcpl	0x00323374
     230:	476b0074 			@ <UNDEFINED> instruction: 0x476b0074
     234:	5f4f4950 	svcpl	0x004f4950
     238:	4c746e49 	ldclmi	14, cr6, [r4], #-292	@ 0xfffffedc
     23c:	654c776f 	strbvs	r7, [ip, #-1903]	@ 0xfffff891
     240:	006c6576 	rsbeq	r6, ip, r6, ror r5
     244:	45474445 	strbmi	r4, [r7, #-1093]	@ 0xfffffbbb
     248:	4c45535f 	mcrrmi	3, 5, r5, r5, cr15
     24c:	70675f00 	rsbvc	r5, r7, r0, lsl #30
     250:	695f6f69 	ldmdbvs	pc, {r0, r3, r5, r6, r8, r9, sl, fp, sp, lr}^	@ <UNPREDICTABLE>
     254:	7265746e 	rsbvc	r7, r5, #1845493760	@ 0x6e000000
     258:	74707572 	ldrbtvc	r7, [r0], #-1394	@ 0xfffffa8e
     25c:	646f6d5f 	strbtvs	r6, [pc], #-3423	@ 264 <shift+0x264>
     260:	476b0065 	strbmi	r0, [fp, -r5, rrx]!
     264:	5f4f4950 	svcpl	0x004f4950
     268:	69676944 	stmdbvs	r7!, {r2, r6, r8, fp, sp, lr}^
     26c:	4f6c6174 	svcmi	0x006c6174
     270:	75707475 	ldrbvc	r7, [r0, #-1141]!	@ 0xfffffb8b
     274:	50470074 	subpl	r0, r7, r4, ror r0
     278:	455f4f49 	ldrbmi	r4, [pc, #-3913]	@ fffff337 <__bss_end+0x787fc2f3>
     27c:	6c62616e 	stclvs	1, cr6, [r2], #-440	@ 0xfffffe48
     280:	6e495f65 	cdpvs	15, 4, cr5, cr9, cr5, {3}
     284:	476b0074 			@ <UNDEFINED> instruction: 0x476b0074
     288:	5f4f4950 	svcpl	0x004f4950
     28c:	6e496f4e 	cdpvs	15, 4, cr6, cr9, cr14, {2}
     290:	646f6d74 	strbtvs	r6, [pc], #-3444	@ 298 <shift+0x298>
     294:	6f630065 	svcvs	0x00630065
     298:	6769666e 	strbvs	r6, [r9, -lr, ror #12]!
     29c:	756c6156 	strbvc	r6, [ip, #-342]!	@ 0xfffffeaa
     2a0:	6e690065 	cdpvs	0, 6, cr0, cr9, cr5, {3}
     2a4:	44747570 	ldrbtmi	r7, [r4], #-1392	@ 0xfffffa90
     2a8:	79736961 	ldmdbvc	r3!, {r0, r5, r6, r8, fp, sp, lr}^
     2ac:	706e6900 	rsbvc	r6, lr, r0, lsl #18
     2b0:	65527475 	ldrbvs	r7, [r2, #-1141]	@ 0xfffffb8b
     2b4:	74736967 	ldrbtvc	r6, [r3], #-2407	@ 0xfffff699
     2b8:	6d007265 	stcvs	2, cr7, [r0, #-404]	@ 0xfffffe6c
     2bc:	65527875 	ldrbvs	r7, [r2, #-2165]	@ 0xfffff78b
     2c0:	74736967 	ldrbtvc	r6, [r3], #-2407	@ 0xfffff699
     2c4:	6c007265 	stcvs	2, cr7, [r0], {101}	@ 0x65
     2c8:	702f6269 	eorvc	r6, pc, r9, ror #4
     2cc:	632e6e69 			@ <UNDEFINED> instruction: 0x632e6e69
     2d0:	4d4f4900 			@ <UNDEFINED> instruction: 0x4d4f4900
     2d4:	5f435855 	svcpl	0x00435855
     2d8:	50746553 	rsbspl	r6, r4, r3, asr r5
     2dc:	6f436e69 	svcvs	0x00436e69
     2e0:	6769666e 	strbvs	r6, [r9, -lr, ror #12]!
     2e4:	78756d00 	ldmdavc	r5!, {r8, sl, fp, sp, lr}^
     2e8:	65646f4d 	strbvs	r6, [r4, #-3917]!	@ 0xfffff0b3
     2ec:	706e6900 	rsbvc	r6, lr, r0, lsl #18
     2f0:	6e4f7475 	mcrvs	4, 2, r7, cr15, cr5, {3}
     2f4:	6c656966 			@ <UNDEFINED> instruction: 0x6c656966
     2f8:	6f630064 	svcvs	0x00630064
     2fc:	6769666e 	strbvs	r6, [r9, -lr, ror #12]!
     300:	69676552 	stmdbvs	r7!, {r1, r4, r6, r8, sl, sp, lr}^
     304:	72657473 	rsbvc	r7, r5, #1929379840	@ 0x73000000
     308:	4d4f4900 			@ <UNDEFINED> instruction: 0x4d4f4900
     30c:	5f435855 	svcpl	0x00435855
     310:	50746553 	rsbspl	r6, r4, r3, asr r5
     314:	754d6e69 	strbvc	r6, [sp, #-3689]	@ 0xfffff197
     318:	65420078 	strbvs	r0, [r2, #-120]	@ 0xffffff88
     31c:	4f5f7065 	svcmi	0x005f7065
     320:	7362004e 	cmnvc	r2, #78	@ 0x4e
     324:	65622f70 	strbvs	r2, [r2, #-3952]!	@ 0xfffff090
     328:	622f7065 	eorvs	r7, pc, #101	@ 0x65
     32c:	2e706565 	cdpcs	5, 7, cr6, cr0, cr5, {3}
     330:	65420063 	strbvs	r0, [r2, #-99]	@ 0xffffff9d
     334:	495f7065 	ldmdbmi	pc, {r0, r2, r5, r6, ip, sp, lr}^	@ <UNPREDICTABLE>
     338:	0074696e 	rsbseq	r6, r4, lr, ror #18
     33c:	70656542 	rsbvc	r6, r5, r2, asr #10
     340:	6977535f 	ldmdbvs	r7!, {r0, r1, r2, r3, r4, r6, r8, r9, ip, lr}^
     344:	00686374 	rsbeq	r6, r8, r4, ror r3
     348:	70656542 	rsbvc	r6, r5, r2, asr #10
     34c:	46464f5f 			@ <UNDEFINED> instruction: 0x46464f5f
     350:	4c4c5000 	mcrrmi	0, 0, r5, ip, cr0
     354:	4d52415f 	ldclmi	1, cr4, [r2, #-380]	@ 0xfffffe84
     358:	524c435f 	subpl	r4, ip, #2080374785	@ 0x7c000001
     35c:	6d6f4300 	stclvs	3, cr4, [pc, #-0]	@ 364 <shift+0x364>
     360:	536e6f6d 	cmnpl	lr, #436	@ 0x1b4
     364:	65747379 	ldrbvs	r7, [r4, #-889]!	@ 0xfffffc87
     368:	6f6c436d 	svcvs	0x006c436d
     36c:	495f6b63 	ldmdbmi	pc, {r0, r1, r5, r6, r8, r9, fp, sp, lr}^	@ <UNPREDICTABLE>
     370:	0074696e 	rsbseq	r6, r4, lr, ror #18
     374:	5f444650 	svcpl	0x00444650
     378:	00303834 	eorseq	r3, r0, r4, lsr r8
     37c:	49484443 	stmdbmi	r8, {r0, r1, r6, sl, lr}^
     380:	50005250 	andpl	r5, r0, r0, asr r2
     384:	345f4446 	ldrbcc	r4, [pc], #-1094	@ 38c <shift+0x38c>
     388:	545f3038 	ldrbpl	r3, [pc], #-56	@ 390 <shift+0x390>
     38c:	4300474f 	tstmi	r0, #20709376	@ 0x13c0000
     390:	52534f43 	subspl	r4, r3, #268	@ 0x10c
     394:	4c4c5000 	mcrrmi	0, 0, r5, ip, cr0
     398:	4455415f 	ldrbmi	r4, [r5], #-351	@ 0xfffffea1
     39c:	435f4f49 	cmpmi	pc, #292	@ 0x124
     3a0:	4300524c 	tstmi	r0, #76, 4	@ 0xc0000004
     3a4:	52444353 	subpl	r4, r4, #1275068417	@ 0x4c000001
     3a8:	53430031 	cmppl	r3, #49	@ 0x31
     3ac:	32524443 	subscc	r4, r2, #1124073472	@ 0x43000000
     3b0:	43534300 	cmpmi	r3, #0, 6
     3b4:	00335244 	eorseq	r5, r3, r4, asr #4
     3b8:	45534552 	ldrbmi	r4, [r3, #-1362]	@ 0xfffffaae
     3bc:	44455652 	strbmi	r5, [r5], #-1618	@ 0xfffff9ae
     3c0:	4300315f 	tstmi	r0, #-1073741801	@ 0xc0000017
     3c4:	00525349 	subseq	r5, r2, r9, asr #6
     3c8:	45534552 	ldrbmi	r4, [r3, #-1362]	@ 0xfffffaae
     3cc:	44455652 	strbmi	r5, [r5], #-1618	@ 0xfffff9ae
     3d0:	5200325f 	andpl	r3, r0, #-268435451	@ 0xf0000005
     3d4:	52455345 	subpl	r5, r5, #335544321	@ 0x14000001
     3d8:	5f444556 	svcpl	0x00444556
     3dc:	4c500033 	mrrcmi	0, 3, r0, r0, cr3	@ <UNPREDICTABLE>
     3e0:	53555f4c 	cmppl	r5, #76, 30	@ 0x130
     3e4:	435f3142 	cmpmi	pc, #-2147483632	@ 0x80000010
     3e8:	5200524c 	andpl	r5, r0, #76, 4	@ 0xc0000004
     3ec:	52455345 	subpl	r5, r5, #335544321	@ 0x14000001
     3f0:	5f444556 	svcpl	0x00444556
     3f4:	45520034 	ldrbmi	r0, [r2, #-52]	@ 0xffffffcc
     3f8:	56524553 			@ <UNDEFINED> instruction: 0x56524553
     3fc:	355f4445 	ldrbcc	r4, [pc, #-1093]	@ ffffffbf <__bss_end+0x787fcf7b>
     400:	42535500 	subsmi	r5, r3, #0, 10
     404:	4c505f31 	mrrcmi	15, 3, r5, r0, cr1
     408:	6e495f4c 	cdpvs	15, 4, cr5, cr9, cr12, {2}
     40c:	50007469 	andpl	r7, r0, r9, ror #8
     410:	555f4c4c 	ldrbpl	r4, [pc, #-3148]	@ fffff7cc <__bss_end+0x787fc788>
     414:	00314253 	eorseq	r4, r1, r3, asr r2
     418:	5f4c4c50 	svcpl	0x004c4c50
     41c:	54454e45 	strbpl	r4, [r5], #-3653	@ 0xfffff1bb
     420:	524c435f 	subpl	r4, ip, #2080374785	@ 0x7c000001
     424:	4c4c5000 	mcrrmi	0, 0, r5, ip, cr0
     428:	4253555f 	subsmi	r5, r3, #398458880	@ 0x17c00000
     42c:	4c430032 	mcrrmi	0, 3, r0, r3, cr2
     430:	00524350 	subseq	r4, r2, r0, asr r3
     434:	5f4c4c50 	svcpl	0x004c4c50
     438:	5f4d5241 	svcpl	0x004d5241
     43c:	00474f54 	subeq	r4, r7, r4, asr pc
     440:	4353494d 	cmpmi	r3, #1261568	@ 0x134000
     444:	45535f30 	ldrbmi	r5, [r3, #-3888]	@ 0xfffff0d0
     448:	4c500054 	mrrcmi	0, 5, r0, r0, cr4	@ <UNPREDICTABLE>
     44c:	55415f4c 	strbpl	r5, [r1, #-3916]	@ 0xfffff0b4
     450:	5f4f4944 	svcpl	0x004f4944
     454:	004d554e 	subeq	r5, sp, lr, asr #10
     458:	5f4d4343 	svcpl	0x004d4343
     45c:	4c414e41 	mcrrmi	14, 4, r4, r1, cr1
     460:	545f474f 	ldrbpl	r4, [pc], #-1871	@ 468 <shift+0x468>
     464:	00657079 	rsbeq	r7, r5, r9, ror r0
     468:	5f4c4c50 	svcpl	0x004c4c50
     46c:	49445541 	stmdbmi	r4, {r0, r6, r8, sl, ip, lr}^
     470:	4c50004f 	mrrcmi	0, 4, r0, r0, cr15	@ <UNPREDICTABLE>
     474:	49565f4c 	ldmdbmi	r6, {r2, r3, r6, r8, r9, sl, fp, ip, lr}^
     478:	5f4f4544 	svcpl	0x004f4544
     47c:	00524c43 	subseq	r4, r2, r3, asr #24
     480:	4353494d 	cmpmi	r3, #1261568	@ 0x134000
     484:	4c435f31 	mcrrmi	15, 3, r5, r3, cr1
     488:	53430052 	cmppl	r3, #82	@ 0x52
     48c:	52444332 	subpl	r4, r4, #-939524096	@ 0xc8000000
     490:	4c4c5000 	mcrrmi	0, 0, r5, ip, cr0
     494:	4253555f 	subsmi	r5, r3, #398458880	@ 0x17c00000
     498:	4f545f32 	svcmi	0x00545f32
     49c:	6c430047 	mcrrvs	0, 4, r0, r3, cr7
     4a0:	5f6b636f 	svcpl	0x006b636f
     4a4:	62616e45 	rsbvs	r6, r1, #1104	@ 0x450
     4a8:	435f656c 	cmpmi	pc, #108, 10	@ 0x1b000000
     4ac:	5f524743 	svcpl	0x00524743
     4b0:	75646f4d 	strbvc	r6, [r4, #-3917]!	@ 0xfffff0b3
     4b4:	5000656c 	andpl	r6, r0, ip, ror #10
     4b8:	565f4c4c 	ldrbpl	r4, [pc], -ip, asr #24
     4bc:	4f454449 	svcmi	0x00454449
     4c0:	5445535f 	strbpl	r5, [r5], #-863	@ 0xfffffca1
     4c4:	74756f00 	ldrbtvc	r6, [r5], #-3840	@ 0xfffff100
     4c8:	71657266 	cmnvc	r5, r6, ror #4
     4cc:	44465000 	strbmi	r5, [r6], #-0
     4d0:	3038345f 	eorscc	r3, r8, pc, asr r4
     4d4:	524c435f 	subpl	r4, ip, #2080374785	@ 0x7c000001
     4d8:	4c4c5000 	mcrrmi	0, 0, r5, ip, cr0
     4dc:	4d52415f 	ldclmi	1, cr4, [r2, #-380]	@ 0xfffffe84
     4e0:	5445535f 	strbpl	r5, [r5], #-863	@ 0xfffffca1
     4e4:	4c4c5000 	mcrrmi	0, 0, r5, ip, cr0
     4e8:	4449565f 	strbmi	r5, [r9], #-1631	@ 0xfffff9a1
     4ec:	4e5f4f45 	cdpmi	15, 5, cr4, cr15, cr5, {2}
     4f0:	50004d55 	andpl	r4, r0, r5, asr sp
     4f4:	535f4c4c 	cmppl	pc, #76, 24	@ 0x4c00
     4f8:	435f5359 	cmpmi	pc, #1677721601	@ 0x64000001
     4fc:	5200524c 	andpl	r5, r0, #76, 4	@ 0xc0000004
     500:	52455345 	subpl	r5, r5, #335544321	@ 0x14000001
     504:	5f444556 	svcpl	0x00444556
     508:	4c500030 	mrrcmi	0, 3, r0, r0, cr0	@ <UNPREDICTABLE>
     50c:	52415f4c 	subpl	r5, r1, #76, 30	@ 0x130
     510:	4c50004d 	mrrcmi	0, 4, r0, r0, cr13	@ <UNPREDICTABLE>
     514:	55415f4c 	strbpl	r5, [r1, #-3916]	@ 0xfffff0b4
     518:	5f4f4944 	svcpl	0x004f4944
     51c:	4f4e4544 	svcmi	0x004e4544
     520:	4c50004d 	mrrcmi	0, 4, r0, r0, cr13	@ <UNPREDICTABLE>
     524:	59535f4c 	ldmdbpl	r3, {r2, r3, r6, r8, r9, sl, fp, ip, lr}^
     528:	42430053 	submi	r0, r3, #83	@ 0x53
     52c:	00524443 	subseq	r4, r2, r3, asr #8
     530:	5f4c4c50 	svcpl	0x004c4c50
     534:	31425355 	cmpcc	r2, r5, asr r3
     538:	5445535f 	strbpl	r5, [r5], #-863	@ 0xfffffca1
     53c:	4c4c5000 	mcrrmi	0, 0, r5, ip, cr0
     540:	5359535f 	cmppl	r9, #2080374785	@ 0x7c000001
     544:	0053535f 	subseq	r5, r3, pc, asr r3
     548:	5f4d4343 	svcpl	0x004d4343
     54c:	65707954 	ldrbvs	r7, [r0, #-2388]!	@ 0xfffff6ac
     550:	53494d00 	cmppl	r9, #0, 26
     554:	4d003043 	stcmi	0, cr3, [r0, #-268]	@ 0xfffffef4
     558:	31435349 	cmpcc	r3, r9, asr #6
     55c:	53494d00 	cmppl	r9, #0, 26
     560:	50003243 	andpl	r3, r0, r3, asr #4
     564:	355f4446 	ldrbcc	r4, [pc, #-1094]	@ 126 <shift+0x126>
     568:	545f3832 	ldrbpl	r3, [pc], #-2098	@ 570 <shift+0x570>
     56c:	4300474f 	tstmi	r0, #20709376	@ 0x13c0000
     570:	00524d49 	subseq	r4, r2, r9, asr #26
     574:	4353494d 	cmpmi	r3, #1261568	@ 0x134000
     578:	45535f31 	ldrbmi	r5, [r3, #-3889]	@ 0xfffff0cf
     57c:	47430054 	smlsldmi	r0, r3, r4, r0
     580:	50005250 	andpl	r5, r0, r0, asr r2
     584:	555f4c4c 	ldrbpl	r4, [pc, #-3148]	@ fffff940 <__bss_end+0x787fc8fc>
     588:	5f324253 	svcpl	0x00324253
     58c:	00524c43 	subseq	r4, r2, r3, asr #24
     590:	5f4c4c50 	svcpl	0x004c4c50
     594:	45444956 	strbmi	r4, [r4, #-2390]	@ 0xfffff6aa
     598:	45445f4f 	strbmi	r5, [r4, #-3919]	@ 0xfffff0b1
     59c:	004d4f4e 	subeq	r4, sp, lr, asr #30
     5a0:	4353494d 	cmpmi	r3, #1261568	@ 0x134000
     5a4:	4c435f32 	mcrrmi	15, 3, r5, r3, cr2
     5a8:	4c500052 	mrrcmi	0, 5, r0, r0, cr2	@ <UNPREDICTABLE>
     5ac:	59535f4c 	ldmdbpl	r3, {r2, r3, r6, r8, r9, sl, fp, ip, lr}^
     5b0:	4f545f53 	svcmi	0x00545f53
     5b4:	46500047 	ldrbmi	r0, [r0], -r7, asr #32
     5b8:	38345f44 	ldmdacc	r4!, {r2, r6, r8, r9, sl, fp, ip, lr}
     5bc:	45535f30 	ldrbmi	r5, [r3, #-3888]	@ 0xfffff0d0
     5c0:	48430054 	stmdami	r3, {r2, r4, r6}^
     5c4:	44434353 	strbmi	r4, [r3], #-851	@ 0xfffffcad
     5c8:	6c430052 	mcrrvs	0, 5, r0, r3, cr2
     5cc:	5f6b636f 	svcpl	0x006b636f
     5d0:	62616e45 	rsbvs	r6, r1, #1104	@ 0x450
     5d4:	6c41656c 	mcrrvs	5, 6, r6, r1, cr12
     5d8:	4743436c 	strbmi	r4, [r3, -ip, ror #6]
     5dc:	50490052 	subpl	r0, r9, r2, asr r0
     5e0:	4c435f47 	mcrrmi	15, 4, r5, r3, cr7
     5e4:	4f525f4b 	svcmi	0x00525f4b
     5e8:	495f544f 	ldmdbmi	pc, {r0, r1, r2, r3, r6, sl, ip, lr}^	@ <UNPREDICTABLE>
     5ec:	0074696e 	rsbseq	r6, r4, lr, ror #18
     5f0:	74737953 	ldrbtvc	r7, [r3], #-2387	@ 0xfffff6ad
     5f4:	505f6d65 	subspl	r6, pc, r5, ror #26
     5f8:	495f4c4c 	ldmdbmi	pc, {r2, r3, r6, sl, fp, lr}^	@ <UNPREDICTABLE>
     5fc:	0074696e 	rsbseq	r6, r4, lr, ror #18
     600:	5f4c4c50 	svcpl	0x004c4c50
     604:	5f535953 	svcpl	0x00535953
     608:	00544553 	subseq	r4, r4, r3, asr r5
     60c:	5f766964 	svcpl	0x00766964
     610:	006c6573 	rsbeq	r6, ip, r3, ror r5
     614:	4353494d 	cmpmi	r3, #1261568	@ 0x134000
     618:	4f545f30 	svcmi	0x00545f30
     61c:	52410047 	subpl	r0, r1, #71	@ 0x47
     620:	4c505f4d 	mrrcmi	15, 4, r5, r0, cr13
     624:	6e495f4c 	cdpvs	15, 4, cr5, cr9, cr12, {2}
     628:	50007469 	andpl	r7, r0, r9, ror #8
     62c:	355f4446 	ldrbcc	r4, [pc, #-1094]	@ 1ee <shift+0x1ee>
     630:	435f3832 	cmpmi	pc, #3276800	@ 0x320000
     634:	5000524c 	andpl	r5, r0, ip, asr #4
     638:	4c435245 	mcrrmi	2, 4, r5, r3, cr5
     63c:	4c435f4b 	mcrrmi	15, 4, r5, r3, cr11
     640:	4f525f4b 	svcmi	0x00525f4b
     644:	495f544f 	ldmdbmi	pc, {r0, r1, r2, r3, r6, sl, ip, lr}^	@ <UNPREDICTABLE>
     648:	0074696e 	rsbseq	r6, r4, lr, ror #18
     64c:	5f4c4c50 	svcpl	0x004c4c50
     650:	54454e45 	strbpl	r4, [r5], #-3653	@ 0xfffff1bb
     654:	5445535f 	strbpl	r5, [r5], #-863	@ 0xfffffca1
     658:	4c4c5000 	mcrrmi	0, 0, r5, ip, cr0
     65c:	4253555f 	subsmi	r5, r3, #398458880	@ 0x17c00000
     660:	45535f32 	ldrbmi	r5, [r3, #-3890]	@ 0xfffff0ce
     664:	42430054 	submi	r0, r3, #84	@ 0x54
     668:	00524d43 	subseq	r4, r2, r3, asr #26
     66c:	5f424841 	svcpl	0x00424841
     670:	5f4b4c43 	svcpl	0x004b4c43
     674:	544f4f52 	strbpl	r4, [pc], #-3922	@ 67c <shift+0x67c>
     678:	696e495f 	stmdbvs	lr!, {r0, r1, r2, r3, r4, r6, r8, fp, lr}^
     67c:	43430074 	cmpmi	r3, #116	@ 0x74
     680:	43005253 	tstmi	r0, #805306373	@ 0x30000005
     684:	30524743 	subscc	r4, r2, r3, asr #14
     688:	47434300 	strbmi	r4, [r3, -r0, lsl #6]
     68c:	43003152 	tstmi	r0, #-2147483628	@ 0x80000014
     690:	32524743 	subscc	r4, r2, #17563648	@ 0x10c0000
     694:	47434300 	strbmi	r4, [r3, -r0, lsl #6]
     698:	43003352 	tstmi	r0, #1207959553	@ 0x48000001
     69c:	34524743 	ldrbcc	r4, [r2], #-1859	@ 0xfffff8bd
     6a0:	47434300 	strbmi	r4, [r3, -r0, lsl #6]
     6a4:	43003552 	tstmi	r0, #343932928	@ 0x14800000
     6a8:	36524743 	ldrbcc	r4, [r2], -r3, asr #14
     6ac:	53455200 	cmppl	r5, #0, 4
     6b0:	45565245 	ldrbmi	r5, [r6, #-581]	@ 0xfffffdbb
     6b4:	00365f44 	eorseq	r5, r6, r4, asr #30
     6b8:	45534552 	ldrbmi	r4, [r3, #-1362]	@ 0xfffffaae
     6bc:	44455652 	strbmi	r5, [r5], #-1618	@ 0xfffff9ae
     6c0:	5000375f 	andpl	r3, r0, pc, asr r7
     6c4:	455f4c4c 	ldrbmi	r4, [pc, #-3148]	@ fffffa80 <__bss_end+0x787fca3c>
     6c8:	0054454e 	subseq	r4, r4, lr, asr #10
     6cc:	2f707362 	svccs	0x00707362
     6d0:	636f6c63 	cmnvs	pc, #25344	@ 0x6300
     6d4:	6c632f6b 	stclvs	15, cr2, [r3], #-428	@ 0xfffffe54
     6d8:	2e6b636f 	cdpcs	3, 6, cr6, cr11, cr15, {3}
     6dc:	4c500063 	mrrcmi	0, 6, r0, r0, cr3	@ <UNPREDICTABLE>
     6e0:	49565f4c 	ldmdbmi	r6, {r2, r3, r6, r8, r9, sl, fp, ip, lr}^
     6e4:	004f4544 	subeq	r4, pc, r4, asr #10
     6e8:	64696763 	strbtvs	r6, [r9], #-1891	@ 0xfffff89d
     6ec:	4c4c5000 	mcrrmi	0, 0, r5, ip, cr0
     6f0:	4455415f 	ldrbmi	r4, [r5], #-351	@ 0xfffffea1
     6f4:	545f4f49 	ldrbpl	r4, [pc], #-3913	@ 6fc <shift+0x6fc>
     6f8:	4d00474f 	stcmi	7, cr4, [r0, #-316]	@ 0xfffffec4
     6fc:	32435349 	subcc	r5, r3, #603979777	@ 0x24000001
     700:	5445535f 	strbpl	r5, [r5], #-863	@ 0xfffffca1
     704:	43414300 	cmpmi	r1, #0, 6
     708:	4d005252 	stcmi	2, cr5, [r0, #-328]	@ 0xfffffeb8
     70c:	30435349 	subcc	r5, r3, r9, asr #6
     710:	524c435f 	subpl	r4, ip, #2080374785	@ 0x7c000001
     714:	4c4c5000 	mcrrmi	0, 0, r5, ip, cr0
     718:	4253555f 	subsmi	r5, r3, #398458880	@ 0x17c00000
     71c:	4f545f31 	svcmi	0x00545f31
     720:	4c500047 	mrrcmi	0, 4, r0, r0, cr7	@ <UNPREDICTABLE>
     724:	59535f4c 	ldmdbpl	r3, {r2, r3, r6, r8, r9, sl, fp, ip, lr}^
     728:	554e5f53 	strbpl	r5, [lr, #-3923]	@ 0xfffff0ad
     72c:	4443004d 	strbmi	r0, [r3], #-77	@ 0xffffffb3
     730:	00524443 	subseq	r4, r2, r3, asr #8
     734:	5f444650 	svcpl	0x00444650
     738:	00383235 	eorseq	r3, r8, r5, lsr r2
     73c:	43315343 	teqmi	r1, #201326593	@ 0xc000001
     740:	50005244 	andpl	r5, r0, r4, asr #4
     744:	415f4c4c 	cmpmi	pc, ip, asr #24
     748:	4f494455 	svcmi	0x00494455
     74c:	5445535f 	strbpl	r5, [r5], #-863	@ 0xfffffca1
     750:	53494d00 	cmppl	r9, #0, 26
     754:	545f3243 	ldrbpl	r3, [pc], #-579	@ 75c <shift+0x75c>
     758:	5000474f 	andpl	r4, r0, pc, asr #14
     75c:	455f4c4c 	ldrbmi	r4, [pc, #-3148]	@ fffffb18 <__bss_end+0x787fcad4>
     760:	5f54454e 	svcpl	0x0054454e
     764:	00474f54 	subeq	r4, r7, r4, asr pc
     768:	4f454d43 	svcmi	0x00454d43
     76c:	53430052 	cmppl	r3, #82	@ 0x52
     770:	31524d43 	cmpcc	r2, r3, asr #26
     774:	6f6c4300 	svcvs	0x006c4300
     778:	445f6b63 	ldrbmi	r6, [pc], #-2915	@ 780 <shift+0x780>
     77c:	62617369 	rsbvs	r7, r1, #-1543503871	@ 0xa4000001
     780:	435f656c 	cmpmi	pc, #108, 10	@ 0x1b000000
     784:	5f524743 	svcpl	0x00524743
     788:	75646f4d 	strbvc	r6, [r4, #-3917]!	@ 0xfffff0b3
     78c:	5000656c 	andpl	r6, r0, ip, ror #10
     790:	355f4446 	ldrbcc	r4, [pc, #-1094]	@ 352 <shift+0x352>
     794:	535f3832 	cmppl	pc, #3276800	@ 0x320000
     798:	43005445 	tstmi	r0, #1157627904	@ 0x45000000
     79c:	524d4353 	subpl	r4, sp, #1275068417	@ 0x4c000001
     7a0:	4c500032 	mrrcmi	0, 3, r0, r0, cr2	@ <UNPREDICTABLE>
     7a4:	59535f4c 	ldmdbpl	r3, {r2, r3, r6, r8, r9, sl, fp, ip, lr}^
     7a8:	45445f53 	strbmi	r5, [r4, #-3923]	@ 0xfffff0ad
     7ac:	004d4f4e 	subeq	r4, sp, lr, asr #30
     7b0:	5f706d74 	svcpl	0x00706d74
     7b4:	00676572 	rsbeq	r6, r7, r2, ror r5
     7b8:	5f4c4c50 	svcpl	0x004c4c50
     7bc:	45444956 	strbmi	r4, [r4, #-2390]	@ 0xfffff6aa
     7c0:	4f545f4f 	svcmi	0x00545f4f
     7c4:	494d0047 	stmdbmi	sp, {r0, r1, r2, r6}^
     7c8:	5f314353 	svcpl	0x00314353
     7cc:	00474f54 	subeq	r4, r7, r4, asr pc
     7d0:	42474e52 	submi	r4, r7, #1312	@ 0x520
     7d4:	5152495f 	cmppl	r2, pc, asr r9
     7d8:	6466006e 	strbtvs	r0, [r6], #-110	@ 0xffffff92
     7dc:	44007669 	strmi	r7, [r0], #-1641	@ 0xfffff997
     7e0:	5059545f 	subspl	r5, r9, pc, asr r4
     7e4:	47005245 	strmi	r5, [r0, -r5, asr #4]
     7e8:	314f4950 	cmpcc	pc, r0, asr r9	@ <UNPREDICTABLE>
     7ec:	544e495f 	strbpl	r4, [lr], #-2399	@ 0xfffff6a1
     7f0:	52495f30 	subpl	r5, r9, #48, 30	@ 0xc0
     7f4:	43006e51 	tstmi	r0, #1296	@ 0x510
     7f8:	5f314e41 	svcpl	0x00314e41
     7fc:	6e515249 	cdpvs	2, 5, cr5, cr1, cr9, {2}
     800:	49504700 	ldmdbmi	r0, {r8, r9, sl, lr}^
     804:	435f324f 	cmpmi	pc, #-268435452	@ 0xf0000004
     808:	69626d6f 	stmdbvs	r2!, {r0, r1, r2, r3, r5, r6, r8, sl, fp, sp, lr}^
     80c:	5f64656e 	svcpl	0x0064656e
     810:	335f3631 	cmpcc	pc, #51380224	@ 0x3100000
     814:	52495f31 	subpl	r5, r9, #49, 30	@ 0xc4
     818:	55006e51 	strpl	r6, [r0, #-3665]	@ 0xfffff1af
     81c:	4f5f4253 	svcmi	0x005f4253
     820:	5f324754 	svcpl	0x00324754
     824:	6e515249 	cdpvs	2, 5, cr5, cr1, cr9, {2}
     828:	54435300 	strbpl	r5, [r3], #-768	@ 0xfffffd00
     82c:	52495f52 	subpl	r5, r9, #328	@ 0x148
     830:	495f3151 	ldmdbmi	pc, {r0, r4, r6, r8, ip, sp}^	@ <UNPREDICTABLE>
     834:	006e5152 	rsbeq	r5, lr, r2, asr r1
     838:	74666f53 	strbtvc	r6, [r6], #-3923	@ 0xfffff0ad
     83c:	65726177 	ldrbvs	r6, [r2, #-375]!	@ 0xfffffe89
     840:	495f3431 	ldmdbmi	pc, {r0, r4, r5, sl, ip, sp}^	@ <UNPREDICTABLE>
     844:	006e5152 	rsbeq	r5, lr, r2, asr r1
     848:	49505f44 	ldmdbmi	r0, {r2, r6, r8, r9, sl, fp, ip, lr}^
     84c:	00315244 	eorseq	r5, r1, r4, asr #4
     850:	49505f44 	ldmdbmi	r0, {r2, r6, r8, r9, sl, fp, ip, lr}^
     854:	00325244 	eorseq	r5, r2, r4, asr #4
     858:	41495f43 	cmpmi	r9, r3, asr #30
     85c:	6f530052 	svcvs	0x00530052
     860:	61777466 	cmnvs	r7, r6, ror #8
     864:	5f356572 	svcpl	0x00356572
     868:	6e515249 	cdpvs	2, 5, cr5, cr1, cr9, {2}
     86c:	49504500 	ldmdbmi	r0, {r8, sl, lr}^
     870:	495f3254 	ldmdbmi	pc, {r2, r4, r6, r9, ip, sp}^	@ <UNPREDICTABLE>
     874:	485f746e 	ldmdami	pc, {r1, r2, r3, r5, r6, sl, ip, sp, lr}^	@ <UNPREDICTABLE>
     878:	6c646e61 	stclvs	14, cr6, [r4], #-388	@ 0xfffffe7c
     87c:	43007265 	tstmi	r0, #1342177286	@ 0x50000006
     880:	0052504d 	subseq	r5, r2, sp, asr #32
     884:	54495045 	strbpl	r5, [r9], #-69	@ 0xffffffbb
     888:	6e495f31 	mcrvs	15, 2, r5, cr9, cr1, {1}
     88c:	61485f74 	cmpvs	r8, r4, ror pc
     890:	656c646e 	strbvs	r6, [ip, #-1134]!	@ 0xfffffb92
     894:	41550072 	cmpmi	r5, r2, ror r0
     898:	5f365452 	svcpl	0x00365452
     89c:	6e515249 	cdpvs	2, 5, cr5, cr1, cr9, {2}
     8a0:	73655200 	cmnvc	r5, #0, 4
     8a4:	65767265 	ldrbvs	r7, [r6, #-613]!	@ 0xfffffd9b
     8a8:	37353164 	ldrcc	r3, [r5, -r4, ror #2]!
     8ac:	5152495f 	cmppl	r2, pc, asr r9
     8b0:	6956006e 	ldmdbvs	r6, {r1, r2, r3, r5, r6}^
     8b4:	61757472 	cmnvs	r5, r2, ror r4
     8b8:	6d69546c 	stclvs	4, cr5, [r9, #-432]!	@ 0xfffffe50
     8bc:	495f7265 	ldmdbmi	pc, {r0, r2, r5, r6, r9, ip, sp, lr}^	@ <UNPREDICTABLE>
     8c0:	006e5152 	rsbeq	r5, lr, r2, asr r1
     8c4:	616c6564 	cmnvs	ip, r4, ror #10
     8c8:	43440079 	cmpmi	r4, #121	@ 0x79
     8cc:	4d565f50 	ldclmi	15, cr5, [r6, #-320]	@ 0xfffffec0
     8d0:	52495f49 	subpl	r5, r9, #292	@ 0x124
     8d4:	52495f51 	subpl	r5, r9, #324	@ 0x144
     8d8:	55006e51 	strpl	r6, [r0, #-3665]	@ 0xfffff1af
     8dc:	4f5f4253 	svcmi	0x005f4253
     8e0:	5f314754 	svcpl	0x00314754
     8e4:	6e515249 	cdpvs	2, 5, cr5, cr1, cr9, {2}
     8e8:	49504700 	ldmdbmi	r0, {r8, r9, sl, lr}^
     8ec:	435f324f 	cmpmi	pc, #-268435452	@ 0xf0000004
     8f0:	69626d6f 	stmdbvs	r2!, {r0, r1, r2, r3, r5, r6, r8, sl, fp, sp, lr}^
     8f4:	5f64656e 	svcpl	0x0064656e
     8f8:	35315f30 	ldrcc	r5, [r1, #-3888]!	@ 0xfffff0d0
     8fc:	5152495f 	cmppl	r2, pc, asr r9
     900:	4947006e 	stmdbmi	r7, {r1, r2, r3, r5, r6}^
     904:	79545f43 	ldmdbvc	r4, {r0, r1, r6, r8, r9, sl, fp, ip, lr}^
     908:	53006570 	tstpl	r0, #112, 10	@ 0x1c000000
     90c:	7774666f 	ldrbvc	r6, [r4, -pc, ror #12]!
     910:	31657261 	cmncc	r5, r1, ror #4
     914:	52495f33 	subpl	r5, r9, #51, 30	@ 0xcc
     918:	4c006e51 	stcmi	14, cr6, [r0], {81}	@ 0x51
     91c:	63616765 	cmnvs	r1, #26476544	@ 0x1940000
     920:	51524979 	cmppl	r2, r9, ror r9
     924:	5152495f 	cmppl	r2, pc, asr r9
     928:	4a53006e 	bmi	14c0ae8 <shift+0x14c0ae8>
     92c:	52495f43 	subpl	r5, r9, #268	@ 0x10c
     930:	55006e51 	strpl	r6, [r0, #-3665]	@ 0xfffff1af
     934:	43484453 	cmpmi	r8, #1392508928	@ 0x53000000
     938:	52495f32 	subpl	r5, r9, #50, 30	@ 0xc8
     93c:	41006e51 	tstmi	r0, r1, asr lr
     940:	355f4344 	ldrbcc	r4, [pc, #-836]	@ 604 <shift+0x604>
     944:	495f4348 	ldmdbmi	pc, {r3, r6, r8, r9, lr}^	@ <UNPREDICTABLE>
     948:	006e5152 	rsbeq	r5, lr, r2, asr r1
     94c:	65736552 	ldrbvs	r6, [r3, #-1362]!	@ 0xfffffaae
     950:	64657672 	strbtvs	r7, [r5], #-1650	@ 0xfffff98e
     954:	5f393031 	svcpl	0x00393031
     958:	6e515249 	cdpvs	2, 5, cr5, cr1, cr9, {2}
     95c:	44505300 	ldrbmi	r5, [r0], #-768	@ 0xfffffd00
     960:	495f4649 	ldmdbmi	pc, {r0, r3, r6, r9, sl, lr}^	@ <UNPREDICTABLE>
     964:	006e5152 	rsbeq	r5, lr, r2, asr r1
     968:	5f425355 	svcpl	0x00425355
     96c:	32594850 	subscc	r4, r9, #80, 16	@ 0x500000
     970:	5152495f 	cmppl	r2, pc, asr r9
     974:	5f44006e 	svcpl	0x0044006e
     978:	53495050 	cmppl	r9, #80	@ 0x50
     97c:	5f440052 	svcpl	0x00440052
     980:	45504349 	ldrbmi	r4, [r0, #-841]	@ 0xfffffcb7
     984:	0052444e 	subseq	r4, r2, lr, asr #8
     988:	54495045 	strbpl	r5, [r9], #-69	@ 0xffffffbb
     98c:	74535f31 	ldrbvc	r5, [r3], #-3889	@ 0xfffff0cf
     990:	00747261 	rsbseq	r7, r4, r1, ror #4
     994:	534e5f43 	cmppl	lr, #268	@ 0x10c
     998:	30525041 	subscc	r5, r2, r1, asr #32
     99c:	73657400 	cmnvc	r5, #0, 8
     9a0:	57500074 			@ <UNDEFINED> instruction: 0x57500074
     9a4:	495f374d 	ldmdbmi	pc, {r0, r2, r3, r6, r8, r9, sl, ip, sp}^	@ <UNPREDICTABLE>
     9a8:	006e5152 	rsbeq	r5, lr, r2, asr r1
     9ac:	54495045 	strbpl	r5, [r9], #-69	@ 0xffffffbb
     9b0:	52495f31 	subpl	r5, r9, #49, 30	@ 0xc4
     9b4:	49006e51 	stmdbmi	r0, {r0, r4, r6, r9, sl, fp, sp, lr}
     9b8:	5f334332 	svcpl	0x00334332
     9bc:	6e515249 	cdpvs	2, 5, cr5, cr1, cr9, {2}
     9c0:	49504700 	ldmdbmi	r0, {r8, r9, sl, lr}^
     9c4:	495f314f 	ldmdbmi	pc, {r0, r1, r2, r3, r6, r8, ip, sp}^	@ <UNPREDICTABLE>
     9c8:	5f33544e 	svcpl	0x0033544e
     9cc:	6e515249 	cdpvs	2, 5, cr5, cr1, cr9, {2}
     9d0:	44535500 	ldrbmi	r5, [r3], #-1280	@ 0xfffffb00
     9d4:	5f314348 	svcpl	0x00314348
     9d8:	6e515249 	cdpvs	2, 5, cr5, cr1, cr9, {2}
     9dc:	73655200 	cmnvc	r5, #0, 4
     9e0:	65767265 	ldrbvs	r7, [r6, #-613]!	@ 0xfffffd9b
     9e4:	38303164 	ldmdacc	r0!, {r2, r5, r6, r8, ip, sp}
     9e8:	5152495f 	cmppl	r2, pc, asr r9
     9ec:	5f43006e 	svcpl	0x0043006e
     9f0:	52494f45 	subpl	r4, r9, #276	@ 0x114
     9f4:	73655200 	cmnvc	r5, #0, 4
     9f8:	65767265 	ldrbvs	r7, [r6, #-613]!	@ 0xfffffd9b
     9fc:	36353164 	ldrtcc	r3, [r5], -r4, ror #2
     a00:	5152495f 	cmppl	r2, pc, asr r9
     a04:	6176006e 	cmnvs	r6, lr, rrx
     a08:	5f65756c 	svcpl	0x0065756c
     a0c:	6500736d 	strvs	r7, [r0, #-877]	@ 0xfffffc93
     a10:	49505343 	ldmdbmi	r0, {r0, r1, r6, r8, r9, ip, lr}^
     a14:	52495f34 	subpl	r5, r9, #52, 30	@ 0xd0
     a18:	45006e51 	strmi	r6, [r0, #-3665]	@ 0xfffff1af
     a1c:	32544950 	subscc	r4, r4, #80, 18	@ 0x140000
     a20:	696e495f 	stmdbvs	lr!, {r0, r1, r2, r3, r4, r6, r8, fp, lr}^
     a24:	44530074 	ldrbmi	r0, [r3], #-116	@ 0xffffff8c
     a28:	495f414d 	ldmdbmi	pc, {r0, r2, r3, r6, r8, lr}^	@ <UNPREDICTABLE>
     a2c:	006e5152 	rsbeq	r5, lr, r2, asr r1
     a30:	45534552 	ldrbmi	r4, [r3, #-1362]	@ 0xfffffaae
     a34:	44455652 	strbmi	r5, [r5], #-1618	@ 0xfffff9ae
     a38:	45520030 	ldrbmi	r0, [r2, #-48]	@ 0xffffffd0
     a3c:	56524553 			@ <UNDEFINED> instruction: 0x56524553
     a40:	00314445 	eorseq	r4, r1, r5, asr #8
     a44:	45534552 	ldrbmi	r4, [r3, #-1362]	@ 0xfffffaae
     a48:	44455652 	strbmi	r5, [r5], #-1618	@ 0xfffff9ae
     a4c:	45520033 	ldrbmi	r0, [r2, #-51]	@ 0xffffffcd
     a50:	56524553 			@ <UNDEFINED> instruction: 0x56524553
     a54:	00344445 	eorseq	r4, r4, r5, asr #8
     a58:	45534552 	ldrbmi	r4, [r3, #-1362]	@ 0xfffffaae
     a5c:	44455652 	strbmi	r5, [r5], #-1618	@ 0xfffff9ae
     a60:	45520035 	ldrbmi	r0, [r2, #-53]	@ 0xffffffcb
     a64:	56524553 			@ <UNDEFINED> instruction: 0x56524553
     a68:	00364445 	eorseq	r4, r6, r5, asr #8
     a6c:	6167654c 	cmnvs	r7, ip, asr #10
     a70:	61467963 	cmpvs	r6, r3, ror #18
     a74:	6e497473 	mcrvs	4, 2, r7, cr9, cr3, {3}
     a78:	52495f74 	subpl	r5, r9, #116, 30	@ 0x1d0
     a7c:	52006e51 	andpl	r6, r0, #1296	@ 0x510
     a80:	52455345 	subpl	r5, r5, #335544321	@ 0x14000001
     a84:	38444556 	stmdacc	r4, {r1, r2, r4, r6, r8, sl, lr}^
     a88:	53455200 	cmppl	r5, #0, 4
     a8c:	45565245 	ldrbmi	r5, [r6, #-581]	@ 0xfffffdbb
     a90:	49003944 	stmdbmi	r0, {r2, r6, r8, fp, ip, sp}
     a94:	5f324332 	svcpl	0x00324332
     a98:	6e515249 	cdpvs	2, 5, cr5, cr1, cr9, {2}
     a9c:	52534100 	subspl	r4, r3, #0, 2
     aa0:	52495f43 	subpl	r5, r9, #268	@ 0x10c
     aa4:	53006e51 	tstpl	r0, #1296	@ 0x510
     aa8:	7774666f 	ldrbvc	r6, [r4, -pc, ror #12]!
     aac:	38657261 	stmdacc	r5!, {r0, r5, r6, r9, ip, sp, lr}^
     ab0:	5152495f 	cmppl	r2, pc, asr r9
     ab4:	5f44006e 	svcpl	0x0044006e
     ab8:	4e455043 	cdpmi	0, 4, cr5, cr5, cr3, {2}
     abc:	49475344 	stmdbmi	r7, {r2, r6, r8, r9, ip, lr}^
     ac0:	45540052 	ldrbmi	r0, [r4, #-82]	@ 0xffffffae
     ac4:	4f4d504d 	svcmi	0x004d504d
     ac8:	52495f4e 	subpl	r5, r9, #312	@ 0x138
     acc:	47006e51 	smlsdmi	r0, r1, lr, r6
     ad0:	334f4950 	cmpcc	pc, #80, 18	@ 0x140000
     ad4:	6d6f435f 	stclvs	3, cr4, [pc, #-380]!	@ 960 <shift+0x960>
     ad8:	656e6962 	strbvs	r6, [lr, #-2402]!	@ 0xfffff69e
     adc:	36315f64 	ldrtcc	r5, [r1], -r4, ror #30
     ae0:	5f31335f 	svcpl	0x0031335f
     ae4:	6e515249 	cdpvs	2, 5, cr5, cr1, cr9, {2}
     ae8:	53455200 	cmppl	r5, #0, 4
     aec:	45565245 	ldrbmi	r5, [r6, #-581]	@ 0xfffffdbb
     af0:	45003244 	strmi	r3, [r0, #-580]	@ 0xfffffdbc
     af4:	3254454e 	subscc	r4, r4, #327155712	@ 0x13800000
     af8:	3835315f 	ldmdacc	r5!, {r0, r1, r2, r3, r4, r6, r8, ip, sp}
     afc:	52495f38 	subpl	r5, r9, #56, 30	@ 0xe0
     b00:	52006e51 	andpl	r6, r0, #1296	@ 0x510
     b04:	52455345 	subpl	r5, r5, #335544321	@ 0x14000001
     b08:	37444556 	smlsldcc	r4, r4, r6, r5	@ <UNPREDICTABLE>
     b0c:	415f4300 	cmpmi	pc, r0, lsl #6
     b10:	00524149 	subseq	r4, r2, r9, asr #2
     b14:	65736552 	ldrbvs	r6, [r3, #-1362]!	@ 0xfffffaae
     b18:	64657672 	strbtvs	r7, [r5], #-1650	@ 0xfffff98e
     b1c:	5f323231 	svcpl	0x00323231
     b20:	6e515249 	cdpvs	2, 5, cr5, cr1, cr9, {2}
     b24:	666f5300 	strbtvs	r5, [pc], -r0, lsl #6
     b28:	72617774 	rsbvc	r7, r1, #116, 14	@ 0x1d00000
     b2c:	495f3165 	ldmdbmi	pc, {r0, r2, r5, r6, r8, ip, sp}^	@ <UNPREDICTABLE>
     b30:	006e5152 	rsbeq	r5, lr, r2, asr r1
     b34:	47535f44 	ldrbmi	r5, [r3, -r4, asr #30]
     b38:	45005249 	strmi	r5, [r0, #-585]	@ 0xfffffdb7
     b3c:	3154454e 	cmpcc	r4, lr, asr #10
     b40:	3835315f 	ldmdacc	r5!, {r0, r1, r2, r3, r4, r6, r8, ip, sp}
     b44:	52495f38 	subpl	r5, r9, #56, 30	@ 0xe0
     b48:	43006e51 	tstmi	r0, #1296	@ 0x510
     b4c:	495f4d43 	ldmdbmi	pc, {r0, r1, r6, r8, sl, fp, lr}^	@ <UNPREDICTABLE>
     b50:	5f325152 	svcpl	0x00325152
     b54:	6e515249 	cdpvs	2, 5, cr5, cr1, cr9, {2}
     b58:	73655200 	cmnvc	r5, #0, 4
     b5c:	65767265 	ldrbvs	r7, [r6, #-613]!	@ 0xfffffd9b
     b60:	31313164 	teqcc	r1, r4, ror #2
     b64:	5152495f 	cmppl	r2, pc, asr r9
     b68:	5f44006e 	svcpl	0x0044006e
     b6c:	43414349 	cmpmi	r1, #603979777	@ 0x24000001
     b70:	45564954 	ldrbmi	r4, [r6, #-2388]	@ 0xfffff6ac
     b74:	5f430052 	svcpl	0x00430052
     b78:	524c5443 	subpl	r5, ip, #1124073472	@ 0x43000000
     b7c:	415a5400 	cmpmi	sl, r0, lsl #8
     b80:	495f4353 	ldmdbmi	pc, {r0, r1, r4, r6, r8, r9, lr}^	@ <UNPREDICTABLE>
     b84:	006e5152 	rsbeq	r5, lr, r2, asr r1
     b88:	54524155 	ldrbpl	r4, [r2], #-341	@ 0xfffffeab
     b8c:	52495f32 	subpl	r5, r9, #50, 30	@ 0xc8
     b90:	4b006e51 	blmi	1c4dc <shift+0x1c4dc>
     b94:	495f5050 	ldmdbmi	pc, {r4, r6, ip, lr}^	@ <UNPREDICTABLE>
     b98:	006e5152 	rsbeq	r5, lr, r2, asr r1
     b9c:	31494153 	cmpcc	r9, r3, asr r1
     ba0:	5152495f 	cmppl	r2, pc, asr r9
     ba4:	7973006e 	ldmdbvc	r3!, {r1, r2, r3, r5, r6}^
     ba8:	6d657473 	stclvs	4, cr7, [r5, #-460]!	@ 0xfffffe34
     bac:	7172695f 	cmnvc	r2, pc, asr r9
     bb0:	6e61685f 	mcrvs	8, 3, r6, cr1, cr15, {2}
     bb4:	72656c64 	rsbvc	r6, r5, #100, 24	@ 0x6400
     bb8:	5500745f 	strpl	r7, [r0, #-1119]	@ 0xfffffba1
     bbc:	38545241 	ldmdacc	r4, {r0, r6, r9, ip, lr}^
     bc0:	5152495f 	cmppl	r2, pc, asr r9
     bc4:	6f4e006e 	svcvs	0x004e006e
     bc8:	6365536e 	cmnvs	r5, #-1207959551	@ 0xb8000001
     bcc:	50657275 	rsbpl	r7, r5, r5, ror r2
     bd0:	69547968 	ldmdbvs	r4, {r3, r5, r6, r8, fp, ip, sp, lr}^
     bd4:	5f72656d 	svcpl	0x0072656d
     bd8:	6e515249 	cdpvs	2, 5, cr5, cr1, cr9, {2}
     bdc:	666f5300 	strbtvs	r5, [pc], -r0, lsl #6
     be0:	72617774 	rsbvc	r7, r1, #116, 14	@ 0x1d00000
     be4:	495f3065 	ldmdbmi	pc, {r0, r2, r5, r6, ip, sp}^	@ <UNPREDICTABLE>
     be8:	006e5152 	rsbeq	r5, lr, r2, asr r1
     bec:	4d414143 	stclmi	1, cr4, [r1, #-268]	@ 0xfffffef4
     bf0:	626f4a5f 	rsbvs	r4, pc, #389120	@ 0x5f000
     bf4:	6e69525f 	mcrvs	2, 3, r5, cr9, cr15, {2}
     bf8:	495f3167 	ldmdbmi	pc, {r0, r1, r2, r5, r6, r8, ip, sp}^	@ <UNPREDICTABLE>
     bfc:	006e5152 	rsbeq	r5, lr, r2, asr r1
     c00:	32545047 	subscc	r5, r4, #71	@ 0x47
     c04:	5152495f 	cmppl	r2, pc, asr r9
     c08:	4457006e 	ldrbmi	r0, [r7], #-110	@ 0xffffff92
     c0c:	5f33474f 	svcpl	0x0033474f
     c10:	6e515249 	cdpvs	2, 5, cr5, cr1, cr9, {2}
     c14:	49504700 	ldmdbmi	r0, {r8, r9, sl, lr}^
     c18:	495f314f 	ldmdbmi	pc, {r0, r1, r2, r3, r6, r8, ip, sp}^	@ <UNPREDICTABLE>
     c1c:	5f36544e 	svcpl	0x0036544e
     c20:	6e515249 	cdpvs	2, 5, cr5, cr1, cr9, {2}
     c24:	525f4300 	subspl	r4, pc, #0, 6
     c28:	43005250 	tstmi	r0, #80, 4
     c2c:	5250425f 	subspl	r4, r0, #-268435451	@ 0xf0000005
     c30:	52415500 	subpl	r5, r1, #0, 10
     c34:	495f3154 	ldmdbmi	pc, {r2, r4, r6, r8, ip, sp}^	@ <UNPREDICTABLE>
     c38:	006e5152 	rsbeq	r5, lr, r2, asr r1
     c3c:	5f555043 	svcpl	0x00555043
     c40:	66726550 			@ <UNDEFINED> instruction: 0x66726550
     c44:	616d726f 	cmnvs	sp, pc, ror #4
     c48:	5565636e 	strbpl	r6, [r5, #-878]!	@ 0xfffffc92
     c4c:	5f74696e 	svcpl	0x0074696e
     c50:	6e515249 	cdpvs	2, 5, cr5, cr1, cr9, {2}
     c54:	4d575000 	ldclmi	0, cr5, [r7, #-0]
     c58:	52495f33 	subpl	r5, r9, #51, 30	@ 0xcc
     c5c:	53006e51 	tstpl	r0, #1296	@ 0x510
     c60:	5f53564e 	svcpl	0x0053564e
     c64:	6e515249 	cdpvs	2, 5, cr5, cr1, cr9, {2}
     c68:	73655200 	cmnvc	r5, #0, 4
     c6c:	65767265 	ldrbvs	r7, [r6, #-613]!	@ 0xfffffd9b
     c70:	31333164 	teqcc	r3, r4, ror #2
     c74:	5152495f 	cmppl	r2, pc, asr r9
     c78:	4457006e 	ldrbmi	r0, [r7], #-110	@ 0xffffff92
     c7c:	5f32474f 	svcpl	0x0032474f
     c80:	6e515249 	cdpvs	2, 5, cr5, cr1, cr9, {2}
     c84:	485f4300 	ldmdami	pc, {r8, r9, lr}^	@ <UNPREDICTABLE>
     c88:	52495050 	subpl	r5, r9, #80	@ 0x50
     c8c:	49534300 	ldmdbmi	r3, {r8, r9, lr}^
     c90:	5152495f 	cmppl	r2, pc, asr r9
     c94:	5047006e 	subpl	r0, r7, lr, rrx
     c98:	5f354f49 	svcpl	0x00354f49
     c9c:	626d6f43 	rsbvs	r6, sp, #268	@ 0x10c
     ca0:	64656e69 	strbtvs	r6, [r5], #-3689	@ 0xfffff197
     ca4:	315f305f 	cmpcc	pc, pc, asr r0	@ <UNPREDICTABLE>
     ca8:	52495f35 	subpl	r5, r9, #53, 30	@ 0xd4
     cac:	53006e51 	tstpl	r0, #1296	@ 0x510
     cb0:	5f525443 	svcpl	0x00525443
     cb4:	30515249 	subscc	r5, r1, r9, asr #4
     cb8:	5152495f 	cmppl	r2, pc, asr r9
     cbc:	5249006e 	subpl	r0, r9, #110	@ 0x6e
     cc0:	545f6e51 	ldrbpl	r6, [pc], #-3665	@ cc8 <shift+0xcc8>
     cc4:	00657079 	rsbeq	r7, r5, r9, ror r0
     cc8:	5f505850 	svcpl	0x00505850
     ccc:	31515249 	cmpcc	r1, r9, asr #4
     cd0:	5152495f 	cmppl	r2, pc, asr r9
     cd4:	5750006e 	ldrbpl	r0, [r0, -lr, rrx]
     cd8:	495f324d 	ldmdbmi	pc, {r0, r2, r3, r6, r9, ip, sp}^	@ <UNPREDICTABLE>
     cdc:	006e5152 	rsbeq	r5, lr, r2, asr r1
     ce0:	65736552 	ldrbvs	r6, [r3, #-1362]!	@ 0xfffffaae
     ce4:	64657672 	strbtvs	r7, [r5], #-1650	@ 0xfffff98e
     ce8:	5f353231 	svcpl	0x00353231
     cec:	6e515249 	cdpvs	2, 5, cr5, cr1, cr9, {2}
     cf0:	666f5300 	strbtvs	r5, [pc], -r0, lsl #6
     cf4:	72617774 	rsbvc	r7, r1, #116, 14	@ 0x1d00000
     cf8:	495f3465 	ldmdbmi	pc, {r0, r2, r5, r6, sl, ip, sp}^	@ <UNPREDICTABLE>
     cfc:	006e5152 	rsbeq	r5, lr, r2, asr r1
     d00:	4f495047 	svcmi	0x00495047
     d04:	6f435f34 	svcvs	0x00435f34
     d08:	6e69626d 	cdpvs	2, 6, cr6, cr9, cr13, {3}
     d0c:	315f6465 	cmpcc	pc, r5, ror #8
     d10:	31335f36 	teqcc	r3, r6, lsr pc
     d14:	5152495f 	cmppl	r2, pc, asr r9
     d18:	5f44006e 	svcpl	0x0044006e
     d1c:	52444949 	subpl	r4, r4, #1196032	@ 0x124000
     d20:	43504700 	cmpmi	r0, #0, 14
     d24:	5152495f 	cmppl	r2, pc, asr r9
     d28:	5045006e 	subpl	r0, r5, lr, rrx
     d2c:	5f325449 	svcpl	0x00325449
     d30:	72617453 	rsbvc	r7, r1, #1392508928	@ 0x53000000
     d34:	736d5f74 	cmnvc	sp, #116, 30	@ 0x1d0
     d38:	454e4500 	strbmi	r4, [lr, #-1280]	@ 0xfffffb00
     d3c:	495f3254 	ldmdbmi	pc, {r2, r4, r6, r9, ip, sp}^	@ <UNPREDICTABLE>
     d40:	006e5152 	rsbeq	r5, lr, r2, asr r1
     d44:	54524155 	ldrbpl	r4, [r2], #-341	@ 0xfffffeab
     d48:	52495f35 	subpl	r5, r9, #53, 30	@ 0xd4
     d4c:	44006e51 	strmi	r6, [r0], #-3665	@ 0xfffff1af
     d50:	4154495f 	cmpmi	r4, pc, asr r9
     d54:	54454752 	strbpl	r4, [r5], #-1874	@ 0xfffff8ae
     d58:	49005253 	stmdbmi	r0, {r0, r1, r4, r6, r9, ip, lr}
     d5c:	58554d4f 	ldmdapl	r5, {r0, r1, r2, r3, r6, r8, sl, fp, lr}^
     d60:	52495f43 	subpl	r5, r9, #268	@ 0x10c
     d64:	50006e51 	andpl	r6, r0, r1, asr lr
     d68:	495f554d 	ldmdbmi	pc, {r0, r2, r3, r6, r8, sl, ip, lr}^	@ <UNPREDICTABLE>
     d6c:	5f325152 	svcpl	0x00325152
     d70:	6e515249 	cdpvs	2, 5, cr5, cr1, cr9, {2}
     d74:	73655200 	cmnvc	r5, #0, 4
     d78:	65767265 	ldrbvs	r7, [r6, #-613]!	@ 0xfffffd9b
     d7c:	35333164 	ldrcc	r3, [r3, #-356]!	@ 0xfffffe9c
     d80:	5152495f 	cmppl	r2, pc, asr r9
     d84:	6f63006e 	svcvs	0x0063006e
     d88:	65746e75 	ldrbvs	r6, [r4, #-3701]!	@ 0xfffff18b
     d8c:	6f530072 	svcvs	0x00530072
     d90:	61777466 	cmnvs	r7, r6, ror #8
     d94:	32316572 	eorscc	r6, r1, #478150656	@ 0x1c800000
     d98:	5152495f 	cmppl	r2, pc, asr r9
     d9c:	6552006e 	ldrbvs	r0, [r2, #-110]	@ 0xffffff92
     da0:	76726573 			@ <UNDEFINED> instruction: 0x76726573
     da4:	32316465 	eorscc	r6, r1, #1694498816	@ 0x65000000
     da8:	52495f34 	subpl	r5, r9, #52, 30	@ 0xd0
     dac:	53006e51 	tstpl	r0, #1296	@ 0x510
     db0:	7774666f 	ldrbvc	r6, [r4, -pc, ror #12]!
     db4:	33657261 	cmncc	r5, #268435462	@ 0x10000006
     db8:	5152495f 	cmppl	r2, pc, asr r9
     dbc:	434c006e 	cmpmi	ip, #110	@ 0x6e
     dc0:	5f464944 	svcpl	0x00464944
     dc4:	6e515249 	cdpvs	2, 5, cr5, cr1, cr9, {2}
     dc8:	49504500 	ldmdbmi	r0, {r8, sl, lr}^
     dcc:	535f3254 	cmppl	pc, #84, 4	@ 0x40000005
     dd0:	74726174 	ldrbtvc	r6, [r2], #-372	@ 0xfffffe8c
     dd4:	73655200 	cmnvc	r5, #0, 4
     dd8:	65767265 	ldrbvs	r7, [r6, #-613]!	@ 0xfffffd9b
     ddc:	5f333764 	svcpl	0x00333764
     de0:	6e515249 	cdpvs	2, 5, cr5, cr1, cr9, {2}
     de4:	43535400 	cmpmi	r3, #0, 8
     de8:	5152495f 	cmppl	r2, pc, asr r9
     dec:	4155006e 	cmpmi	r5, lr, rrx
     df0:	5f345452 	svcpl	0x00345452
     df4:	6e515249 	cdpvs	2, 5, cr5, cr1, cr9, {2}
     df8:	70736200 	rsbsvc	r6, r3, r0, lsl #4
     dfc:	6970652f 	ldmdbvs	r0!, {r0, r1, r2, r3, r5, r8, sl, sp, lr}^
     e00:	70652f74 	rsbvc	r2, r5, r4, ror pc
     e04:	632e7469 			@ <UNDEFINED> instruction: 0x632e7469
     e08:	49504700 	ldmdbmi	r0, {r8, r9, sl, lr}^
     e0c:	435f334f 	cmpmi	pc, #1006632961	@ 0x3c000001
     e10:	69626d6f 	stmdbvs	r2!, {r0, r1, r2, r3, r5, r6, r8, sl, fp, sp, lr}^
     e14:	5f64656e 	svcpl	0x0064656e
     e18:	35315f30 	ldrcc	r5, [r1, #-3888]!	@ 0xfffff0d0
     e1c:	5152495f 	cmppl	r2, pc, asr r9
     e20:	6552006e 	ldrbvs	r0, [r2, #-110]	@ 0xffffff92
     e24:	76726573 			@ <UNDEFINED> instruction: 0x76726573
     e28:	34316465 	ldrtcc	r6, [r1], #-1125	@ 0xfffffb9b
     e2c:	52495f35 	subpl	r5, r9, #53, 30	@ 0xd4
     e30:	44006e51 	strmi	r6, [r0], #-3665	@ 0xfffff1af
     e34:	4449505f 	strbmi	r5, [r9], #-95	@ 0xffffffa1
     e38:	50003052 	andpl	r3, r0, r2, asr r0
     e3c:	5f364d57 	svcpl	0x00364d57
     e40:	6e515249 	cdpvs	2, 5, cr5, cr1, cr9, {2}
     e44:	495f4400 	ldmdbmi	pc, {sl, lr}^	@ <UNPREDICTABLE>
     e48:	414e4553 	cmpmi	lr, r3, asr r5
     e4c:	52454c42 	subpl	r4, r5, #16896	@ 0x4200
     e50:	505f4400 	subspl	r4, pc, r0, lsl #8
     e54:	33524449 	cmpcc	r2, #1224736768	@ 0x49000000
     e58:	505f4400 	subspl	r4, pc, r0, lsl #8
     e5c:	34524449 	ldrbcc	r4, [r2], #-1097	@ 0xfffffbb7
     e60:	505f4400 	subspl	r4, pc, r0, lsl #8
     e64:	35524449 	ldrbcc	r4, [r2, #-1097]	@ 0xfffffbb7
     e68:	505f4400 	subspl	r4, pc, r0, lsl #8
     e6c:	36524449 	ldrbcc	r4, [r2], -r9, asr #8
     e70:	505f4400 	subspl	r4, pc, r0, lsl #8
     e74:	37524449 	ldrbcc	r4, [r2, -r9, asr #8]
     e78:	73655200 	cmnvc	r5, #0, 4
     e7c:	65767265 	ldrbvs	r7, [r6, #-613]!	@ 0xfffffd9b
     e80:	34333164 	ldrtcc	r3, [r3], #-356	@ 0xfffffe9c
     e84:	5152495f 	cmppl	r2, pc, asr r9
     e88:	5253006e 	subspl	r0, r3, #110	@ 0x6e
     e8c:	6f435f43 	svcvs	0x00435f43
     e90:	6e69626d 	cdpvs	2, 6, cr6, cr9, cr13, {3}
     e94:	495f6465 	ldmdbmi	pc, {r0, r2, r5, r6, sl, sp, lr}^	@ <UNPREDICTABLE>
     e98:	006e5152 	rsbeq	r5, lr, r2, asr r1
     e9c:	49435f44 	stmdbmi	r3, {r2, r6, r8, r9, sl, fp, ip, lr}^
     ea0:	00305244 	eorseq	r5, r0, r4, asr #4
     ea4:	49435f44 	stmdbmi	r3, {r2, r6, r8, r9, sl, fp, ip, lr}^
     ea8:	00315244 	eorseq	r5, r1, r4, asr #4
     eac:	49435f44 	stmdbmi	r3, {r2, r6, r8, r9, sl, fp, ip, lr}^
     eb0:	00325244 	eorseq	r5, r2, r4, asr #4
     eb4:	49435f44 	stmdbmi	r3, {r2, r6, r8, r9, sl, fp, ip, lr}^
     eb8:	00335244 	eorseq	r5, r3, r4, asr #4
     ebc:	5f504344 	svcpl	0x00504344
     ec0:	5f515249 	svcpl	0x00515249
     ec4:	6e515249 	cdpvs	2, 5, cr5, cr1, cr9, {2}
     ec8:	49504700 	ldmdbmi	r0, {r8, r9, sl, lr}^
     ecc:	495f314f 	ldmdbmi	pc, {r0, r1, r2, r3, r6, r8, ip, sp}^	@ <UNPREDICTABLE>
     ed0:	5f32544e 	svcpl	0x0032544e
     ed4:	6e515249 	cdpvs	2, 5, cr5, cr1, cr9, {2}
     ed8:	49415300 	stmdbmi	r1, {r8, r9, ip, lr}^
     edc:	58525f33 	ldmdapl	r2, {r0, r1, r4, r5, r8, r9, sl, fp, ip, lr}^
     ee0:	5152495f 	cmppl	r2, pc, asr r9
     ee4:	6552006e 	ldrbvs	r0, [r2, #-110]	@ 0xffffff92
     ee8:	76726573 			@ <UNDEFINED> instruction: 0x76726573
     eec:	31316465 	teqcc	r1, r5, ror #8
     ef0:	52495f30 	subpl	r5, r9, #48, 30	@ 0xc0
     ef4:	55006e51 	strpl	r6, [r0, #-3665]	@ 0xfffff1af
     ef8:	505f4253 	subspl	r4, pc, r3, asr r2	@ <UNPREDICTABLE>
     efc:	5f315948 	svcpl	0x00315948
     f00:	6e515249 	cdpvs	2, 5, cr5, cr1, cr9, {2}
     f04:	73655200 	cmnvc	r5, #0, 4
     f08:	65767265 	ldrbvs	r7, [r6, #-613]!	@ 0xfffffd9b
     f0c:	35353164 	ldrcc	r3, [r5, #-356]!	@ 0xfffffe9c
     f10:	5152495f 	cmppl	r2, pc, asr r9
     f14:	4365006e 	cmnmi	r5, #110	@ 0x6e
     f18:	33495053 	cmpcc	r9, #83	@ 0x53
     f1c:	5152495f 	cmppl	r2, pc, asr r9
     f20:	5045006e 	subpl	r0, r5, lr, rrx
     f24:	5f315449 	svcpl	0x00315449
     f28:	74696e49 	strbtvc	r6, [r9], #-3657	@ 0xfffff1b7
     f2c:	42504100 	subsmi	r4, r0, #0, 2
     f30:	52495f48 	subpl	r5, r9, #72, 30	@ 0x120
     f34:	56006e51 			@ <UNDEFINED> instruction: 0x56006e51
     f38:	75747269 	ldrbvc	r7, [r4, #-617]!	@ 0xfffffd97
     f3c:	614d6c61 	cmpvs	sp, r1, ror #24
     f40:	65746e69 	ldrbvs	r6, [r4, #-3689]!	@ 0xfffff197
     f44:	636e616e 	cmnvs	lr, #-2147483621	@ 0x8000001b
     f48:	52495f65 	subpl	r5, r9, #404	@ 0x194
     f4c:	52006e51 	andpl	r6, r0, #1296	@ 0x510
     f50:	72657365 	rsbvc	r7, r5, #-1811939327	@ 0x94000001
     f54:	31646576 	cmncc	r4, r6, ror r5
     f58:	495f3434 	ldmdbmi	pc, {r2, r4, r5, sl, ip, sp}^	@ <UNPREDICTABLE>
     f5c:	006e5152 	rsbeq	r5, lr, r2, asr r1
     f60:	354d5750 	strbcc	r5, [sp, #-1872]	@ 0xfffff8b0
     f64:	5152495f 	cmppl	r2, pc, asr r9
     f68:	5f44006e 	svcpl	0x0044006e
     f6c:	45505349 	ldrbmi	r5, [r0, #-841]	@ 0xfffffcb7
     f70:	0052444e 	subseq	r4, r2, lr, asr #8
     f74:	5f555043 	svcpl	0x00555043
     f78:	5f495443 	svcpl	0x00495443
     f7c:	67697254 			@ <UNDEFINED> instruction: 0x67697254
     f80:	5f726567 	svcpl	0x00726567
     f84:	6e515249 	cdpvs	2, 5, cr5, cr1, cr9, {2}
     f88:	43324900 	teqmi	r2, #0, 18
     f8c:	52495f31 	subpl	r5, r9, #49, 30	@ 0xc4
     f90:	53006e51 	tstpl	r0, #1296	@ 0x510
     f94:	7774666f 	ldrbvc	r6, [r4, -pc, ror #12]!
     f98:	37657261 	strbcc	r7, [r5, -r1, ror #4]!
     f9c:	5152495f 	cmppl	r2, pc, asr r9
     fa0:	5f5f006e 	svcpl	0x005f006e
     fa4:	5f746567 	svcpl	0x00746567
     fa8:	52414243 	subpl	r4, r1, #805306372	@ 0x30000004
     fac:	49504700 	ldmdbmi	r0, {r8, r9, sl, lr}^
     fb0:	495f314f 	ldmdbmi	pc, {r0, r1, r2, r3, r6, r8, ip, sp}^	@ <UNPREDICTABLE>
     fb4:	5f31544e 	svcpl	0x0031544e
     fb8:	6e515249 	cdpvs	2, 5, cr5, cr1, cr9, {2}
     fbc:	495f4400 	ldmdbmi	pc, {sl, lr}^	@ <UNPREDICTABLE>
     fc0:	52474643 	subpl	r4, r7, #70254592	@ 0x4300000
     fc4:	63696700 	cmnvs	r9, #0, 14
     fc8:	72614963 	rsbvc	r4, r1, #1622016	@ 0x18c000
     fcc:	415f4300 	cmpmi	pc, r0, lsl #6
     fd0:	00305250 	eorseq	r5, r0, r0, asr r2
     fd4:	50534365 	subspl	r4, r3, r5, ror #6
     fd8:	495f3249 	ldmdbmi	pc, {r0, r3, r6, r9, ip, sp}^	@ <UNPREDICTABLE>
     fdc:	006e5152 	rsbeq	r5, lr, r2, asr r1
     fe0:	4f495047 	svcmi	0x00495047
     fe4:	6f435f35 	svcvs	0x00435f35
     fe8:	6e69626d 	cdpvs	2, 6, cr6, cr9, cr13, {3}
     fec:	315f6465 	cmpcc	pc, r5, ror #8
     ff0:	31335f36 	teqcc	r3, r6, lsr pc
     ff4:	5152495f 	cmppl	r2, pc, asr r9
     ff8:	4152006e 	cmpmi	r2, lr, rrx
     ffc:	4e414e57 	mcrmi	14, 2, r4, cr1, cr7, {2}
    1000:	43425f44 	cmpmi	r2, #68, 30	@ 0x110
    1004:	52495f48 	subpl	r5, r9, #72, 30	@ 0x120
    1008:	43006e51 	tstmi	r0, #1296	@ 0x510
    100c:	495f4d43 	ldmdbmi	pc, {r0, r1, r6, r8, sl, fp, lr}^	@ <UNPREDICTABLE>
    1010:	5f315152 	svcpl	0x00315152
    1014:	6e515249 	cdpvs	2, 5, cr5, cr1, cr9, {2}
    1018:	666f5300 	strbtvs	r5, [pc], -r0, lsl #6
    101c:	72617774 	rsbvc	r7, r1, #116, 14	@ 0x1d00000
    1020:	5f353165 	svcpl	0x00353165
    1024:	6e515249 	cdpvs	2, 5, cr5, cr1, cr9, {2}
    1028:	49504700 	ldmdbmi	r0, {r8, r9, sl, lr}^
    102c:	435f314f 	cmpmi	pc, #-1073741805	@ 0xc0000013
    1030:	69626d6f 	stmdbvs	r2!, {r0, r1, r2, r3, r5, r6, r8, sl, fp, sp, lr}^
    1034:	5f64656e 	svcpl	0x0064656e
    1038:	35315f30 	ldrcc	r5, [r1, #-3888]!	@ 0xfffff0d0
    103c:	5152495f 	cmppl	r2, pc, asr r9
    1040:	5f44006e 	svcpl	0x0044006e
    1044:	53495053 	cmppl	r9, #83	@ 0x53
    1048:	41530052 	cmpmi	r3, r2, asr r0
    104c:	545f3349 	ldrbpl	r3, [pc], #-841	@ 1054 <shift+0x1054>
    1050:	52495f58 	subpl	r5, r9, #88, 30	@ 0x160
    1054:	53006e51 	tstpl	r0, #1296	@ 0x510
    1058:	7774666f 	ldrbvc	r6, [r4, -pc, ror #12]!
    105c:	36657261 	strbtcc	r7, [r5], -r1, ror #4
    1060:	5152495f 	cmppl	r2, pc, asr r9
    1064:	7948006e 	stmdbvc	r8, {r1, r2, r3, r5, r6}^
    1068:	76726570 			@ <UNDEFINED> instruction: 0x76726570
    106c:	726f7369 	rsbvc	r7, pc, #-1543503871	@ 0xa4000001
    1070:	656d6954 	strbvs	r6, [sp, #-2388]!	@ 0xfffff6ac
    1074:	52495f72 	subpl	r5, r9, #456	@ 0x1c8
    1078:	70006e51 	andvc	r6, r0, r1, asr lr
    107c:	6d617261 	stclvs	2, cr7, [r1, #-388]!	@ 0xfffffe7c
    1080:	53510073 	cmppl	r1, #115	@ 0x73
    1084:	495f4950 	ldmdbmi	pc, {r4, r6, r8, fp, lr}^	@ <UNPREDICTABLE>
    1088:	006e5152 	rsbeq	r5, lr, r2, asr r1
    108c:	45534552 	ldrbmi	r4, [r3, #-1362]	@ 0xfffffaae
    1090:	44455652 	strbmi	r5, [r5], #-1618	@ 0xfffff9ae
    1094:	52003031 	andpl	r3, r0, #49	@ 0x31
    1098:	52455345 	subpl	r5, r5, #335544321	@ 0x14000001
    109c:	31444556 	cmpcc	r4, r6, asr r5
    10a0:	44410031 	strbmi	r0, [r1], #-49	@ 0xffffffcf
    10a4:	495f3143 	ldmdbmi	pc, {r0, r1, r6, r8, ip, sp}^	@ <UNPREDICTABLE>
    10a8:	006e5152 	rsbeq	r5, lr, r2, asr r1
    10ac:	45534552 	ldrbmi	r4, [r3, #-1362]	@ 0xfffffaae
    10b0:	44455652 	strbmi	r5, [r5], #-1618	@ 0xfffff9ae
    10b4:	52003331 	andpl	r3, r0, #-1006632960	@ 0xc4000000
    10b8:	52455345 	subpl	r5, r5, #335544321	@ 0x14000001
    10bc:	31444556 	cmpcc	r4, r6, asr r5
    10c0:	41550034 	cmpmi	r5, r4, lsr r0
    10c4:	5f375452 	svcpl	0x00375452
    10c8:	6e515249 	cdpvs	2, 5, cr5, cr1, cr9, {2}
    10cc:	53455200 	cmppl	r5, #0, 4
    10d0:	45565245 	ldrbmi	r5, [r6, #-581]	@ 0xfffffdbb
    10d4:	00363144 	eorseq	r3, r6, r4, asr #2
    10d8:	45534552 	ldrbmi	r4, [r3, #-1362]	@ 0xfffffaae
    10dc:	44455652 	strbmi	r5, [r5], #-1618	@ 0xfffff9ae
    10e0:	52003731 	andpl	r3, r0, #12845056	@ 0xc40000
    10e4:	52455345 	subpl	r5, r5, #335544321	@ 0x14000001
    10e8:	31444556 	cmpcc	r4, r6, asr r5
    10ec:	5f430038 	svcpl	0x00430038
    10f0:	00524944 	subseq	r4, r2, r4, asr #18
    10f4:	43495f44 	cmpmi	r9, #68, 30	@ 0x110
    10f8:	42414e45 	submi	r4, r1, #1104	@ 0x450
    10fc:	0052454c 	subseq	r4, r2, ip, asr #10
    1100:	4d414143 	stclmi	1, cr4, [r1, #-268]	@ 0xfffffef4
    1104:	626f4a5f 	rsbvs	r4, pc, #389120	@ 0x5f000
    1108:	6e69525f 	mcrvs	2, 3, r5, cr9, cr15, {2}
    110c:	495f3067 	ldmdbmi	pc, {r0, r1, r2, r5, r6, ip, sp}^	@ <UNPREDICTABLE>
    1110:	006e5152 	rsbeq	r5, lr, r2, asr r1
    1114:	31545047 	cmpcc	r4, r7, asr #32
    1118:	5152495f 	cmppl	r2, pc, asr r9
    111c:	4344006e 	cmpmi	r4, #110	@ 0x6e
    1120:	45535f50 	ldrbmi	r5, [r3, #-3920]	@ 0xfffff0b0
    1124:	52495f43 	subpl	r5, r9, #268	@ 0x10c
    1128:	52495f51 	subpl	r5, r9, #324	@ 0x144
    112c:	43006e51 	tstmi	r0, #1296	@ 0x510
    1130:	4f45415f 	svcmi	0x0045415f
    1134:	47005249 	strmi	r5, [r0, -r9, asr #4]
    1138:	314f4950 	cmpcc	pc, r0, asr r9	@ <UNPREDICTABLE>
    113c:	544e495f 	strbpl	r4, [lr], #-2399	@ 0xfffff6a1
    1140:	52495f35 	subpl	r5, r9, #53, 30	@ 0xd4
    1144:	65006e51 	strvs	r6, [r0, #-3665]	@ 0xfffff1af
    1148:	49505343 	ldmdbmi	r0, {r0, r1, r6, r8, r9, ip, lr}^
    114c:	52495f31 	subpl	r5, r9, #49, 30	@ 0xc4
    1150:	52006e51 	andpl	r6, r0, #1296	@ 0x510
    1154:	414e5741 	cmpmi	lr, r1, asr #14
    1158:	475f444e 	ldrbmi	r4, [pc, -lr, asr #8]
    115c:	5f494d50 	svcpl	0x00494d50
    1160:	6e515249 	cdpvs	2, 5, cr5, cr1, cr9, {2}
    1164:	73655200 	cmnvc	r5, #0, 4
    1168:	65767265 	ldrbvs	r7, [r6, #-613]!	@ 0xfffffd9b
    116c:	38353164 	ldmdacc	r5!, {r2, r5, r6, r8, ip, sp}
    1170:	5152495f 	cmppl	r2, pc, asr r9
    1174:	5343006e 	cmppl	r3, #110	@ 0x6e
    1178:	52495f55 	subpl	r5, r9, #340	@ 0x154
    117c:	44006e51 	strmi	r6, [r0], #-3665	@ 0xfffff1af
    1180:	4550535f 	ldrbmi	r5, [r0, #-863]	@ 0xfffffca1
    1184:	4753444e 	ldrbmi	r4, [r3, -lr, asr #8]
    1188:	50005249 	andpl	r5, r0, r9, asr #4
    118c:	5f384d57 	svcpl	0x00384d57
    1190:	6e515249 	cdpvs	2, 5, cr5, cr1, cr9, {2}
    1194:	49504500 	ldmdbmi	r0, {r8, sl, lr}^
    1198:	495f3254 	ldmdbmi	pc, {r2, r4, r6, r9, ip, sp}^	@ <UNPREDICTABLE>
    119c:	006e5152 	rsbeq	r5, lr, r2, asr r1
    11a0:	34433249 	strbcc	r3, [r3], #-585	@ 0xfffffdb7
    11a4:	5152495f 	cmppl	r2, pc, asr r9
    11a8:	4144006e 	cmpmi	r4, lr, rrx
    11ac:	52495f50 	subpl	r5, r9, #80, 30	@ 0x140
    11b0:	57006e51 	smlsdpl	r0, r1, lr, r6
    11b4:	31474f44 	cmpcc	r7, r4, asr #30
    11b8:	5152495f 	cmppl	r2, pc, asr r9
    11bc:	5f43006e 	svcpl	0x0043006e
    11c0:	52504241 	subspl	r4, r0, #268435460	@ 0x10000004
    11c4:	495f4400 	ldmdbmi	pc, {sl, lr}^	@ <UNPREDICTABLE>
    11c8:	554f5247 	strbpl	r5, [pc, #-583]	@ f89 <shift+0xf89>
    11cc:	47005250 	smlsdmi	r0, r0, r2, r5
    11d0:	314f4950 	cmpcc	pc, r0, asr r9	@ <UNPREDICTABLE>
    11d4:	544e495f 	strbpl	r4, [lr], #-2399	@ 0xfffff6a1
    11d8:	52495f34 	subpl	r5, r9, #52, 30	@ 0xd0
    11dc:	52006e51 	andpl	r6, r0, #1296	@ 0x510
    11e0:	72657365 	rsbvc	r7, r5, #-1811939327	@ 0x94000001
    11e4:	38646576 	stmdacc	r4!, {r1, r2, r4, r5, r6, r8, sl, sp, lr}^
    11e8:	52495f35 	subpl	r5, r9, #53, 30	@ 0xd4
    11ec:	50006e51 	andpl	r6, r0, r1, asr lr
    11f0:	495f5058 	ldmdbmi	pc, {r3, r4, r6, ip, lr}^	@ <UNPREDICTABLE>
    11f4:	5f305152 	svcpl	0x00305152
    11f8:	6e515249 	cdpvs	2, 5, cr5, cr1, cr9, {2}
    11fc:	645f5f00 	ldrbvs	r5, [pc], #-3840	@ 1204 <shift+0x1204>
    1200:	50007473 	andpl	r7, r0, r3, ror r4
    1204:	5f314d57 	svcpl	0x00314d57
    1208:	6e515249 	cdpvs	2, 5, cr5, cr1, cr9, {2}
    120c:	49504700 	ldmdbmi	r0, {r8, r9, sl, lr}^
    1210:	435f314f 	cmpmi	pc, #-1073741805	@ 0xc0000013
    1214:	69626d6f 	stmdbvs	r2!, {r0, r1, r2, r3, r5, r6, r8, sl, fp, sp, lr}^
    1218:	5f64656e 	svcpl	0x0064656e
    121c:	335f3631 	cmpcc	pc, #51380224	@ 0x3100000
    1220:	52495f31 	subpl	r5, r9, #49, 30	@ 0xc4
    1224:	45006e51 	strmi	r6, [r0, #-3665]	@ 0xfffff1af
    1228:	31544950 	cmpcc	r4, r0, asr r9
    122c:	656c435f 	strbvs	r4, [ip, #-863]!	@ 0xfffffca1
    1230:	43007261 	tstmi	r0, #268435462	@ 0x10000006
    1234:	4449495f 	strbmi	r4, [r9], #-2399	@ 0xfffff6a1
    1238:	6f530052 	svcvs	0x00530052
    123c:	61777466 	cmnvs	r7, r6, ror #8
    1240:	5f396572 	svcpl	0x00396572
    1244:	6e515249 	cdpvs	2, 5, cr5, cr1, cr9, {2}
    1248:	454e4500 	strbmi	r4, [lr, #-1280]	@ 0xfffffb00
    124c:	495f3154 	ldmdbmi	pc, {r2, r4, r6, r8, ip, sp}^	@ <UNPREDICTABLE>
    1250:	006e5152 	rsbeq	r5, lr, r2, asr r1
    1254:	48415f43 	stmdami	r1, {r0, r1, r6, r8, r9, sl, fp, ip, lr}^
    1258:	52495050 	subpl	r5, r9, #80	@ 0x50
    125c:	505f4300 	subspl	r4, pc, r0, lsl #6
    1260:	5f00524d 	svcpl	0x0000524d
    1264:	73747570 	cmnvc	r4, #112, 10	@ 0x1c000000
    1268:	43494700 	cmpmi	r9, #0, 14
    126c:	616e455f 	cmnvs	lr, pc, asr r5
    1270:	49656c62 	stmdbmi	r5!, {r1, r5, r6, sl, fp, sp, lr}^
    1274:	50005152 	andpl	r5, r0, r2, asr r1
    1278:	495f554d 	ldmdbmi	pc, {r0, r2, r3, r6, r8, sl, ip, lr}^	@ <UNPREDICTABLE>
    127c:	5f315152 	svcpl	0x00315152
    1280:	6e515249 	cdpvs	2, 5, cr5, cr1, cr9, {2}
    1284:	666f5300 	strbtvs	r5, [pc], -r0, lsl #6
    1288:	72617774 	rsbvc	r7, r1, #116, 14	@ 0x1d00000
    128c:	5f313165 	svcpl	0x00313165
    1290:	6e515249 	cdpvs	2, 5, cr5, cr1, cr9, {2}
    1294:	495f4400 	ldmdbmi	pc, {sl, lr}^	@ <UNPREDICTABLE>
    1298:	54434153 	strbpl	r4, [r3], #-339	@ 0xfffffead
    129c:	52455649 	subpl	r5, r5, #76546048	@ 0x4900000
    12a0:	49504500 	ldmdbmi	r0, {r8, sl, lr}^
    12a4:	435f3254 	cmpmi	pc, #84, 4	@ 0x40000005
    12a8:	7261656c 	rsbvc	r6, r1, #108, 10	@ 0x1b000000
    12ac:	495f4400 	ldmdbmi	pc, {sl, lr}^	@ <UNPREDICTABLE>
    12b0:	4f495250 	svcmi	0x00495250
    12b4:	59544952 	ldmdbpl	r4, {r1, r4, r6, r8, fp, lr}^
    12b8:	6f530052 	svcvs	0x00530052
    12bc:	61777466 	cmnvs	r7, r6, ror #8
    12c0:	5f326572 	svcpl	0x00326572
    12c4:	6e515249 	cdpvs	2, 5, cr5, cr1, cr9, {2}
    12c8:	44454c00 	strbmi	r4, [r5], #-3072	@ 0xfffff400
    12cc:	6977535f 	ldmdbvs	r7!, {r0, r1, r2, r3, r4, r6, r8, r9, ip, lr}^
    12d0:	00686374 	rsbeq	r6, r8, r4, ror r3
    12d4:	53564e53 	cmppl	r6, #1328	@ 0x530
    12d8:	6365535f 	cmnvs	r5, #2080374785	@ 0x7c000001
    12dc:	74697275 	strbtvc	r7, [r9], #-629	@ 0xfffffd8b
    12e0:	52495f79 	subpl	r5, r9, #484	@ 0x1e4
    12e4:	44006e51 	strmi	r6, [r0], #-3665	@ 0xfffff1af
    12e8:	4c54435f 	mrrcmi	3, 5, r4, r4, cr15	@ <UNPREDICTABLE>
    12ec:	45570052 	ldrbmi	r0, [r7, #-82]	@ 0xffffffae
    12f0:	495f4d49 	ldmdbmi	pc, {r0, r3, r6, r8, sl, fp, lr}^	@ <UNPREDICTABLE>
    12f4:	006e5152 	rsbeq	r5, lr, r2, asr r1
    12f8:	54524155 	ldrbpl	r4, [r2], #-341	@ 0xfffffeab
    12fc:	52495f33 	subpl	r5, r9, #51, 30	@ 0xcc
    1300:	53006e51 	tstpl	r0, #1296	@ 0x510
    1304:	5f324941 	svcpl	0x00324941
    1308:	6e515249 	cdpvs	2, 5, cr5, cr1, cr9, {2}
    130c:	53455200 	cmppl	r5, #0, 4
    1310:	45565245 	ldrbmi	r5, [r6, #-581]	@ 0xfffffdbb
    1314:	00323144 	eorseq	r3, r2, r4, asr #2
    1318:	45534552 	ldrbmi	r4, [r3, #-1362]	@ 0xfffffaae
    131c:	44455652 	strbmi	r5, [r5], #-1618	@ 0xfffff9ae
    1320:	4e003531 	mcrmi	5, 0, r3, cr0, cr1, {1}
    1324:	7641746f 	strbvc	r7, [r1], -pc, ror #8
    1328:	5f6c6961 	svcpl	0x006c6961
    132c:	6e515249 	cdpvs	2, 5, cr5, cr1, cr9, {2}
    1330:	666f5300 	strbtvs	r5, [pc], -r0, lsl #6
    1334:	72617774 	rsbvc	r7, r1, #116, 14	@ 0x1d00000
    1338:	5f303165 	svcpl	0x00303165
    133c:	6e515249 	cdpvs	2, 5, cr5, cr1, cr9, {2}
    1340:	564e5300 	strbpl	r5, [lr], -r0, lsl #6
    1344:	6f435f53 	svcvs	0x00435f53
    1348:	6c6f736e 	stclvs	3, cr7, [pc], #-440	@ 1198 <shift+0x1198>
    134c:	74616469 	strbtvc	r6, [r1], #-1129	@ 0xfffffb97
    1350:	495f6465 	ldmdbmi	pc, {r0, r2, r5, r6, sl, sp, lr}^	@ <UNPREDICTABLE>
    1354:	006e5152 	rsbeq	r5, lr, r2, asr r1
    1358:	54495045 	strbpl	r5, [r9], #-69	@ 0xffffffbb
    135c:	7079545f 	rsbsvc	r5, r9, pc, asr r4
    1360:	53450065 	cmppl	r5, #101	@ 0x65
    1364:	495f4941 	ldmdbmi	pc, {r0, r6, r8, fp, lr}^	@ <UNPREDICTABLE>
    1368:	006e5152 	rsbeq	r5, lr, r2, asr r1
    136c:	324e4143 	subcc	r4, lr, #-1073741808	@ 0xc0000010
    1370:	5152495f 	cmppl	r2, pc, asr r9
    1374:	5249006e 	subpl	r0, r9, #110	@ 0x6e
    1378:	746e4951 	strbtvc	r4, [lr], #-2385	@ 0xfffff6af
    137c:	6e61485f 	mcrvs	8, 3, r4, cr1, cr15, {2}
    1380:	72656c64 	rsbvc	r6, r5, #100, 24	@ 0x6400
    1384:	696e495f 	stmdbvs	lr!, {r0, r1, r2, r3, r4, r6, r8, fp, lr}^
    1388:	50470074 	subpl	r0, r7, r4, ror r0
    138c:	5f314f49 	svcpl	0x00314f49
    1390:	37544e49 	ldrbcc	r4, [r4, -r9, asr #28]
    1394:	5152495f 	cmppl	r2, pc, asr r9
    1398:	6552006e 	ldrbvs	r0, [r2, #-110]	@ 0xffffff92
    139c:	76726573 			@ <UNDEFINED> instruction: 0x76726573
    13a0:	35316465 	ldrcc	r6, [r1, #-1125]!	@ 0xfffffb9b
    13a4:	52495f34 	subpl	r5, r9, #52, 30	@ 0xd0
    13a8:	47006e51 	smlsdmi	r0, r1, lr, r6
    13ac:	344f4950 	strbcc	r4, [pc], #-2384	@ 13b4 <shift+0x13b4>
    13b0:	6d6f435f 	stclvs	3, cr4, [pc, #-380]!	@ 123c <shift+0x123c>
    13b4:	656e6962 	strbvs	r6, [lr, #-2402]!	@ 0xfffff69e
    13b8:	5f305f64 	svcpl	0x00305f64
    13bc:	495f3531 	ldmdbmi	pc, {r0, r4, r5, r8, sl, ip, sp}^	@ <UNPREDICTABLE>
    13c0:	006e5152 	rsbeq	r5, lr, r2, asr r1
    13c4:	344d5750 	strbcc	r5, [sp], #-1872	@ 0xfffff8b0
    13c8:	5152495f 	cmppl	r2, pc, asr r9
    13cc:	6552006e 	ldrbvs	r0, [r2, #-110]	@ 0xffffff92
    13d0:	76726573 			@ <UNDEFINED> instruction: 0x76726573
    13d4:	34346465 	ldrtcc	r6, [r4], #-1125	@ 0xfffffb9b
    13d8:	5152495f 	cmppl	r2, pc, asr r9
    13dc:	7362006e 	cmnvc	r2, #110	@ 0x6e
    13e0:	75662f70 	strbvc	r2, [r6, #-3952]!	@ 0xfffff090
    13e4:	642f636e 	strtvs	r6, [pc], #-878	@ 13ec <shift+0x13ec>
    13e8:	79616c65 	stmdbvc	r1!, {r0, r2, r5, r6, sl, fp, sp, lr}^
    13ec:	6400632e 	strvs	r6, [r0], #-814	@ 0xfffffcd2
    13f0:	79616c65 	stmdbvc	r1!, {r0, r2, r5, r6, sl, fp, sp, lr}^
    13f4:	6f68735f 	svcvs	0x0068735f
    13f8:	69007472 	stmdbvs	r0, {r1, r4, r5, r6, sl, ip, sp, lr}
    13fc:	61487172 	cmpvs	r8, r2, ror r1
    1400:	656c646e 	strbvs	r6, [ip, #-1134]!	@ 0xfffffb92
    1404:	735f0072 	cmpvc	pc, #114	@ 0x72
    1408:	65747379 	ldrbvs	r7, [r4, #-889]!	@ 0xfffffc87
    140c:	72695f6d 	rsbvc	r5, r9, #436	@ 0x1b4
    1410:	61685f71 	cmnvs	r8, r1, ror pc
    1414:	656c646e 	strbvs	r6, [ip, #-1134]!	@ 0xfffffb92
    1418:	5f5f0072 	svcpl	0x005f0072
    141c:	5f746573 	svcpl	0x00746573
    1420:	52414256 	subpl	r4, r1, #1610612741	@ 0x60000005
    1424:	43494700 	cmpmi	r9, #0, 14
    1428:	696e495f 	stmdbvs	lr!, {r0, r1, r2, r3, r4, r6, r8, fp, lr}^
    142c:	73750074 	cmnvc	r5, #116	@ 0x74
    1430:	61507265 	cmpvs	r0, r5, ror #4
    1434:	736d6172 	cmnvc	sp, #-2147483620	@ 0x8000001c
    1438:	66654400 	strbtvs	r4, [r5], -r0, lsl #8
    143c:	746c7561 	strbtvc	r7, [ip], #-1377	@ 0xfffffa9f
    1440:	6e61485f 	mcrvs	8, 3, r4, cr1, cr15, {2}
    1444:	72656c64 	rsbvc	r6, r5, #100, 24	@ 0x6400
    1448:	71726900 	cmnvc	r2, r0, lsl #18
    144c:	73654e5f 	cmnvc	r5, #1520	@ 0x5f0
    1450:	676e6974 			@ <UNDEFINED> instruction: 0x676e6974
    1454:	70736200 	rsbsvc	r6, r3, r0, lsl #4
    1458:	746e692f 	strbtvc	r6, [lr], #-2351	@ 0xfffff6d1
    145c:	746e692f 	strbtvc	r6, [lr], #-2351	@ 0xfffff6d1
    1460:	4900632e 	stmdbmi	r0, {r1, r2, r3, r5, r8, r9, sp, lr}
    1464:	6e495152 	mcrvs	1, 2, r5, cr9, cr2, {2}
    1468:	61545f74 	cmpvs	r4, r4, ror pc
    146c:	5f656c62 	svcpl	0x00656c62
    1470:	74696e49 	strbtvc	r6, [r9], #-3657	@ 0xfffff1b7
    1474:	72617000 	rsbvc	r7, r1, #0
    1478:	69006d61 	stmdbvs	r0, {r0, r5, r6, r8, sl, fp, sp, lr}
    147c:	65527172 	ldrbvs	r7, [r2, #-370]	@ 0xfffffe8e
    1480:	69007367 	stmdbvs	r0, {r0, r1, r2, r5, r6, r8, r9, ip, sp, lr}
    1484:	61547172 	cmpvs	r4, r2, ror r1
    1488:	00656c62 	rsbeq	r6, r5, r2, ror #24
    148c:	72657375 	rsbvc	r7, r5, #-738197503	@ 0xd4000001
    1490:	61726150 	cmnvs	r2, r0, asr r1
    1494:	7953006d 	ldmdbvc	r3, {r0, r2, r3, r5, r6}^
    1498:	6d657473 	stclvs	4, cr7, [r5, #-460]!	@ 0xfffffe34
    149c:	5f515249 	svcpl	0x00515249
    14a0:	646e6148 	strbtvs	r6, [lr], #-328	@ 0xfffffeb8
    14a4:	0072656c 	rsbseq	r6, r2, ip, ror #10
    14a8:	72616276 	rsbvc	r6, r1, #1610612743	@ 0x60000007
    14ac:	70736200 	rsbsvc	r6, r3, r0, lsl #4
    14b0:	79656b2f 	stmdbvc	r5!, {r0, r1, r2, r3, r5, r8, r9, fp, sp, lr}^
    14b4:	79656b2f 	stmdbvc	r5!, {r0, r1, r2, r3, r5, r8, r9, fp, sp, lr}^
    14b8:	4700632e 	strmi	r6, [r0, -lr, lsr #6]
    14bc:	314f4950 	cmpcc	pc, r0, asr r9	@ <UNPREDICTABLE>
    14c0:	314f495f 	cmpcc	pc, pc, asr r9	@ <UNPREDICTABLE>
    14c4:	6e495f38 	mcrvs	15, 2, r5, cr9, cr8, {1}
    14c8:	61485f74 	cmpvs	r8, r4, ror pc
    14cc:	656c646e 	strbvs	r6, [ip, #-1134]!	@ 0xfffffb92
    14d0:	656b0072 	strbvs	r0, [fp, #-114]!	@ 0xffffff8e
    14d4:	61765f79 	cmnvs	r6, r9, ror pc
    14d8:	0065756c 	rsbeq	r7, r5, ip, ror #10
    14dc:	5f59454b 	svcpl	0x0059454b
    14e0:	454c4552 	strbmi	r4, [ip, #-1362]	@ 0xfffffaae
    14e4:	00455341 	subeq	r5, r5, r1, asr #6
    14e8:	5f79654b 	svcpl	0x0079654b
    14ec:	56746547 	ldrbtpl	r6, [r4], -r7, asr #10
    14f0:	65756c61 	ldrbvs	r6, [r5, #-3169]!	@ 0xfffff39f
    14f4:	49504700 	ldmdbmi	r0, {r8, r9, sl, lr}^
    14f8:	495f314f 	ldmdbmi	pc, {r0, r1, r2, r3, r6, r8, ip, sp}^	@ <UNPREDICTABLE>
    14fc:	5f38314f 	svcpl	0x0038314f
    1500:	5f746e49 	svcpl	0x00746e49
    1504:	74696e49 	strbtvc	r6, [r9], #-3657	@ 0xfffff1b7
    1508:	59454b00 	stmdbpl	r5, {r8, r9, fp, lr}^
    150c:	4552505f 	ldrbmi	r5, [r2, #-95]	@ 0xffffffa1
    1510:	4b005353 	blmi	16264 <shift+0x16264>
    1514:	495f7965 	ldmdbmi	pc, {r0, r2, r5, r6, r8, fp, ip, sp, lr}^	@ <UNPREDICTABLE>
    1518:	0074696e 	rsbseq	r6, r4, lr, ror #18
    151c:	5f44454c 	svcpl	0x0044454c
    1520:	0046464f 	subeq	r4, r6, pc, asr #12
    1524:	5f44454c 	svcpl	0x0044454c
    1528:	74696e49 	strbtvc	r6, [r9], #-3657	@ 0xfffff1b7
    152c:	44454c00 	strbmi	r4, [r5], #-3072	@ 0xfffff400
    1530:	004e4f5f 	subeq	r4, lr, pc, asr pc
    1534:	2f707362 	svccs	0x00707362
    1538:	2f64656c 	svccs	0x0064656c
    153c:	2e64656c 	cdpcs	5, 6, cr6, cr4, cr12, {3}
    1540:	61720063 	cmnvs	r2, r3, rrx
    1544:	00657369 	rsbeq	r7, r5, r9, ror #6
    1548:	54524155 	ldrbpl	r4, [r2], #-341	@ 0xfffffeab
    154c:	7079545f 	rsbsvc	r5, r9, pc, asr r4
    1550:	41550065 	cmpmi	r5, r5, rrx
    1554:	535f5452 	cmppl	pc, #1375731712	@ 0x52000000
    1558:	5274666f 	rsbspl	r6, r4, #116391936	@ 0x6f00000
    155c:	74657365 	strbtvc	r7, [r5], #-869	@ 0xfffffc9b
    1560:	52425500 	subpl	r5, r2, #0, 10
    1564:	4d550043 	ldclmi	0, cr0, [r5, #-268]	@ 0xfffffef4
    1568:	55005243 	strpl	r5, [r0, #-579]	@ 0xfffffdbd
    156c:	00445852 	subeq	r5, r4, r2, asr r8
    1570:	7475705f 	ldrbtvc	r7, [r5], #-95	@ 0xffffffa1
    1574:	43550063 	cmpmi	r5, #99	@ 0x63
    1578:	55003152 	strpl	r3, [r0, #-338]	@ 0xfffffeae
    157c:	00325243 	eorseq	r5, r2, r3, asr #4
    1580:	33524355 	cmpcc	r2, #1409286145	@ 0x54000001
    1584:	52435500 	subpl	r5, r3, #0, 10
    1588:	73620034 	cmnvc	r2, #52	@ 0x34
    158c:	61752f70 	cmnvs	r5, r0, ror pc
    1590:	752f7472 	strvc	r7, [pc, #-1138]!	@ 1126 <shift+0x1126>
    1594:	2e747261 	cdpcs	2, 7, cr7, cr4, cr1, {3}
    1598:	41550063 	cmpmi	r5, r3, rrx
    159c:	5f315452 	svcpl	0x00315452
    15a0:	74696e49 	strbtvc	r6, [r9], #-3657	@ 0xfffff1b7
    15a4:	49425500 	stmdbmi	r2, {r8, sl, ip, lr}^
    15a8:	61620052 	qdsubvs	r0, r2, r2
    15ac:	55006573 	strpl	r6, [r0, #-1395]	@ 0xfffffa8d
    15b0:	5f545241 	svcpl	0x00545241
    15b4:	61736944 	cmnvs	r3, r4, asr #18
    15b8:	00656c62 	rsbeq	r6, r5, r2, ror #24
    15bc:	44585455 	ldrbmi	r5, [r8], #-1109	@ 0xfffffbab
    15c0:	53455500 	cmppl	r5, #0, 10
    15c4:	41550043 	cmpmi	r5, r3, asr #32
    15c8:	5f315452 	svcpl	0x00315452
    15cc:	495f4f49 	ldmdbmi	pc, {r0, r3, r6, r8, r9, sl, fp, lr}^	@ <UNPREDICTABLE>
    15d0:	0074696e 	rsbseq	r6, r4, lr, ror #18
    15d4:	524d4255 	subpl	r4, sp, #1342177285	@ 0x50000005
    15d8:	49545500 	ldmdbmi	r4, {r8, sl, ip, lr}^
    15dc:	4655004d 	ldrbmi	r0, [r5], -sp, asr #32
    15e0:	55005243 	strpl	r5, [r0, #-579]	@ 0xfffffdbd
    15e4:	00315253 	eorseq	r5, r1, r3, asr r2
    15e8:	54524155 	ldrbpl	r4, [r2], #-341	@ 0xfffffeab
    15ec:	616e455f 	cmnvs	lr, pc, asr r5
    15f0:	00656c62 	rsbeq	r6, r5, r2, ror #24
    15f4:	4d454e4f 	stclmi	14, cr4, [r5, #-316]	@ 0xfffffec4
    15f8:	675f0053 			@ <UNDEFINED> instruction: 0x675f0053
    15fc:	00637465 	rsbeq	r7, r3, r5, ror #8
    1600:	32525355 	subscc	r5, r2, #1409286145	@ 0x54000001
    1604:	78656e00 	stmdavc	r5!, {r9, sl, fp, sp, lr}^
    1608:	69680074 	stmdbvs	r8!, {r2, r4, r5, r6}^
    160c:	69006867 	stmdbvs	r0, {r0, r1, r2, r5, r6, fp, sp, lr}
    1610:	7332746e 	teqvc	r2, #1845493760	@ 0x6e000000
    1614:	6e697274 	mcrvs	2, 3, r7, cr9, cr4, {3}
    1618:	75700067 	ldrbvc	r0, [r0, #-103]!	@ 0xffffff99
    161c:	63696c62 	cmnvs	r9, #25088	@ 0x6200
    1620:	6675625f 			@ <UNDEFINED> instruction: 0x6675625f
    1624:	00726566 	rsbseq	r6, r2, r6, ror #10
    1628:	70667562 	rsbvc	r7, r6, r2, ror #10
    162c:	76007274 			@ <UNDEFINED> instruction: 0x76007274
    1630:	696c5f61 	stmdbvs	ip!, {r0, r5, r6, r8, r9, sl, fp, ip, lr}^
    1634:	66007473 			@ <UNDEFINED> instruction: 0x66007473
    1638:	0067616c 	rsbeq	r6, r7, ip, ror #2
    163c:	2f707362 	svccs	0x00707362
    1640:	74726175 	ldrbtvc	r6, [r2], #-373	@ 0xfffffe8b
    1644:	7261752f 	rsbvc	r7, r1, #197132288	@ 0xbc00000
    1648:	2e6f6974 			@ <UNDEFINED> instruction: 0x2e6f6974
    164c:	72610063 	rsbvc	r0, r1, #99	@ 0x63
    1650:	73007367 	tstvc	r0, #-1677721599	@ 0x9c000001
    1654:	6e697270 	mcrvs	2, 3, r7, cr9, cr0, {3}
    1658:	2f006674 	svccs	0x00006674
    165c:	6c697562 	stclvs	5, cr7, [r9], #-392	@ 0xfffffe78
    1660:	72612f64 	rsbvc	r2, r1, #100, 30	@ 0x190
    1664:	696c2d6d 	stmdbvs	ip!, {r0, r2, r3, r5, r6, r8, sl, fp, sp}^
    1668:	2d78756e 	ldclcs	5, cr7, [r8, #-440]!	@ 0xfffffe48
    166c:	65756e67 	ldrbvs	r6, [r5, #-3687]!	@ 0xfffff199
    1670:	68696261 	stmdavs	r9!, {r0, r5, r6, r9, sp, lr}^
    1674:	63672d66 	cmnvs	r7, #6528	@ 0x1980
    1678:	72732f63 	rsbsvc	r2, r3, #396	@ 0x18c
    167c:	63672f63 	cmnvs	r7, #396	@ 0x18c
    1680:	696c2f63 	stmdbvs	ip!, {r0, r1, r5, r6, r8, r9, sl, fp, sp}^
    1684:	63636762 	cmnvs	r3, #25690112	@ 0x1880000
    1688:	6e6f632f 	cdpvs	3, 6, cr6, cr15, cr15, {1}
    168c:	2f676966 	svccs	0x00676966
    1690:	2f6d7261 	svccs	0x006d7261
    1694:	3162696c 	cmncc	r2, ip, ror #18
    1698:	636e7566 	cmnvs	lr, #427819008	@ 0x19800000
    169c:	00532e73 	subseq	r2, r3, r3, ror lr
    16a0:	6975622f 	ldmdbvs	r5!, {r0, r1, r2, r3, r5, r9, sp, lr}^
    16a4:	612f646c 			@ <UNDEFINED> instruction: 0x612f646c
    16a8:	6c2d6d72 	stcvs	13, cr6, [sp], #-456	@ 0xfffffe38
    16ac:	78756e69 	ldmdavc	r5!, {r0, r3, r5, r6, r9, sl, fp, sp, lr}^
    16b0:	756e672d 	strbvc	r6, [lr, #-1837]!	@ 0xfffff8d3
    16b4:	69626165 	stmdbvs	r2!, {r0, r2, r5, r6, r8, sp, lr}^
    16b8:	672d6668 	strvs	r6, [sp, -r8, ror #12]!
    16bc:	732f6363 			@ <UNDEFINED> instruction: 0x732f6363
    16c0:	672f6372 			@ <UNDEFINED> instruction: 0x672f6372
    16c4:	622d6363 	eorvs	r6, sp, #-1946157055	@ 0x8c000001
    16c8:	646c6975 	strbtvs	r6, [ip], #-2421	@ 0xfffff68b
    16cc:	6d72612f 	ldclvs	1, cr6, [r2, #-188]!	@ 0xffffff44
    16d0:	6e696c2d 	cdpvs	12, 6, cr6, cr9, cr13, {1}
    16d4:	672d7875 			@ <UNDEFINED> instruction: 0x672d7875
    16d8:	6165756e 	cmnvs	r5, lr, ror #10
    16dc:	66686962 	strbtvs	r6, [r8], -r2, ror #18
    16e0:	62696c2f 	rsbvs	r6, r9, #12032	@ 0x2f00
    16e4:	00636367 	rsbeq	r6, r3, r7, ror #6
    16e8:	20554e47 	subscs	r4, r5, r7, asr #28
    16ec:	32205341 	eorcc	r5, r0, #67108865	@ 0x4000001
    16f0:	0034342e 	eorseq	r3, r4, lr, lsr #8
    16f4:	64755f5f 	ldrbtvs	r5, [r5], #-3935	@ 0xfffff0a1
    16f8:	69737669 	ldmdbvs	r3!, {r0, r3, r5, r6, r9, sl, ip, sp, lr}^
    16fc:	5f5f0033 	svcpl	0x005f0033
    1700:	62616561 	rsbvs	r6, r1, #406847488	@ 0x18400000
    1704:	69755f69 	ldmdbvs	r5!, {r0, r3, r5, r6, r8, r9, sl, fp, ip, lr}^
    1708:	6d766964 			@ <UNDEFINED> instruction: 0x6d766964
    170c:	5f00646f 	svcpl	0x0000646f
    1710:	6165615f 	cmnvs	r5, pc, asr r1
    1714:	6c5f6962 	mrrcvs	9, 6, r6, pc, cr2	@ <UNPREDICTABLE>
    1718:	30766964 	rsbscc	r6, r6, r4, ror #18
    171c:	615f5f00 	cmpvs	pc, r0, lsl #30
    1720:	69626165 	stmdbvs	r2!, {r0, r2, r5, r6, r8, sp, lr}^
    1724:	6964695f 	stmdbvs	r4!, {r0, r1, r2, r3, r4, r6, r8, fp, sp, lr}^
    1728:	Address 0x1728 is out of bounds.


Disassembly of section .comment:

00000000 <.comment>:
   0:	3a434347 	bcc	10d0d24 <shift+0x10d0d24>
   4:	4e472820 	cdpmi	8, 4, cr2, cr7, cr0, {1}
   8:	31202955 			@ <UNDEFINED> instruction: 0x31202955
   c:	2e322e34 	mrccs	14, 1, r2, cr2, cr4, {1}
  10:	30322031 	eorscc	r2, r2, r1, lsr r0
  14:	32303532 	eorscc	r3, r0, #209715200	@ 0xc800000
  18:	Address 0x18 is out of bounds.


Disassembly of section .ARM.attributes:

00000000 <.ARM.attributes>:
   0:	00002a41 	andeq	r2, r0, r1, asr #20
   4:	61656100 	cmnvs	r5, r0, lsl #2
   8:	01006962 	tsteq	r0, r2, ror #18
   c:	00000020 	andeq	r0, r0, r0, lsr #32
  10:	06003605 	streq	r3, [r0], -r5, lsl #12
  14:	09010806 	stmdbeq	r1, {r1, r2, fp}
  18:	12020a01 	andne	r0, r2, #4096	@ 0x1000
  1c:	15011404 	strne	r1, [r1, #-1028]	@ 0xfffffbfc
  20:	18031701 	stmdane	r3, {r0, r8, r9, sl, ip}
  24:	1c021a01 			@ <UNDEFINED> instruction: 0x1c021a01
  28:	Address 0x28 is out of bounds.


Disassembly of section .debug_frame:

00000000 <.debug_frame>:
   0:	0000000c 	andeq	r0, r0, ip
   4:	ffffffff 			@ <UNDEFINED> instruction: 0xffffffff
   8:	7c020001 	stcvc	0, cr0, [r2], {1}
   c:	000d0c0e 	andeq	r0, sp, lr, lsl #24
  10:	00000020 	andeq	r0, r0, r0, lsr #32
  14:	00000000 	andeq	r0, r0, r0
  18:	87800acc 	strhi	r0, [r0, ip, asr #21]
  1c:	000003c4 	andeq	r0, r0, r4, asr #7
  20:	8b080e42 	blhi	203930 <shift+0x203930>
  24:	42018e02 	andmi	r8, r1, #2, 28
  28:	03040b0c 	tsteq	r4, #12, 22	@ 0x3000
  2c:	0d0c01d6 	stceq	1, cr0, [ip, #-856]	@ 0xfffffca8
  30:	00000008 	andeq	r0, r0, r8
  34:	0000001c 	andeq	r0, r0, ip, lsl r0
  38:	00000000 	andeq	r0, r0, r0
  3c:	87800e90 			@ <UNDEFINED> instruction: 0x87800e90
  40:	000000b0 	strheq	r0, [r0], -r0	@ <UNPREDICTABLE>
  44:	8b040e42 	blhi	103954 <shift+0x103954>
  48:	0b0d4201 	bleq	350854 <shift+0x350854>
  4c:	0d0d5002 	stceq	0, cr5, [sp, #-8]
  50:	000ecb42 	andeq	ip, lr, r2, asr #22
  54:	0000001c 	andeq	r0, r0, ip, lsl r0
  58:	00000000 	andeq	r0, r0, r0
  5c:	87800f40 	strhi	r0, [r0, r0, asr #30]
  60:	00000044 	andeq	r0, r0, r4, asr #32
  64:	8b040e42 	blhi	103974 <shift+0x103974>
  68:	0b0d4201 	bleq	350874 <shift+0x350874>
  6c:	420d0d5a 	andmi	r0, sp, #5760	@ 0x1680
  70:	00000ecb 	andeq	r0, r0, fp, asr #29
  74:	0000001c 	andeq	r0, r0, ip, lsl r0
  78:	00000000 	andeq	r0, r0, r0
  7c:	87800f84 	strhi	r0, [r0, r4, lsl #31]
  80:	00000048 	andeq	r0, r0, r8, asr #32
  84:	8b040e42 	blhi	103994 <shift+0x103994>
  88:	0b0d4201 	bleq	350894 <shift+0x350894>
  8c:	420d0d5c 	andmi	r0, sp, #92, 26	@ 0x1700
  90:	00000ecb 	andeq	r0, r0, fp, asr #29
  94:	0000001c 	andeq	r0, r0, ip, lsl r0
  98:	00000000 	andeq	r0, r0, r0
  9c:	87800fcc 	strhi	r0, [r0, ip, asr #31]
  a0:	00000044 	andeq	r0, r0, r4, asr #32
  a4:	8b040e42 	blhi	1039b4 <shift+0x1039b4>
  a8:	0b0d4201 	bleq	3508b4 <shift+0x3508b4>
  ac:	420d0d5a 	andmi	r0, sp, #5760	@ 0x1680
  b0:	00000ecb 	andeq	r0, r0, fp, asr #29
  b4:	0000000c 	andeq	r0, r0, ip
  b8:	ffffffff 			@ <UNDEFINED> instruction: 0xffffffff
  bc:	7c020001 	stcvc	0, cr0, [r2], {1}
  c0:	000d0c0e 	andeq	r0, sp, lr, lsl #24
  c4:	0000001c 	andeq	r0, r0, ip, lsl r0
  c8:	000000b4 	strheq	r0, [r0], -r4
  cc:	87801010 	usada8hi	r0, r0, r0, r1
  d0:	00000068 	andeq	r0, r0, r8, rrx
  d4:	8b040e42 	blhi	1039e4 <shift+0x1039e4>
  d8:	0b0d4201 	bleq	3508e4 <shift+0x3508e4>
  dc:	420d0d6c 	andmi	r0, sp, #108, 26	@ 0x1b00
  e0:	00000ecb 	andeq	r0, r0, fp, asr #29
  e4:	0000001c 	andeq	r0, r0, ip, lsl r0
  e8:	000000b4 	strheq	r0, [r0], -r4
  ec:	87801078 			@ <UNDEFINED> instruction: 0x87801078
  f0:	00000044 	andeq	r0, r0, r4, asr #32
  f4:	8b040e42 	blhi	103a04 <shift+0x103a04>
  f8:	0b0d4201 	bleq	350904 <shift+0x350904>
  fc:	420d0d5a 	andmi	r0, sp, #5760	@ 0x1680
 100:	00000ecb 	andeq	r0, r0, fp, asr #29
 104:	0000000c 	andeq	r0, r0, ip
 108:	ffffffff 			@ <UNDEFINED> instruction: 0xffffffff
 10c:	7c020001 	stcvc	0, cr0, [r2], {1}
 110:	000d0c0e 	andeq	r0, sp, lr, lsl #24
 114:	0000001c 	andeq	r0, r0, ip, lsl r0
 118:	00000104 	andeq	r0, r0, r4, lsl #2
 11c:	878010bc 			@ <UNDEFINED> instruction: 0x878010bc
 120:	00000098 	muleq	r0, r8, r0
 124:	8b080e42 	blhi	203a34 <shift+0x203a34>
 128:	42018e02 	andmi	r8, r1, #2, 28
 12c:	7e040b0c 	vmlavc.f64	d0, d4, d12
 130:	00080d0c 	andeq	r0, r8, ip, lsl #26
 134:	0000001c 	andeq	r0, r0, ip, lsl r0
 138:	00000104 	andeq	r0, r0, r4, lsl #2
 13c:	87801154 			@ <UNDEFINED> instruction: 0x87801154
 140:	00000030 	andeq	r0, r0, r0, lsr r0
 144:	8b040e42 	blhi	103a54 <shift+0x103a54>
 148:	0b0d4201 	bleq	350954 <shift+0x350954>
 14c:	420d0d4e 	andmi	r0, sp, #4992	@ 0x1380
 150:	00000ecb 	andeq	r0, r0, fp, asr #29
 154:	0000001c 	andeq	r0, r0, ip, lsl r0
 158:	00000104 	andeq	r0, r0, r4, lsl #2
 15c:	87801184 	strhi	r1, [r0, r4, lsl #3]
 160:	00000030 	andeq	r0, r0, r0, lsr r0
 164:	8b040e42 	blhi	103a74 <shift+0x103a74>
 168:	0b0d4201 	bleq	350974 <shift+0x350974>
 16c:	420d0d4e 	andmi	r0, sp, #4992	@ 0x1380
 170:	00000ecb 	andeq	r0, r0, fp, asr #29
 174:	00000018 	andeq	r0, r0, r8, lsl r0
 178:	00000104 	andeq	r0, r0, r4, lsl #2
 17c:	878011b4 			@ <UNDEFINED> instruction: 0x878011b4
 180:	00000034 	andeq	r0, r0, r4, lsr r0
 184:	8b080e42 	blhi	203a94 <shift+0x203a94>
 188:	42018e02 	andmi	r8, r1, #2, 28
 18c:	00040b0c 	andeq	r0, r4, ip, lsl #22
 190:	0000000c 	andeq	r0, r0, ip
 194:	ffffffff 			@ <UNDEFINED> instruction: 0xffffffff
 198:	7c020001 	stcvc	0, cr0, [r2], {1}
 19c:	000d0c0e 	andeq	r0, sp, lr, lsl #24
 1a0:	0000001c 	andeq	r0, r0, ip, lsl r0
 1a4:	00000190 	muleq	r0, r0, r1
 1a8:	878011e8 	strhi	r1, [r0, r8, ror #3]
 1ac:	00000070 	andeq	r0, r0, r0, ror r0
 1b0:	8b040e42 	blhi	103ac0 <shift+0x103ac0>
 1b4:	0b0d4201 	bleq	3509c0 <shift+0x3509c0>
 1b8:	420d0d6e 	andmi	r0, sp, #7040	@ 0x1b80
 1bc:	00000ecb 	andeq	r0, r0, fp, asr #29
 1c0:	0000001c 	andeq	r0, r0, ip, lsl r0
 1c4:	00000190 	muleq	r0, r0, r1
 1c8:	87801258 			@ <UNDEFINED> instruction: 0x87801258
 1cc:	0000009c 	muleq	r0, ip, r0
 1d0:	8b040e42 	blhi	103ae0 <shift+0x103ae0>
 1d4:	0b0d4201 	bleq	3509e0 <shift+0x3509e0>
 1d8:	0d0d4402 	stceq	4, cr4, [sp, #-8]
 1dc:	000ecb42 	andeq	ip, lr, r2, asr #22
 1e0:	0000001c 	andeq	r0, r0, ip, lsl r0
 1e4:	00000190 	muleq	r0, r0, r1
 1e8:	878012f4 			@ <UNDEFINED> instruction: 0x878012f4
 1ec:	000000a0 	andeq	r0, r0, r0, lsr #1
 1f0:	8b040e42 	blhi	103b00 <shift+0x103b00>
 1f4:	0b0d4201 	bleq	350a00 <shift+0x350a00>
 1f8:	0d0d4602 	stceq	6, cr4, [sp, #-8]
 1fc:	000ecb42 	andeq	ip, lr, r2, asr #22
 200:	0000001c 	andeq	r0, r0, ip, lsl r0
 204:	00000190 	muleq	r0, r0, r1
 208:	87801394 			@ <UNDEFINED> instruction: 0x87801394
 20c:	000000d0 	ldrdeq	r0, [r0], -r0	@ <UNPREDICTABLE>
 210:	8b040e42 	blhi	103b20 <shift+0x103b20>
 214:	0b0d4201 	bleq	350a20 <shift+0x350a20>
 218:	0d0d5a02 	vstreq	s10, [sp, #-8]
 21c:	000ecb42 	andeq	ip, lr, r2, asr #22
 220:	0000001c 	andeq	r0, r0, ip, lsl r0
 224:	00000190 	muleq	r0, r0, r1
 228:	87801464 	strhi	r1, [r0, r4, ror #8]
 22c:	00000060 	andeq	r0, r0, r0, rrx
 230:	8b040e42 	blhi	103b40 <shift+0x103b40>
 234:	0b0d4201 	bleq	350a40 <shift+0x350a40>
 238:	420d0d62 	andmi	r0, sp, #6272	@ 0x1880
 23c:	00000ecb 	andeq	r0, r0, fp, asr #29
 240:	0000001c 	andeq	r0, r0, ip, lsl r0
 244:	00000190 	muleq	r0, r0, r1
 248:	878014c4 	strhi	r1, [r0, r4, asr #9]
 24c:	00000060 	andeq	r0, r0, r0, rrx
 250:	8b040e42 	blhi	103b60 <shift+0x103b60>
 254:	0b0d4201 	bleq	350a60 <shift+0x350a60>
 258:	420d0d62 	andmi	r0, sp, #6272	@ 0x1880
 25c:	00000ecb 	andeq	r0, r0, fp, asr #29
 260:	0000001c 	andeq	r0, r0, ip, lsl r0
 264:	00000190 	muleq	r0, r0, r1
 268:	87801524 	strhi	r1, [r0, r4, lsr #10]
 26c:	000000a8 	andeq	r0, r0, r8, lsr #1
 270:	8b040e42 	blhi	103b80 <shift+0x103b80>
 274:	0b0d4201 	bleq	350a80 <shift+0x350a80>
 278:	0d0d4a02 	vstreq	s8, [sp, #-8]
 27c:	000ecb42 	andeq	ip, lr, r2, asr #22
 280:	0000001c 	andeq	r0, r0, ip, lsl r0
 284:	00000190 	muleq	r0, r0, r1
 288:	878015cc 	strhi	r1, [r0, ip, asr #11]
 28c:	00000050 	andeq	r0, r0, r0, asr r0
 290:	8b040e42 	blhi	103ba0 <shift+0x103ba0>
 294:	0b0d4201 	bleq	350aa0 <shift+0x350aa0>
 298:	420d0d5e 	andmi	r0, sp, #6016	@ 0x1780
 29c:	00000ecb 	andeq	r0, r0, fp, asr #29
 2a0:	0000001c 	andeq	r0, r0, ip, lsl r0
 2a4:	00000190 	muleq	r0, r0, r1
 2a8:	8780161c 	usada8hi	r0, ip, r6, r1
 2ac:	00000050 	andeq	r0, r0, r0, asr r0
 2b0:	8b040e42 	blhi	103bc0 <shift+0x103bc0>
 2b4:	0b0d4201 	bleq	350ac0 <shift+0x350ac0>
 2b8:	420d0d5e 	andmi	r0, sp, #6016	@ 0x1780
 2bc:	00000ecb 	andeq	r0, r0, fp, asr #29
 2c0:	00000018 	andeq	r0, r0, r8, lsl r0
 2c4:	00000190 	muleq	r0, r0, r1
 2c8:	8780166c 	strhi	r1, [r0, ip, ror #12]
 2cc:	0000001c 	andeq	r0, r0, ip, lsl r0
 2d0:	8b080e42 	blhi	203be0 <shift+0x203be0>
 2d4:	42018e02 	andmi	r8, r1, #2, 28
 2d8:	00040b0c 	andeq	r0, r4, ip, lsl #22
 2dc:	0000000c 	andeq	r0, r0, ip
 2e0:	ffffffff 			@ <UNDEFINED> instruction: 0xffffffff
 2e4:	7c020001 	stcvc	0, cr0, [r2], {1}
 2e8:	000d0c0e 	andeq	r0, sp, lr, lsl #24
 2ec:	0000001c 	andeq	r0, r0, ip, lsl r0
 2f0:	000002dc 	ldrdeq	r0, [r0], -ip
 2f4:	87801688 	strhi	r1, [r0, r8, lsl #13]
 2f8:	00000138 	andeq	r0, r0, r8, lsr r1
 2fc:	8b080e42 	blhi	203c0c <shift+0x203c0c>
 300:	42018e02 	andmi	r8, r1, #2, 28
 304:	02040b0c 	andeq	r0, r4, #12, 22	@ 0x3000
 308:	080d0c92 	stmdaeq	sp, {r1, r4, r7, sl, fp}
 30c:	0000001c 	andeq	r0, r0, ip, lsl r0
 310:	000002dc 	ldrdeq	r0, [r0], -ip
 314:	878017c0 	strhi	r1, [r0, r0, asr #15]
 318:	00000050 	andeq	r0, r0, r0, asr r0
 31c:	8b080e42 	blhi	203c2c <shift+0x203c2c>
 320:	42018e02 	andmi	r8, r1, #2, 28
 324:	60040b0c 	andvs	r0, r4, ip, lsl #22
 328:	00080d0c 	andeq	r0, r8, ip, lsl #26
 32c:	0000001c 	andeq	r0, r0, ip, lsl r0
 330:	000002dc 	ldrdeq	r0, [r0], -ip
 334:	87801810 	usada8hi	r0, r0, r8, r1
 338:	0000003c 	andeq	r0, r0, ip, lsr r0
 33c:	8b040e42 	blhi	103c4c <shift+0x103c4c>
 340:	0b0d4201 	bleq	350b4c <shift+0x350b4c>
 344:	420d0d54 	andmi	r0, sp, #84, 26	@ 0x1500
 348:	00000ecb 	andeq	r0, r0, fp, asr #29
 34c:	0000001c 	andeq	r0, r0, ip, lsl r0
 350:	000002dc 	ldrdeq	r0, [r0], -ip
 354:	8780184c 	strhi	r1, [r0, ip, asr #16]
 358:	000000bc 	strheq	r0, [r0], -ip
 35c:	8b040e42 	blhi	103c6c <shift+0x103c6c>
 360:	0b0d4201 	bleq	350b6c <shift+0x350b6c>
 364:	0d0d5402 	stceq	4, cr5, [sp, #-8]
 368:	000ecb42 	andeq	ip, lr, r2, asr #22
 36c:	0000001c 	andeq	r0, r0, ip, lsl r0
 370:	000002dc 	ldrdeq	r0, [r0], -ip
 374:	87801908 	strhi	r1, [r0, r8, lsl #18]
 378:	00000124 	andeq	r0, r0, r4, lsr #2
 37c:	8b080e42 	blhi	203c8c <shift+0x203c8c>
 380:	42018e02 	andmi	r8, r1, #2, 28
 384:	02040b0c 	andeq	r0, r4, #12, 22	@ 0x3000
 388:	080d0c88 	stmdaeq	sp, {r3, r7, sl, fp}
 38c:	00000018 	andeq	r0, r0, r8, lsl r0
 390:	000002dc 	ldrdeq	r0, [r0], -ip
 394:	87801a2c 	strhi	r1, [r0, ip, lsr #20]
 398:	00000024 	andeq	r0, r0, r4, lsr #32
 39c:	8b080e42 	blhi	203cac <shift+0x203cac>
 3a0:	42018e02 	andmi	r8, r1, #2, 28
 3a4:	00040b0c 	andeq	r0, r4, ip, lsl #22
 3a8:	0000001c 	andeq	r0, r0, ip, lsl r0
 3ac:	000002dc 	ldrdeq	r0, [r0], -ip
 3b0:	87801a50 			@ <UNDEFINED> instruction: 0x87801a50
 3b4:	000000a8 	andeq	r0, r0, r8, lsr #1
 3b8:	8b080e42 	blhi	203cc8 <shift+0x203cc8>
 3bc:	42018e02 	andmi	r8, r1, #2, 28
 3c0:	02040b0c 	andeq	r0, r4, #12, 22	@ 0x3000
 3c4:	080d0c46 	stmdaeq	sp, {r1, r2, r6, sl, fp}
 3c8:	0000001c 	andeq	r0, r0, ip, lsl r0
 3cc:	000002dc 	ldrdeq	r0, [r0], -ip
 3d0:	87801af8 			@ <UNDEFINED> instruction: 0x87801af8
 3d4:	00000030 	andeq	r0, r0, r0, lsr r0
 3d8:	8b040e42 	blhi	103ce8 <shift+0x103ce8>
 3dc:	0b0d4201 	bleq	350be8 <shift+0x350be8>
 3e0:	420d0d4e 	andmi	r0, sp, #4992	@ 0x1380
 3e4:	00000ecb 	andeq	r0, r0, fp, asr #29
 3e8:	0000001c 	andeq	r0, r0, ip, lsl r0
 3ec:	000002dc 	ldrdeq	r0, [r0], -ip
 3f0:	87801b28 	strhi	r1, [r0, r8, lsr #22]
 3f4:	00000064 	andeq	r0, r0, r4, rrx
 3f8:	8b040e42 	blhi	103d08 <shift+0x103d08>
 3fc:	0b0d4201 	bleq	350c08 <shift+0x350c08>
 400:	420d0d68 	andmi	r0, sp, #104, 26	@ 0x1a00
 404:	00000ecb 	andeq	r0, r0, fp, asr #29
 408:	0000001c 	andeq	r0, r0, ip, lsl r0
 40c:	000002dc 	ldrdeq	r0, [r0], -ip
 410:	87801b8c 	strhi	r1, [r0, ip, lsl #23]
 414:	00000084 	andeq	r0, r0, r4, lsl #1
 418:	8b040e42 	blhi	103d28 <shift+0x103d28>
 41c:	0b0d4201 	bleq	350c28 <shift+0x350c28>
 420:	420d0d78 	andmi	r0, sp, #120, 26	@ 0x1e00
 424:	00000ecb 	andeq	r0, r0, fp, asr #29
 428:	0000000c 	andeq	r0, r0, ip
 42c:	ffffffff 			@ <UNDEFINED> instruction: 0xffffffff
 430:	7c020001 	stcvc	0, cr0, [r2], {1}
 434:	000d0c0e 	andeq	r0, sp, lr, lsl #24
 438:	0000001c 	andeq	r0, r0, ip, lsl r0
 43c:	00000428 	andeq	r0, r0, r8, lsr #8
 440:	87801c10 	usada8hi	r0, r0, ip, r1
 444:	0000003c 	andeq	r0, r0, ip, lsr r0
 448:	8b040e42 	blhi	103d58 <shift+0x103d58>
 44c:	0b0d4201 	bleq	350c58 <shift+0x350c58>
 450:	420d0d56 	andmi	r0, sp, #5504	@ 0x1580
 454:	00000ecb 	andeq	r0, r0, fp, asr #29
 458:	0000001c 	andeq	r0, r0, ip, lsl r0
 45c:	00000428 	andeq	r0, r0, r8, lsr #8
 460:	87801c4c 	strhi	r1, [r0, ip, asr #24]
 464:	00000044 	andeq	r0, r0, r4, asr #32
 468:	8b080e42 	blhi	203d78 <shift+0x203d78>
 46c:	42018e02 	andmi	r8, r1, #2, 28
 470:	5a040b0c 	bpl	1030a8 <shift+0x1030a8>
 474:	00080d0c 	andeq	r0, r8, ip, lsl #26
 478:	0000000c 	andeq	r0, r0, ip
 47c:	ffffffff 			@ <UNDEFINED> instruction: 0xffffffff
 480:	7c020001 	stcvc	0, cr0, [r2], {1}
 484:	000d0c0e 	andeq	r0, sp, lr, lsl #24
 488:	0000001c 	andeq	r0, r0, ip, lsl r0
 48c:	00000478 	andeq	r0, r0, r8, ror r4
 490:	87801c90 			@ <UNDEFINED> instruction: 0x87801c90
 494:	000000f8 	strdeq	r0, [r0], -r8
 498:	8b080e42 	blhi	203da8 <shift+0x203da8>
 49c:	42018e02 	andmi	r8, r1, #2, 28
 4a0:	02040b0c 	andeq	r0, r4, #12, 22	@ 0x3000
 4a4:	080d0c74 	stmdaeq	sp, {r2, r4, r5, r6, sl, fp}
 4a8:	0000001c 	andeq	r0, r0, ip, lsl r0
 4ac:	00000478 	andeq	r0, r0, r8, ror r4
 4b0:	87801d88 	strhi	r1, [r0, r8, lsl #27]
 4b4:	00000060 	andeq	r0, r0, r0, rrx
 4b8:	8b040e42 	blhi	103dc8 <shift+0x103dc8>
 4bc:	0b0d4201 	bleq	350cc8 <shift+0x350cc8>
 4c0:	420d0d64 	andmi	r0, sp, #100, 26	@ 0x1900
 4c4:	00000ecb 	andeq	r0, r0, fp, asr #29
 4c8:	0000001c 	andeq	r0, r0, ip, lsl r0
 4cc:	00000478 	andeq	r0, r0, r8, ror r4
 4d0:	87801de8 	strhi	r1, [r0, r8, ror #27]
 4d4:	0000005c 	andeq	r0, r0, ip, asr r0
 4d8:	8b080e42 	blhi	203de8 <shift+0x203de8>
 4dc:	42018e02 	andmi	r8, r1, #2, 28
 4e0:	66040b0c 	strvs	r0, [r4], -ip, lsl #22
 4e4:	00080d0c 	andeq	r0, r8, ip, lsl #26
 4e8:	0000001c 	andeq	r0, r0, ip, lsl r0
 4ec:	00000478 	andeq	r0, r0, r8, ror r4
 4f0:	87801e44 	strhi	r1, [r0, r4, asr #28]
 4f4:	000000cc 	andeq	r0, r0, ip, asr #1
 4f8:	8b080e42 	blhi	203e08 <shift+0x203e08>
 4fc:	42018e02 	andmi	r8, r1, #2, 28
 500:	02040b0c 	andeq	r0, r4, #12, 22	@ 0x3000
 504:	080d0c54 	stmdaeq	sp, {r2, r4, r6, sl, fp}
 508:	00000014 	andeq	r0, r0, r4, lsl r0
 50c:	00000478 	andeq	r0, r0, r8, ror r4
 510:	87801f10 	usada8hi	r0, r0, pc, r1	@ <UNPREDICTABLE>
 514:	0000001c 	andeq	r0, r0, ip, lsl r0
 518:	8b040e42 	blhi	103e28 <shift+0x103e28>
 51c:	0b0d4201 	bleq	350d28 <shift+0x350d28>
 520:	0000000c 	andeq	r0, r0, ip
 524:	ffffffff 			@ <UNDEFINED> instruction: 0xffffffff
 528:	7c020001 	stcvc	0, cr0, [r2], {1}
 52c:	000d0c0e 	andeq	r0, sp, lr, lsl #24
 530:	0000001c 	andeq	r0, r0, ip, lsl r0
 534:	00000520 	andeq	r0, r0, r0, lsr #10
 538:	87801f2c 	strhi	r1, [r0, ip, lsr #30]
 53c:	0000006c 	andeq	r0, r0, ip, rrx
 540:	8b080e42 	blhi	203e50 <shift+0x203e50>
 544:	42018e02 	andmi	r8, r1, #2, 28
 548:	6a040b0c 	bvs	103180 <shift+0x103180>
 54c:	00080d0c 	andeq	r0, r8, ip, lsl #26
 550:	00000018 	andeq	r0, r0, r8, lsl r0
 554:	00000520 	andeq	r0, r0, r0, lsr #10
 558:	87801f98 			@ <UNDEFINED> instruction: 0x87801f98
 55c:	00000058 	andeq	r0, r0, r8, asr r0
 560:	8b080e42 	blhi	203e70 <shift+0x203e70>
 564:	42018e02 	andmi	r8, r1, #2, 28
 568:	00040b0c 	andeq	r0, r4, ip, lsl #22
 56c:	0000001c 	andeq	r0, r0, ip, lsl r0
 570:	00000520 	andeq	r0, r0, r0, lsr #10
 574:	87801ff0 			@ <UNDEFINED> instruction: 0x87801ff0
 578:	000000c4 	andeq	r0, r0, r4, asr #1
 57c:	8b080e42 	blhi	203e8c <shift+0x203e8c>
 580:	42018e02 	andmi	r8, r1, #2, 28
 584:	02040b0c 	andeq	r0, r4, #12, 22	@ 0x3000
 588:	080d0c58 	stmdaeq	sp, {r3, r4, r6, sl, fp}
 58c:	0000001c 	andeq	r0, r0, ip, lsl r0
 590:	00000520 	andeq	r0, r0, r0, lsr #10
 594:	878020b4 			@ <UNDEFINED> instruction: 0x878020b4
 598:	00000064 	andeq	r0, r0, r4, rrx
 59c:	8b080e42 	blhi	203eac <shift+0x203eac>
 5a0:	42018e02 	andmi	r8, r1, #2, 28
 5a4:	68040b0c 	stmdavs	r4, {r2, r3, r8, r9, fp}
 5a8:	00080d0c 	andeq	r0, r8, ip, lsl #26
 5ac:	0000000c 	andeq	r0, r0, ip
 5b0:	ffffffff 			@ <UNDEFINED> instruction: 0xffffffff
 5b4:	7c020001 	stcvc	0, cr0, [r2], {1}
 5b8:	000d0c0e 	andeq	r0, sp, lr, lsl #24
 5bc:	0000001c 	andeq	r0, r0, ip, lsl r0
 5c0:	000005ac 	andeq	r0, r0, ip, lsr #11
 5c4:	87802118 	usada8hi	r0, r8, r1, r2
 5c8:	00000098 	muleq	r0, r8, r0
 5cc:	8b080e42 	blhi	203edc <shift+0x203edc>
 5d0:	42018e02 	andmi	r8, r1, #2, 28
 5d4:	7e040b0c 	vmlavc.f64	d0, d4, d12
 5d8:	00080d0c 	andeq	r0, r8, ip, lsl #26
 5dc:	0000001c 	andeq	r0, r0, ip, lsl r0
 5e0:	000005ac 	andeq	r0, r0, ip, lsr #11
 5e4:	878021b0 			@ <UNDEFINED> instruction: 0x878021b0
 5e8:	00000030 	andeq	r0, r0, r0, lsr r0
 5ec:	8b040e42 	blhi	103efc <shift+0x103efc>
 5f0:	0b0d4201 	bleq	350dfc <shift+0x350dfc>
 5f4:	420d0d4e 	andmi	r0, sp, #4992	@ 0x1380
 5f8:	00000ecb 	andeq	r0, r0, fp, asr #29
 5fc:	0000001c 	andeq	r0, r0, ip, lsl r0
 600:	000005ac 	andeq	r0, r0, ip, lsr #11
 604:	878021e0 	strhi	r2, [r0, r0, ror #3]
 608:	00000030 	andeq	r0, r0, r0, lsr r0
 60c:	8b040e42 	blhi	103f1c <shift+0x103f1c>
 610:	0b0d4201 	bleq	350e1c <shift+0x350e1c>
 614:	420d0d4e 	andmi	r0, sp, #4992	@ 0x1380
 618:	00000ecb 	andeq	r0, r0, fp, asr #29
 61c:	00000018 	andeq	r0, r0, r8, lsl r0
 620:	000005ac 	andeq	r0, r0, ip, lsr #11
 624:	87802210 	usada8hi	r0, r0, r2, r2
 628:	00000034 	andeq	r0, r0, r4, lsr r0
 62c:	8b080e42 	blhi	203f3c <shift+0x203f3c>
 630:	42018e02 	andmi	r8, r1, #2, 28
 634:	00040b0c 	andeq	r0, r4, ip, lsl #22
 638:	0000000c 	andeq	r0, r0, ip
 63c:	ffffffff 			@ <UNDEFINED> instruction: 0xffffffff
 640:	7c020001 	stcvc	0, cr0, [r2], {1}
 644:	000d0c0e 	andeq	r0, sp, lr, lsl #24
 648:	00000018 	andeq	r0, r0, r8, lsl r0
 64c:	00000638 	andeq	r0, r0, r8, lsr r6
 650:	87802244 	strhi	r2, [r0, r4, asr #4]
 654:	000000f4 	strdeq	r0, [r0], -r4
 658:	8b080e42 	blhi	203f68 <shift+0x203f68>
 65c:	42018e02 	andmi	r8, r1, #2, 28
 660:	00040b0c 	andeq	r0, r4, ip, lsl #22
 664:	0000001c 	andeq	r0, r0, ip, lsl r0
 668:	00000638 	andeq	r0, r0, r8, lsr r6
 66c:	87802338 			@ <UNDEFINED> instruction: 0x87802338
 670:	00000050 	andeq	r0, r0, r0, asr r0
 674:	8b040e42 	blhi	103f84 <shift+0x103f84>
 678:	0b0d4201 	bleq	350e84 <shift+0x350e84>
 67c:	420d0d60 	andmi	r0, sp, #96, 26	@ 0x1800
 680:	00000ecb 	andeq	r0, r0, fp, asr #29
 684:	0000001c 	andeq	r0, r0, ip, lsl r0
 688:	00000638 	andeq	r0, r0, r8, lsr r6
 68c:	87802388 	strhi	r2, [r0, r8, lsl #7]
 690:	000000c0 	andeq	r0, r0, r0, asr #1
 694:	8b080e42 	blhi	203fa4 <shift+0x203fa4>
 698:	42018e02 	andmi	r8, r1, #2, 28
 69c:	02040b0c 	andeq	r0, r4, #12, 22	@ 0x3000
 6a0:	080d0c4e 	stmdaeq	sp, {r1, r2, r3, r6, sl, fp}
 6a4:	0000001c 	andeq	r0, r0, ip, lsl r0
 6a8:	00000638 	andeq	r0, r0, r8, lsr r6
 6ac:	87802448 	strhi	r2, [r0, r8, asr #8]
 6b0:	00000034 	andeq	r0, r0, r4, lsr r0
 6b4:	8b040e42 	blhi	103fc4 <shift+0x103fc4>
 6b8:	0b0d4201 	bleq	350ec4 <shift+0x350ec4>
 6bc:	420d0d52 	andmi	r0, sp, #5248	@ 0x1480
 6c0:	00000ecb 	andeq	r0, r0, fp, asr #29
 6c4:	0000001c 	andeq	r0, r0, ip, lsl r0
 6c8:	00000638 	andeq	r0, r0, r8, lsr r6
 6cc:	8780247c 			@ <UNDEFINED> instruction: 0x8780247c
 6d0:	00000034 	andeq	r0, r0, r4, lsr r0
 6d4:	8b040e42 	blhi	103fe4 <shift+0x103fe4>
 6d8:	0b0d4201 	bleq	350ee4 <shift+0x350ee4>
 6dc:	420d0d52 	andmi	r0, sp, #5248	@ 0x1480
 6e0:	00000ecb 	andeq	r0, r0, fp, asr #29
 6e4:	0000001c 	andeq	r0, r0, ip, lsl r0
 6e8:	00000638 	andeq	r0, r0, r8, lsr r6
 6ec:	878024b0 			@ <UNDEFINED> instruction: 0x878024b0
 6f0:	0000004c 	andeq	r0, r0, ip, asr #32
 6f4:	8b040e42 	blhi	104004 <shift+0x104004>
 6f8:	0b0d4201 	bleq	350f04 <shift+0x350f04>
 6fc:	420d0d5c 	andmi	r0, sp, #92, 26	@ 0x1700
 700:	00000ecb 	andeq	r0, r0, fp, asr #29
 704:	0000001c 	andeq	r0, r0, ip, lsl r0
 708:	00000638 	andeq	r0, r0, r8, lsr r6
 70c:	878024fc 			@ <UNDEFINED> instruction: 0x878024fc
 710:	00000050 	andeq	r0, r0, r0, asr r0
 714:	8b080e42 	blhi	204024 <shift+0x204024>
 718:	42018e02 	andmi	r8, r1, #2, 28
 71c:	62040b0c 	andvs	r0, r4, #12, 22	@ 0x3000
 720:	00080d0c 	andeq	r0, r8, ip, lsl #26
 724:	0000001c 	andeq	r0, r0, ip, lsl r0
 728:	00000638 	andeq	r0, r0, r8, lsr r6
 72c:	8780254c 	strhi	r2, [r0, ip, asr #10]
 730:	00000040 	andeq	r0, r0, r0, asr #32
 734:	8b040e42 	blhi	104044 <shift+0x104044>
 738:	0b0d4201 	bleq	350f44 <shift+0x350f44>
 73c:	420d0d56 	andmi	r0, sp, #5504	@ 0x1580
 740:	00000ecb 	andeq	r0, r0, fp, asr #29
 744:	0000001c 	andeq	r0, r0, ip, lsl r0
 748:	00000638 	andeq	r0, r0, r8, lsr r6
 74c:	8780258c 	strhi	r2, [r0, ip, lsl #11]
 750:	00000018 	andeq	r0, r0, r8, lsl r0
 754:	8b040e42 	blhi	104064 <shift+0x104064>
 758:	0b0d4201 	bleq	350f64 <shift+0x350f64>
 75c:	420d0d44 	andmi	r0, sp, #68, 26	@ 0x1100
 760:	00000ecb 	andeq	r0, r0, fp, asr #29
 764:	0000000c 	andeq	r0, r0, ip
 768:	ffffffff 			@ <UNDEFINED> instruction: 0xffffffff
 76c:	7c020001 	stcvc	0, cr0, [r2], {1}
 770:	000d0c0e 	andeq	r0, sp, lr, lsl #24
 774:	0000001c 	andeq	r0, r0, ip, lsl r0
 778:	00000764 	andeq	r0, r0, r4, ror #14
 77c:	878025a4 	strhi	r2, [r0, r4, lsr #11]
 780:	00000148 	andeq	r0, r0, r8, asr #2
 784:	8b080e42 	blhi	204094 <shift+0x204094>
 788:	42018e02 	andmi	r8, r1, #2, 28
 78c:	02040b0c 	andeq	r0, r4, #12, 22	@ 0x3000
 790:	080d0c98 	stmdaeq	sp, {r3, r4, r7, sl, fp}
 794:	00000034 	andeq	r0, r0, r4, lsr r0
 798:	00000764 	andeq	r0, r0, r4, ror #14
 79c:	878026ec 	strhi	r2, [r0, ip, ror #13]
 7a0:	00000148 	andeq	r0, r0, r8, asr #2
 7a4:	80100e42 	andshi	r0, r0, r2, asr #28
 7a8:	82038104 	andhi	r8, r3, #4, 2
 7ac:	42018302 	andmi	r8, r1, #134217728	@ 0x8000000
 7b0:	068b180e 	streq	r1, [fp], lr, lsl #16
 7b4:	0c42058e 	mcrreq	5, 8, r0, r2, cr14
 7b8:	9602140b 	strls	r1, [r2], -fp, lsl #8
 7bc:	42180d0c 	andsmi	r0, r8, #12, 26	@ 0x300
 7c0:	100ecbce 	andne	ip, lr, lr, asr #23
 7c4:	c1c2c342 	bicgt	ip, r2, r2, asr #6
 7c8:	00000ec0 	andeq	r0, r0, r0, asr #29
 7cc:	0000000c 	andeq	r0, r0, ip
 7d0:	ffffffff 			@ <UNDEFINED> instruction: 0xffffffff
 7d4:	7c010001 	stcvc	0, cr0, [r1], {1}
 7d8:	000d0c0e 	andeq	r0, sp, lr, lsl #24
 7dc:	0000000c 	andeq	r0, r0, ip
 7e0:	000007cc 	andeq	r0, r0, ip, asr #15
 7e4:	87802834 			@ <UNDEFINED> instruction: 0x87802834
 7e8:	000001ec 	andeq	r0, r0, ip, ror #3
 7ec:	0000000c 	andeq	r0, r0, ip
 7f0:	ffffffff 			@ <UNDEFINED> instruction: 0xffffffff
 7f4:	7c010001 	stcvc	0, cr0, [r1], {1}
 7f8:	000d0c0e 	andeq	r0, sp, lr, lsl #24
 7fc:	00000014 	andeq	r0, r0, r4, lsl r0
 800:	000007ec 	andeq	r0, r0, ip, ror #15
 804:	87802a40 	strhi	r2, [r0, r0, asr #20]
 808:	00000010 	andeq	r0, r0, r0, lsl r0
 80c:	0e018e44 	cdpeq	14, 0, cr8, cr1, cr4, {2}
 810:	00000008 	andeq	r0, r0, r8

Disassembly of section .debug_rnglists:

00000000 <.debug_rnglists>:
   0:	00000013 	andeq	r0, r0, r3, lsl r0
   4:	00040005 	andeq	r0, r4, r5
   8:	00000000 	andeq	r0, r0, r0
   c:	8002fc04 	andhi	pc, r2, r4, lsl #24
  10:	04e00404 	strbteq	r0, [r0], #1028	@ 0x404
  14:	Address 0x14 is out of bounds.


Disassembly of section .debug_line_str:

00000000 <.debug_line_str>:
   0:	6975622f 	ldmdbvs	r5!, {r0, r1, r2, r3, r5, r9, sp, lr}^
   4:	612f646c 			@ <UNDEFINED> instruction: 0x612f646c
   8:	6c2d6d72 	stcvs	13, cr6, [sp], #-456	@ 0xfffffe38
   c:	78756e69 	ldmdavc	r5!, {r0, r3, r5, r6, r9, sl, fp, sp, lr}^
  10:	756e672d 	strbvc	r6, [lr, #-1837]!	@ 0xfffff8d3
  14:	69626165 	stmdbvs	r2!, {r0, r2, r5, r6, r8, sp, lr}^
  18:	672d6668 	strvs	r6, [sp, -r8, ror #12]!
  1c:	732f6363 			@ <UNDEFINED> instruction: 0x732f6363
  20:	672f6372 			@ <UNDEFINED> instruction: 0x672f6372
  24:	622d6363 	eorvs	r6, sp, #-1946157055	@ 0x8c000001
  28:	646c6975 	strbtvs	r6, [ip], #-2421	@ 0xfffff68b
  2c:	6d72612f 	ldclvs	1, cr6, [r2, #-188]!	@ 0xffffff44
  30:	6e696c2d 	cdpvs	12, 6, cr6, cr9, cr13, {1}
  34:	672d7875 			@ <UNDEFINED> instruction: 0x672d7875
  38:	6165756e 	cmnvs	r5, lr, ror #10
  3c:	66686962 	strbtvs	r6, [r8], -r2, ror #18
  40:	62696c2f 	rsbvs	r6, r9, #12032	@ 0x2f00
  44:	00636367 	rsbeq	r6, r3, r7, ror #6
  48:	6975622f 	ldmdbvs	r5!, {r0, r1, r2, r3, r5, r9, sp, lr}^
  4c:	612f646c 			@ <UNDEFINED> instruction: 0x612f646c
  50:	6c2d6d72 	stcvs	13, cr6, [sp], #-456	@ 0xfffffe38
  54:	78756e69 	ldmdavc	r5!, {r0, r3, r5, r6, r9, sl, fp, sp, lr}^
  58:	756e672d 	strbvc	r6, [lr, #-1837]!	@ 0xfffff8d3
  5c:	69626165 	stmdbvs	r2!, {r0, r2, r5, r6, r8, sp, lr}^
  60:	672d6668 	strvs	r6, [sp, -r8, ror #12]!
  64:	732f6363 			@ <UNDEFINED> instruction: 0x732f6363
  68:	672f6372 			@ <UNDEFINED> instruction: 0x672f6372
  6c:	6c2f6363 	stcvs	3, cr6, [pc], #-396	@ fffffee8 <__bss_end+0x787fcea4>
  70:	63676269 	cmnvs	r7, #-1879048186	@ 0x90000006
  74:	6f632f63 	svcvs	0x00632f63
  78:	6769666e 	strbvs	r6, [r9, -lr, ror #12]!
  7c:	6d72612f 	ldclvs	1, cr6, [r2, #-188]!	@ 0xffffff44
  80:	62696c00 	rsbvs	r6, r9, #0, 24
  84:	6e756631 	mrcvs	6, 3, r6, cr5, cr1, {1}
  88:	532e7363 			@ <UNDEFINED> instruction: 0x532e7363
	...
